; mark_description "Intel(R) C++ Intel(R) 64 Compiler for applications running on Intel(R) 64, Version 17.0.4.210 Build 20170411";
; mark_description "";
; mark_description "-c -Qm64 -IC:\\Program Files (x86)\\Intel\\IntelSGXSDK\\include -IC:\\Program Files (x86)\\Intel\\IntelSGXSD";
; mark_description "K\\include\\tlibc -IC:\\Program Files (x86)\\Intel\\IntelSGXSDK\\include\\libc++ -IC:\\Program Files (x86)\\";
; mark_description "Intel\\IntelSGXSDK\\include\\ipp -IC:\\Program Files (x86)\\IntelSWTools\\compilers_and_libraries_2017.2.187";
; mark_description "\\windows\\compiler\\include -Zi -nologo -W3 -Od -Oi -D __INTEL_COMPILER=1700 -D _WINDLL -EHs -EHc -MTd -GS ";
; mark_description "-arch:AVX -QaxSSE3 -QxSSE3 -Zc:wchar_t -Zc:forScope -FAcs -FaEnclaveSimulation\\ -FoEnclaveSimulation\\ -FdE";
; mark_description "nclaveSimulation\\vc140.pdb -TP -S";
	OPTION DOTNAME
_TEXT	SEGMENT      'CODE'
TXTST0:
_2__routine_start_enclaveRunLengthEncode_2:
; -- Begin  enclaveRunLengthEncode
_TEXT	ENDS
_TEXT	SEGMENT      'CODE'
; mark_begin;

	PUBLIC enclaveRunLengthEncode
; --- enclaveRunLengthEncode(uint8_t *, size_t, uint8_t *, size_t)
enclaveRunLengthEncode	PROC 
; parameter 1(in): rcx
; parameter 2(inLength): rdx
; parameter 3(out): r8
; parameter 4(outLength): r9
.B1.1::                         ; Preds .B1.0
                                ; Execution count [0.00e+000]

;;; {

L2::
                                                           ;\\Mac\Home\Documents\Studium\6. Semester\Bachelorarbeit\Code\PerformanceTests\Enclave\E_RLESum.cpp:4.1
$LN0:
  00000 55               push rbp                               ;\\Mac\Home\Documents\Studium\6. Semester\Bachelorarbeit\Code\PerformanceTests\Enclave\E_RLESum.cpp:4.1
$LN1:
  00001 48 83 ec 70      sub rsp, 112                           ;\\Mac\Home\Documents\Studium\6. Semester\Bachelorarbeit\Code\PerformanceTests\Enclave\E_RLESum.cpp:4.1
$LN2:
  00005 48 8d 6c 24 20   lea rbp, QWORD PTR [32+rsp]            ;\\Mac\Home\Documents\Studium\6. Semester\Bachelorarbeit\Code\PerformanceTests\Enclave\E_RLESum.cpp:4.1
$LN3:
  0000a 48 89 4d 60      mov QWORD PTR [96+rbp], rcx            ;\\Mac\Home\Documents\Studium\6. Semester\Bachelorarbeit\Code\PerformanceTests\Enclave\E_RLESum.cpp:4.1
$LN4:
  0000e 48 89 55 68      mov QWORD PTR [104+rbp], rdx           ;\\Mac\Home\Documents\Studium\6. Semester\Bachelorarbeit\Code\PerformanceTests\Enclave\E_RLESum.cpp:4.1
$LN5:
  00012 4c 89 45 70      mov QWORD PTR [112+rbp], r8            ;\\Mac\Home\Documents\Studium\6. Semester\Bachelorarbeit\Code\PerformanceTests\Enclave\E_RLESum.cpp:4.1
$LN6:
  00016 4c 89 4d 78      mov QWORD PTR [120+rbp], r9            ;\\Mac\Home\Documents\Studium\6. Semester\Bachelorarbeit\Code\PerformanceTests\Enclave\E_RLESum.cpp:4.1
$LN7:

;;; 	const uint32_t* in32 = reinterpret_cast<const uint32_t*>(in);

  0001a 48 8b 45 60      mov rax, QWORD PTR [96+rbp]            ;\\Mac\Home\Documents\Studium\6. Semester\Bachelorarbeit\Code\PerformanceTests\Enclave\E_RLESum.cpp:5.23
$LN8:
  0001e 48 89 45 18      mov QWORD PTR [24+rbp], rax            ;\\Mac\Home\Documents\Studium\6. Semester\Bachelorarbeit\Code\PerformanceTests\Enclave\E_RLESum.cpp:5.23
$LN9:

;;; 	const size_t countIn32 = inLength / sizeof(uint32_t);

  00022 48 8b 45 68      mov rax, QWORD PTR [104+rbp]           ;\\Mac\Home\Documents\Studium\6. Semester\Bachelorarbeit\Code\PerformanceTests\Enclave\E_RLESum.cpp:6.25
$LN10:
  00026 48 c1 e8 02      shr rax, 2                             ;\\Mac\Home\Documents\Studium\6. Semester\Bachelorarbeit\Code\PerformanceTests\Enclave\E_RLESum.cpp:6.25
$LN11:
  0002a 48 89 45 20      mov QWORD PTR [32+rbp], rax            ;\\Mac\Home\Documents\Studium\6. Semester\Bachelorarbeit\Code\PerformanceTests\Enclave\E_RLESum.cpp:6.25
$LN12:

;;; 
;;; 	if (countIn32 == 0) return 0;

  0002e 48 8b 45 20      mov rax, QWORD PTR [32+rbp]            ;\\Mac\Home\Documents\Studium\6. Semester\Bachelorarbeit\Code\PerformanceTests\Enclave\E_RLESum.cpp:8.2
$LN13:
  00032 48 85 c0         test rax, rax                          ;\\Mac\Home\Documents\Studium\6. Semester\Bachelorarbeit\Code\PerformanceTests\Enclave\E_RLESum.cpp:8.2
$LN14:
  00035 75 0b            jne .B1.3 ; Prob 50%                   ;\\Mac\Home\Documents\Studium\6. Semester\Bachelorarbeit\Code\PerformanceTests\Enclave\E_RLESum.cpp:8.2
$LN15:
                                ; LOE rbx rbp rsi rdi rsp r12 r13 r14 r15 rip zmm6 zmm7 zmm8 zmm9 zmm10 zmm11 zmm12 zmm13 zmm14 zmm15
.B1.2::                         ; Preds .B1.1
                                ; Execution count [0.00e+000]
$LN16:
  00037 b8 00 00 00 00   mov eax, 0                             ;\\Mac\Home\Documents\Studium\6. Semester\Bachelorarbeit\Code\PerformanceTests\Enclave\E_RLESum.cpp:8.22
$LN17:
  0003c 48 8d 65 50      lea rsp, QWORD PTR [80+rbp]            ;\\Mac\Home\Documents\Studium\6. Semester\Bachelorarbeit\Code\PerformanceTests\Enclave\E_RLESum.cpp:8.22
$LN18:
  00040 5d               pop rbp                                ;\\Mac\Home\Documents\Studium\6. Semester\Bachelorarbeit\Code\PerformanceTests\Enclave\E_RLESum.cpp:8.22
$LN19:
  00041 c3               ret                                    ;\\Mac\Home\Documents\Studium\6. Semester\Bachelorarbeit\Code\PerformanceTests\Enclave\E_RLESum.cpp:8.22
$LN20:
                                ; LOE
.B1.3::                         ; Preds .B1.1
                                ; Execution count [0.00e+000]
$LN21:

;;; 
;;; 	const uint32_t* current32 = in32 + 1;

  00042 b8 04 00 00 00   mov eax, 4                             ;\\Mac\Home\Documents\Studium\6. Semester\Bachelorarbeit\Code\PerformanceTests\Enclave\E_RLESum.cpp:10.28
$LN22:
  00047 48 03 45 18      add rax, QWORD PTR [24+rbp]            ;\\Mac\Home\Documents\Studium\6. Semester\Bachelorarbeit\Code\PerformanceTests\Enclave\E_RLESum.cpp:10.28
$LN23:
  0004b 48 89 45 28      mov QWORD PTR [40+rbp], rax            ;\\Mac\Home\Documents\Studium\6. Semester\Bachelorarbeit\Code\PerformanceTests\Enclave\E_RLESum.cpp:10.28
$LN24:

;;; 	const uint32_t* const end32 = in32 + countIn32;

  0004f 48 8b 45 20      mov rax, QWORD PTR [32+rbp]            ;\\Mac\Home\Documents\Studium\6. Semester\Bachelorarbeit\Code\PerformanceTests\Enclave\E_RLESum.cpp:11.30
$LN25:
  00053 48 6b c0 04      imul rax, rax, 4                       ;\\Mac\Home\Documents\Studium\6. Semester\Bachelorarbeit\Code\PerformanceTests\Enclave\E_RLESum.cpp:11.30
$LN26:
  00057 48 03 45 18      add rax, QWORD PTR [24+rbp]            ;\\Mac\Home\Documents\Studium\6. Semester\Bachelorarbeit\Code\PerformanceTests\Enclave\E_RLESum.cpp:11.30
$LN27:
  0005b 48 89 45 30      mov QWORD PTR [48+rbp], rax            ;\\Mac\Home\Documents\Studium\6. Semester\Bachelorarbeit\Code\PerformanceTests\Enclave\E_RLESum.cpp:11.30
$LN28:

;;; 	uint32_t* out32 = reinterpret_cast<uint32_t*>(out);

  0005f 48 8b 45 70      mov rax, QWORD PTR [112+rbp]           ;\\Mac\Home\Documents\Studium\6. Semester\Bachelorarbeit\Code\PerformanceTests\Enclave\E_RLESum.cpp:12.18
$LN29:
  00063 48 89 45 38      mov QWORD PTR [56+rbp], rax            ;\\Mac\Home\Documents\Studium\6. Semester\Bachelorarbeit\Code\PerformanceTests\Enclave\E_RLESum.cpp:12.18
$LN30:

;;; 	const uint32_t* const initOut32 = out32;

  00067 48 8b 45 38      mov rax, QWORD PTR [56+rbp]            ;\\Mac\Home\Documents\Studium\6. Semester\Bachelorarbeit\Code\PerformanceTests\Enclave\E_RLESum.cpp:13.34
$LN31:
  0006b 48 89 45 40      mov QWORD PTR [64+rbp], rax            ;\\Mac\Home\Documents\Studium\6. Semester\Bachelorarbeit\Code\PerformanceTests\Enclave\E_RLESum.cpp:13.34
$LN32:

;;; 
;;; 	uint32_t currentRunValue = *in32;

  0006f 48 8b 45 18      mov rax, QWORD PTR [24+rbp]            ;\\Mac\Home\Documents\Studium\6. Semester\Bachelorarbeit\Code\PerformanceTests\Enclave\E_RLESum.cpp:15.27
$LN33:
  00073 8b 00            mov eax, DWORD PTR [rax]               ;\\Mac\Home\Documents\Studium\6. Semester\Bachelorarbeit\Code\PerformanceTests\Enclave\E_RLESum.cpp:15.27
$LN34:
  00075 89 45 00         mov DWORD PTR [rbp], eax               ;\\Mac\Home\Documents\Studium\6. Semester\Bachelorarbeit\Code\PerformanceTests\Enclave\E_RLESum.cpp:15.27
$LN35:

;;; 	const uint32_t* currentRunStart32 = in32;

  00078 48 8b 45 18      mov rax, QWORD PTR [24+rbp]            ;\\Mac\Home\Documents\Studium\6. Semester\Bachelorarbeit\Code\PerformanceTests\Enclave\E_RLESum.cpp:16.36
$LN36:
  0007c 48 89 45 48      mov QWORD PTR [72+rbp], rax            ;\\Mac\Home\Documents\Studium\6. Semester\Bachelorarbeit\Code\PerformanceTests\Enclave\E_RLESum.cpp:16.36
$LN37:
                                ; LOE rbx rbp rsi rdi rsp r12 r13 r14 r15 rip zmm6 zmm7 zmm8 zmm9 zmm10 zmm11 zmm12 zmm13 zmm14 zmm15
.B1.4::                         ; Preds .B1.7 .B1.3
                                ; Execution count [0.00e+000]
$LN38:

;;; 
;;; 	while (current32 != end32) {

  00080 48 8b 45 28      mov rax, QWORD PTR [40+rbp]            ;\\Mac\Home\Documents\Studium\6. Semester\Bachelorarbeit\Code\PerformanceTests\Enclave\E_RLESum.cpp:18.2
$LN39:
  00084 48 8b 55 30      mov rdx, QWORD PTR [48+rbp]            ;\\Mac\Home\Documents\Studium\6. Semester\Bachelorarbeit\Code\PerformanceTests\Enclave\E_RLESum.cpp:18.2
$LN40:
  00088 48 3b c2         cmp rax, rdx                           ;\\Mac\Home\Documents\Studium\6. Semester\Bachelorarbeit\Code\PerformanceTests\Enclave\E_RLESum.cpp:18.2
$LN41:
  0008b 74 71            je .B1.8 ; Prob 50%                    ;\\Mac\Home\Documents\Studium\6. Semester\Bachelorarbeit\Code\PerformanceTests\Enclave\E_RLESum.cpp:18.2
$LN42:
                                ; LOE rbx rbp rsi rdi rsp r12 r13 r14 r15 rip zmm6 zmm7 zmm8 zmm9 zmm10 zmm11 zmm12 zmm13 zmm14 zmm15
.B1.5::                         ; Preds .B1.4
                                ; Execution count [0.00e+000]
$LN43:

;;; 		if (*current32 != currentRunValue) {

  0008d 48 8b 45 28      mov rax, QWORD PTR [40+rbp]            ;\\Mac\Home\Documents\Studium\6. Semester\Bachelorarbeit\Code\PerformanceTests\Enclave\E_RLESum.cpp:19.3
$LN44:
  00091 8b 00            mov eax, DWORD PTR [rax]               ;\\Mac\Home\Documents\Studium\6. Semester\Bachelorarbeit\Code\PerformanceTests\Enclave\E_RLESum.cpp:19.3
$LN45:
  00093 8b 55 00         mov edx, DWORD PTR [rbp]               ;\\Mac\Home\Documents\Studium\6. Semester\Bachelorarbeit\Code\PerformanceTests\Enclave\E_RLESum.cpp:19.3
$LN46:
  00096 3b c2            cmp eax, edx                           ;\\Mac\Home\Documents\Studium\6. Semester\Bachelorarbeit\Code\PerformanceTests\Enclave\E_RLESum.cpp:19.3
$LN47:
  00098 74 55            je .B1.7 ; Prob 50%                    ;\\Mac\Home\Documents\Studium\6. Semester\Bachelorarbeit\Code\PerformanceTests\Enclave\E_RLESum.cpp:19.3
$LN48:
                                ; LOE rbx rbp rsi rdi rsp r12 r13 r14 r15 rip zmm6 zmm7 zmm8 zmm9 zmm10 zmm11 zmm12 zmm13 zmm14 zmm15
.B1.6::                         ; Preds .B1.5
                                ; Execution count [0.00e+000]
$LN49:

;;; 
;;; 			*out32++ = currentRunValue;

  0009a 8b 45 00         mov eax, DWORD PTR [rbp]               ;\\Mac\Home\Documents\Studium\6. Semester\Bachelorarbeit\Code\PerformanceTests\Enclave\E_RLESum.cpp:21.4
$LN50:
  0009d 89 45 0c         mov DWORD PTR [12+rbp], eax            ;\\Mac\Home\Documents\Studium\6. Semester\Bachelorarbeit\Code\PerformanceTests\Enclave\E_RLESum.cpp:21.4
$LN51:
  000a0 48 8b 45 38      mov rax, QWORD PTR [56+rbp]            ;\\Mac\Home\Documents\Studium\6. Semester\Bachelorarbeit\Code\PerformanceTests\Enclave\E_RLESum.cpp:21.4
$LN52:
  000a4 8b 55 0c         mov edx, DWORD PTR [12+rbp]            ;\\Mac\Home\Documents\Studium\6. Semester\Bachelorarbeit\Code\PerformanceTests\Enclave\E_RLESum.cpp:21.4
$LN53:
  000a7 89 10            mov DWORD PTR [rax], edx               ;\\Mac\Home\Documents\Studium\6. Semester\Bachelorarbeit\Code\PerformanceTests\Enclave\E_RLESum.cpp:21.4
$LN54:
  000a9 b8 04 00 00 00   mov eax, 4                             ;\\Mac\Home\Documents\Studium\6. Semester\Bachelorarbeit\Code\PerformanceTests\Enclave\E_RLESum.cpp:21.4
$LN55:
  000ae 48 03 45 38      add rax, QWORD PTR [56+rbp]            ;\\Mac\Home\Documents\Studium\6. Semester\Bachelorarbeit\Code\PerformanceTests\Enclave\E_RLESum.cpp:21.4
$LN56:
  000b2 48 89 45 38      mov QWORD PTR [56+rbp], rax            ;\\Mac\Home\Documents\Studium\6. Semester\Bachelorarbeit\Code\PerformanceTests\Enclave\E_RLESum.cpp:21.4
$LN57:

;;; 			*out32++ = static_cast<uint32_t>(current32 - currentRunStart32);

  000b6 48 8b 45 48      mov rax, QWORD PTR [72+rbp]            ;\\Mac\Home\Documents\Studium\6. Semester\Bachelorarbeit\Code\PerformanceTests\Enclave\E_RLESum.cpp:22.4
$LN58:
  000ba 48 f7 d8         neg rax                                ;\\Mac\Home\Documents\Studium\6. Semester\Bachelorarbeit\Code\PerformanceTests\Enclave\E_RLESum.cpp:22.4
$LN59:
  000bd 48 03 45 28      add rax, QWORD PTR [40+rbp]            ;\\Mac\Home\Documents\Studium\6. Semester\Bachelorarbeit\Code\PerformanceTests\Enclave\E_RLESum.cpp:22.4
$LN60:
  000c1 48 c1 f8 02      sar rax, 2                             ;\\Mac\Home\Documents\Studium\6. Semester\Bachelorarbeit\Code\PerformanceTests\Enclave\E_RLESum.cpp:22.4
$LN61:
  000c5 89 45 10         mov DWORD PTR [16+rbp], eax            ;\\Mac\Home\Documents\Studium\6. Semester\Bachelorarbeit\Code\PerformanceTests\Enclave\E_RLESum.cpp:22.4
$LN62:
  000c8 48 8b 45 38      mov rax, QWORD PTR [56+rbp]            ;\\Mac\Home\Documents\Studium\6. Semester\Bachelorarbeit\Code\PerformanceTests\Enclave\E_RLESum.cpp:22.4
$LN63:
  000cc 8b 55 10         mov edx, DWORD PTR [16+rbp]            ;\\Mac\Home\Documents\Studium\6. Semester\Bachelorarbeit\Code\PerformanceTests\Enclave\E_RLESum.cpp:22.4
$LN64:
  000cf 89 10            mov DWORD PTR [rax], edx               ;\\Mac\Home\Documents\Studium\6. Semester\Bachelorarbeit\Code\PerformanceTests\Enclave\E_RLESum.cpp:22.4
$LN65:
  000d1 b8 04 00 00 00   mov eax, 4                             ;\\Mac\Home\Documents\Studium\6. Semester\Bachelorarbeit\Code\PerformanceTests\Enclave\E_RLESum.cpp:22.4
$LN66:
  000d6 48 03 45 38      add rax, QWORD PTR [56+rbp]            ;\\Mac\Home\Documents\Studium\6. Semester\Bachelorarbeit\Code\PerformanceTests\Enclave\E_RLESum.cpp:22.4
$LN67:
  000da 48 89 45 38      mov QWORD PTR [56+rbp], rax            ;\\Mac\Home\Documents\Studium\6. Semester\Bachelorarbeit\Code\PerformanceTests\Enclave\E_RLESum.cpp:22.4
$LN68:

;;; 			currentRunStart32 = current32;

  000de 48 8b 45 28      mov rax, QWORD PTR [40+rbp]            ;\\Mac\Home\Documents\Studium\6. Semester\Bachelorarbeit\Code\PerformanceTests\Enclave\E_RLESum.cpp:23.4
$LN69:
  000e2 48 89 45 48      mov QWORD PTR [72+rbp], rax            ;\\Mac\Home\Documents\Studium\6. Semester\Bachelorarbeit\Code\PerformanceTests\Enclave\E_RLESum.cpp:23.4
$LN70:

;;; 			currentRunValue = *currentRunStart32;

  000e6 48 8b 45 48      mov rax, QWORD PTR [72+rbp]            ;\\Mac\Home\Documents\Studium\6. Semester\Bachelorarbeit\Code\PerformanceTests\Enclave\E_RLESum.cpp:24.4
$LN71:
  000ea 8b 00            mov eax, DWORD PTR [rax]               ;\\Mac\Home\Documents\Studium\6. Semester\Bachelorarbeit\Code\PerformanceTests\Enclave\E_RLESum.cpp:24.4
$LN72:
  000ec 89 45 00         mov DWORD PTR [rbp], eax               ;\\Mac\Home\Documents\Studium\6. Semester\Bachelorarbeit\Code\PerformanceTests\Enclave\E_RLESum.cpp:24.4
$LN73:
                                ; LOE rbx rbp rsi rdi rsp r12 r13 r14 r15 rip zmm6 zmm7 zmm8 zmm9 zmm10 zmm11 zmm12 zmm13 zmm14 zmm15
.B1.7::                         ; Preds .B1.6 .B1.5
                                ; Execution count [0.00e+000]
$LN74:

;;; 		}
;;; 		current32++;

  000ef b8 04 00 00 00   mov eax, 4                             ;\\Mac\Home\Documents\Studium\6. Semester\Bachelorarbeit\Code\PerformanceTests\Enclave\E_RLESum.cpp:26.3
$LN75:
  000f4 48 03 45 28      add rax, QWORD PTR [40+rbp]            ;\\Mac\Home\Documents\Studium\6. Semester\Bachelorarbeit\Code\PerformanceTests\Enclave\E_RLESum.cpp:26.3
$LN76:
  000f8 48 89 45 28      mov QWORD PTR [40+rbp], rax            ;\\Mac\Home\Documents\Studium\6. Semester\Bachelorarbeit\Code\PerformanceTests\Enclave\E_RLESum.cpp:26.3
$LN77:
  000fc eb 82            jmp .B1.4 ; Prob 100%                  ;\\Mac\Home\Documents\Studium\6. Semester\Bachelorarbeit\Code\PerformanceTests\Enclave\E_RLESum.cpp:26.3
$LN78:
                                ; LOE rbx rbp rsi rdi rsp r12 r13 r14 r15 rip zmm6 zmm7 zmm8 zmm9 zmm10 zmm11 zmm12 zmm13 zmm14 zmm15
.B1.8::                         ; Preds .B1.4
                                ; Execution count [0.00e+000]
$LN79:

;;; 	}
;;; 
;;; 	*out32++ = currentRunValue;

  000fe 8b 45 00         mov eax, DWORD PTR [rbp]               ;\\Mac\Home\Documents\Studium\6. Semester\Bachelorarbeit\Code\PerformanceTests\Enclave\E_RLESum.cpp:29.2
$LN80:
  00101 89 45 04         mov DWORD PTR [4+rbp], eax             ;\\Mac\Home\Documents\Studium\6. Semester\Bachelorarbeit\Code\PerformanceTests\Enclave\E_RLESum.cpp:29.2
$LN81:
  00104 48 8b 45 38      mov rax, QWORD PTR [56+rbp]            ;\\Mac\Home\Documents\Studium\6. Semester\Bachelorarbeit\Code\PerformanceTests\Enclave\E_RLESum.cpp:29.2
$LN82:
  00108 8b 55 04         mov edx, DWORD PTR [4+rbp]             ;\\Mac\Home\Documents\Studium\6. Semester\Bachelorarbeit\Code\PerformanceTests\Enclave\E_RLESum.cpp:29.2
$LN83:
  0010b 89 10            mov DWORD PTR [rax], edx               ;\\Mac\Home\Documents\Studium\6. Semester\Bachelorarbeit\Code\PerformanceTests\Enclave\E_RLESum.cpp:29.2
$LN84:
  0010d b8 04 00 00 00   mov eax, 4                             ;\\Mac\Home\Documents\Studium\6. Semester\Bachelorarbeit\Code\PerformanceTests\Enclave\E_RLESum.cpp:29.2
$LN85:
  00112 48 03 45 38      add rax, QWORD PTR [56+rbp]            ;\\Mac\Home\Documents\Studium\6. Semester\Bachelorarbeit\Code\PerformanceTests\Enclave\E_RLESum.cpp:29.2
$LN86:
  00116 48 89 45 38      mov QWORD PTR [56+rbp], rax            ;\\Mac\Home\Documents\Studium\6. Semester\Bachelorarbeit\Code\PerformanceTests\Enclave\E_RLESum.cpp:29.2
$LN87:

;;; 	*out32++ = static_cast<uint32_t>(current32 - currentRunStart32);

  0011a 48 8b 45 48      mov rax, QWORD PTR [72+rbp]            ;\\Mac\Home\Documents\Studium\6. Semester\Bachelorarbeit\Code\PerformanceTests\Enclave\E_RLESum.cpp:30.2
$LN88:
  0011e 48 f7 d8         neg rax                                ;\\Mac\Home\Documents\Studium\6. Semester\Bachelorarbeit\Code\PerformanceTests\Enclave\E_RLESum.cpp:30.2
$LN89:
  00121 48 03 45 28      add rax, QWORD PTR [40+rbp]            ;\\Mac\Home\Documents\Studium\6. Semester\Bachelorarbeit\Code\PerformanceTests\Enclave\E_RLESum.cpp:30.2
$LN90:
  00125 48 c1 f8 02      sar rax, 2                             ;\\Mac\Home\Documents\Studium\6. Semester\Bachelorarbeit\Code\PerformanceTests\Enclave\E_RLESum.cpp:30.2
$LN91:
  00129 89 45 08         mov DWORD PTR [8+rbp], eax             ;\\Mac\Home\Documents\Studium\6. Semester\Bachelorarbeit\Code\PerformanceTests\Enclave\E_RLESum.cpp:30.2
$LN92:
  0012c 48 8b 45 38      mov rax, QWORD PTR [56+rbp]            ;\\Mac\Home\Documents\Studium\6. Semester\Bachelorarbeit\Code\PerformanceTests\Enclave\E_RLESum.cpp:30.2
$LN93:
  00130 8b 55 08         mov edx, DWORD PTR [8+rbp]             ;\\Mac\Home\Documents\Studium\6. Semester\Bachelorarbeit\Code\PerformanceTests\Enclave\E_RLESum.cpp:30.2
$LN94:
  00133 89 10            mov DWORD PTR [rax], edx               ;\\Mac\Home\Documents\Studium\6. Semester\Bachelorarbeit\Code\PerformanceTests\Enclave\E_RLESum.cpp:30.2
$LN95:
  00135 b8 04 00 00 00   mov eax, 4                             ;\\Mac\Home\Documents\Studium\6. Semester\Bachelorarbeit\Code\PerformanceTests\Enclave\E_RLESum.cpp:30.2
$LN96:
  0013a 48 03 45 38      add rax, QWORD PTR [56+rbp]            ;\\Mac\Home\Documents\Studium\6. Semester\Bachelorarbeit\Code\PerformanceTests\Enclave\E_RLESum.cpp:30.2
$LN97:
  0013e 48 89 45 38      mov QWORD PTR [56+rbp], rax            ;\\Mac\Home\Documents\Studium\6. Semester\Bachelorarbeit\Code\PerformanceTests\Enclave\E_RLESum.cpp:30.2
$LN98:

;;; 	currentRunStart32 = current32;

  00142 48 8b 45 28      mov rax, QWORD PTR [40+rbp]            ;\\Mac\Home\Documents\Studium\6. Semester\Bachelorarbeit\Code\PerformanceTests\Enclave\E_RLESum.cpp:31.2
$LN99:
  00146 48 89 45 48      mov QWORD PTR [72+rbp], rax            ;\\Mac\Home\Documents\Studium\6. Semester\Bachelorarbeit\Code\PerformanceTests\Enclave\E_RLESum.cpp:31.2
$LN100:

;;; 	currentRunValue = *currentRunStart32;

  0014a 48 8b 45 48      mov rax, QWORD PTR [72+rbp]            ;\\Mac\Home\Documents\Studium\6. Semester\Bachelorarbeit\Code\PerformanceTests\Enclave\E_RLESum.cpp:32.2
$LN101:
  0014e 8b 00            mov eax, DWORD PTR [rax]               ;\\Mac\Home\Documents\Studium\6. Semester\Bachelorarbeit\Code\PerformanceTests\Enclave\E_RLESum.cpp:32.2
$LN102:
  00150 89 45 00         mov DWORD PTR [rbp], eax               ;\\Mac\Home\Documents\Studium\6. Semester\Bachelorarbeit\Code\PerformanceTests\Enclave\E_RLESum.cpp:32.2
$LN103:

;;; 
;;; 	return (out32 - initOut32) * sizeof(uint32_t);

  00153 48 8b 45 40      mov rax, QWORD PTR [64+rbp]            ;\\Mac\Home\Documents\Studium\6. Semester\Bachelorarbeit\Code\PerformanceTests\Enclave\E_RLESum.cpp:34.2
$LN104:
  00157 48 f7 d8         neg rax                                ;\\Mac\Home\Documents\Studium\6. Semester\Bachelorarbeit\Code\PerformanceTests\Enclave\E_RLESum.cpp:34.2
$LN105:
  0015a 48 03 45 38      add rax, QWORD PTR [56+rbp]            ;\\Mac\Home\Documents\Studium\6. Semester\Bachelorarbeit\Code\PerformanceTests\Enclave\E_RLESum.cpp:34.2
$LN106:
  0015e 48 c1 f8 02      sar rax, 2                             ;\\Mac\Home\Documents\Studium\6. Semester\Bachelorarbeit\Code\PerformanceTests\Enclave\E_RLESum.cpp:34.2
$LN107:
  00162 48 6b c0 04      imul rax, rax, 4                       ;\\Mac\Home\Documents\Studium\6. Semester\Bachelorarbeit\Code\PerformanceTests\Enclave\E_RLESum.cpp:34.2
$LN108:
  00166 48 8d 65 50      lea rsp, QWORD PTR [80+rbp]            ;\\Mac\Home\Documents\Studium\6. Semester\Bachelorarbeit\Code\PerformanceTests\Enclave\E_RLESum.cpp:34.2
$LN109:
  0016a 5d               pop rbp                                ;\\Mac\Home\Documents\Studium\6. Semester\Bachelorarbeit\Code\PerformanceTests\Enclave\E_RLESum.cpp:34.2
$LN110:
  0016b c3               ret                                    ;\\Mac\Home\Documents\Studium\6. Semester\Bachelorarbeit\Code\PerformanceTests\Enclave\E_RLESum.cpp:34.2
$LN111:
                                ; LOE
.B1.9::
$LN112:
; mark_end;
enclaveRunLengthEncode ENDP
$LNenclaveRunLengthEncode$113:
$LNenclaveRunLengthEncode$114:
_TEXT	ENDS
.xdata	SEGMENT  DWORD   READ  ''
	ALIGN 004H
.unwind.enclaveRunLengthEncode.B1_B8	DD	620956161
	DD	3523543818
	DD	20481
.xdata	ENDS
.pdata	SEGMENT  DWORD   READ  ''
	ALIGN 004H
.pdata.enclaveRunLengthEncode.B1_B8	DD	imagerel .B1.1
	DD	imagerel .B1.9
	DD	imagerel .unwind.enclaveRunLengthEncode.B1_B8
.pdata	ENDS
_DATA	SEGMENT      'DATA'
_DATA	ENDS
; -- End  enclaveRunLengthEncode
_TEXT	SEGMENT      'CODE'
_2__routine_start_enclaveRunLengthDecode_3:
; -- Begin  enclaveRunLengthDecode
_TEXT	ENDS
_TEXT	SEGMENT      'CODE'
; mark_begin;

	PUBLIC enclaveRunLengthDecode
; --- enclaveRunLengthDecode(uint8_t *, size_t, uint8_t *, size_t)
enclaveRunLengthDecode	PROC 
; parameter 1(in): rcx
; parameter 2(inLength): rdx
; parameter 3(out): r8
; parameter 4(outLength): r9
.B2.1::                         ; Preds .B2.0
                                ; Execution count [0.00e+000]

;;; {

L9::
                                                           ;\\Mac\Home\Documents\Studium\6. Semester\Bachelorarbeit\Code\PerformanceTests\Enclave\E_RLESum.cpp:39.1
$LN115:
  0016c 55               push rbp                               ;\\Mac\Home\Documents\Studium\6. Semester\Bachelorarbeit\Code\PerformanceTests\Enclave\E_RLESum.cpp:39.1
$LN116:
  0016d 48 83 ec 60      sub rsp, 96                            ;\\Mac\Home\Documents\Studium\6. Semester\Bachelorarbeit\Code\PerformanceTests\Enclave\E_RLESum.cpp:39.1
$LN117:
  00171 48 8d 6c 24 20   lea rbp, QWORD PTR [32+rsp]            ;\\Mac\Home\Documents\Studium\6. Semester\Bachelorarbeit\Code\PerformanceTests\Enclave\E_RLESum.cpp:39.1
$LN118:
  00176 48 89 4d 50      mov QWORD PTR [80+rbp], rcx            ;\\Mac\Home\Documents\Studium\6. Semester\Bachelorarbeit\Code\PerformanceTests\Enclave\E_RLESum.cpp:39.1
$LN119:
  0017a 48 89 55 58      mov QWORD PTR [88+rbp], rdx            ;\\Mac\Home\Documents\Studium\6. Semester\Bachelorarbeit\Code\PerformanceTests\Enclave\E_RLESum.cpp:39.1
$LN120:
  0017e 4c 89 45 60      mov QWORD PTR [96+rbp], r8             ;\\Mac\Home\Documents\Studium\6. Semester\Bachelorarbeit\Code\PerformanceTests\Enclave\E_RLESum.cpp:39.1
$LN121:
  00182 4c 89 4d 68      mov QWORD PTR [104+rbp], r9            ;\\Mac\Home\Documents\Studium\6. Semester\Bachelorarbeit\Code\PerformanceTests\Enclave\E_RLESum.cpp:39.1
$LN122:

;;; 	uint32_t* out32 = reinterpret_cast<uint32_t*>(out);

  00186 48 8b 45 60      mov rax, QWORD PTR [96+rbp]            ;\\Mac\Home\Documents\Studium\6. Semester\Bachelorarbeit\Code\PerformanceTests\Enclave\E_RLESum.cpp:40.18
$LN123:
  0018a 48 89 45 10      mov QWORD PTR [16+rbp], rax            ;\\Mac\Home\Documents\Studium\6. Semester\Bachelorarbeit\Code\PerformanceTests\Enclave\E_RLESum.cpp:40.18
$LN124:

;;; 	const size_t countIn32 = inLength / sizeof(uint32_t);

  0018e 48 8b 45 58      mov rax, QWORD PTR [88+rbp]            ;\\Mac\Home\Documents\Studium\6. Semester\Bachelorarbeit\Code\PerformanceTests\Enclave\E_RLESum.cpp:41.25
$LN125:
  00192 48 c1 e8 02      shr rax, 2                             ;\\Mac\Home\Documents\Studium\6. Semester\Bachelorarbeit\Code\PerformanceTests\Enclave\E_RLESum.cpp:41.25
$LN126:
  00196 48 89 45 18      mov QWORD PTR [24+rbp], rax            ;\\Mac\Home\Documents\Studium\6. Semester\Bachelorarbeit\Code\PerformanceTests\Enclave\E_RLESum.cpp:41.25
$LN127:

;;; 
;;; 	if (countIn32 < 2) return 0;

  0019a 48 8b 45 18      mov rax, QWORD PTR [24+rbp]            ;\\Mac\Home\Documents\Studium\6. Semester\Bachelorarbeit\Code\PerformanceTests\Enclave\E_RLESum.cpp:43.2
$LN128:
  0019e 48 83 f8 02      cmp rax, 2                             ;\\Mac\Home\Documents\Studium\6. Semester\Bachelorarbeit\Code\PerformanceTests\Enclave\E_RLESum.cpp:43.2
$LN129:
  001a2 73 0b            jae .B2.3 ; Prob 50%                   ;\\Mac\Home\Documents\Studium\6. Semester\Bachelorarbeit\Code\PerformanceTests\Enclave\E_RLESum.cpp:43.2
$LN130:
                                ; LOE rbx rbp rsi rdi rsp r12 r13 r14 r15 rip zmm6 zmm7 zmm8 zmm9 zmm10 zmm11 zmm12 zmm13 zmm14 zmm15
.B2.2::                         ; Preds .B2.1
                                ; Execution count [0.00e+000]
$LN131:
  001a4 b8 00 00 00 00   mov eax, 0                             ;\\Mac\Home\Documents\Studium\6. Semester\Bachelorarbeit\Code\PerformanceTests\Enclave\E_RLESum.cpp:43.21
$LN132:
  001a9 48 8d 65 40      lea rsp, QWORD PTR [64+rbp]            ;\\Mac\Home\Documents\Studium\6. Semester\Bachelorarbeit\Code\PerformanceTests\Enclave\E_RLESum.cpp:43.21
$LN133:
  001ad 5d               pop rbp                                ;\\Mac\Home\Documents\Studium\6. Semester\Bachelorarbeit\Code\PerformanceTests\Enclave\E_RLESum.cpp:43.21
$LN134:
  001ae c3               ret                                    ;\\Mac\Home\Documents\Studium\6. Semester\Bachelorarbeit\Code\PerformanceTests\Enclave\E_RLESum.cpp:43.21
$LN135:
                                ; LOE
.B2.3::                         ; Preds .B2.1
                                ; Execution count [0.00e+000]
$LN136:

;;; 
;;; 	const uint32_t* const initOut32 = out32;

  001af 48 8b 45 10      mov rax, QWORD PTR [16+rbp]            ;\\Mac\Home\Documents\Studium\6. Semester\Bachelorarbeit\Code\PerformanceTests\Enclave\E_RLESum.cpp:45.34
$LN137:
  001b3 48 89 45 20      mov QWORD PTR [32+rbp], rax            ;\\Mac\Home\Documents\Studium\6. Semester\Bachelorarbeit\Code\PerformanceTests\Enclave\E_RLESum.cpp:45.34
$LN138:

;;; 	const uint32_t* in32 = reinterpret_cast<const uint32_t*>(in);

  001b7 48 8b 45 50      mov rax, QWORD PTR [80+rbp]            ;\\Mac\Home\Documents\Studium\6. Semester\Bachelorarbeit\Code\PerformanceTests\Enclave\E_RLESum.cpp:46.23
$LN139:
  001bb 48 89 45 28      mov QWORD PTR [40+rbp], rax            ;\\Mac\Home\Documents\Studium\6. Semester\Bachelorarbeit\Code\PerformanceTests\Enclave\E_RLESum.cpp:46.23
$LN140:

;;; 	for (size_t i = 0; i < countIn32; i += 2) {

  001bf 48 c7 45 30 00 
        00 00 00         mov QWORD PTR [48+rbp], 0              ;\\Mac\Home\Documents\Studium\6. Semester\Bachelorarbeit\Code\PerformanceTests\Enclave\E_RLESum.cpp:47.16
$LN141:
                                ; LOE rbx rbp rsi rdi rsp r12 r13 r14 r15 rip zmm6 zmm7 zmm8 zmm9 zmm10 zmm11 zmm12 zmm13 zmm14 zmm15
.B2.4::                         ; Preds .B2.5 .B2.3
                                ; Execution count [0.00e+000]
$LN142:
  001c7 48 8b 45 30      mov rax, QWORD PTR [48+rbp]            ;\\Mac\Home\Documents\Studium\6. Semester\Bachelorarbeit\Code\PerformanceTests\Enclave\E_RLESum.cpp:47.2
$LN143:
  001cb 48 8b 55 18      mov rdx, QWORD PTR [24+rbp]            ;\\Mac\Home\Documents\Studium\6. Semester\Bachelorarbeit\Code\PerformanceTests\Enclave\E_RLESum.cpp:47.2
$LN144:
  001cf 48 3b c2         cmp rax, rdx                           ;\\Mac\Home\Documents\Studium\6. Semester\Bachelorarbeit\Code\PerformanceTests\Enclave\E_RLESum.cpp:47.2
$LN145:
  001d2 72 11            jb .B2.6 ; Prob 50%                    ;\\Mac\Home\Documents\Studium\6. Semester\Bachelorarbeit\Code\PerformanceTests\Enclave\E_RLESum.cpp:47.2
$LN146:
  001d4 eb 75            jmp .B2.9 ; Prob 100%                  ;\\Mac\Home\Documents\Studium\6. Semester\Bachelorarbeit\Code\PerformanceTests\Enclave\E_RLESum.cpp:47.2
$LN147:
                                ; LOE rbx rbp rsi rdi rsp r12 r13 r14 r15 rip zmm6 zmm7 zmm8 zmm9 zmm10 zmm11 zmm12 zmm13 zmm14 zmm15
.B2.5::                         ; Preds .B2.7
                                ; Execution count [0.00e+000]
$LN148:
  001d6 b8 02 00 00 00   mov eax, 2                             ;\\Mac\Home\Documents\Studium\6. Semester\Bachelorarbeit\Code\PerformanceTests\Enclave\E_RLESum.cpp:47.36
$LN149:
  001db 48 03 45 30      add rax, QWORD PTR [48+rbp]            ;\\Mac\Home\Documents\Studium\6. Semester\Bachelorarbeit\Code\PerformanceTests\Enclave\E_RLESum.cpp:47.36
$LN150:
  001df 48 89 45 30      mov QWORD PTR [48+rbp], rax            ;\\Mac\Home\Documents\Studium\6. Semester\Bachelorarbeit\Code\PerformanceTests\Enclave\E_RLESum.cpp:47.36
$LN151:
  001e3 eb e2            jmp .B2.4 ; Prob 100%                  ;\\Mac\Home\Documents\Studium\6. Semester\Bachelorarbeit\Code\PerformanceTests\Enclave\E_RLESum.cpp:47.36
$LN152:
                                ; LOE rbx rbp rsi rdi rsp r12 r13 r14 r15 rip zmm6 zmm7 zmm8 zmm9 zmm10 zmm11 zmm12 zmm13 zmm14 zmm15
.B2.6::                         ; Preds .B2.4
                                ; Execution count [0.00e+000]
$LN153:

;;; 		const uint32_t value = in32[i];

  001e5 48 8b 45 30      mov rax, QWORD PTR [48+rbp]            ;\\Mac\Home\Documents\Studium\6. Semester\Bachelorarbeit\Code\PerformanceTests\Enclave\E_RLESum.cpp:48.24
$LN154:
  001e9 48 6b c0 04      imul rax, rax, 4                       ;\\Mac\Home\Documents\Studium\6. Semester\Bachelorarbeit\Code\PerformanceTests\Enclave\E_RLESum.cpp:48.24
$LN155:
  001ed 48 03 45 28      add rax, QWORD PTR [40+rbp]            ;\\Mac\Home\Documents\Studium\6. Semester\Bachelorarbeit\Code\PerformanceTests\Enclave\E_RLESum.cpp:48.24
$LN156:
  001f1 8b 00            mov eax, DWORD PTR [rax]               ;\\Mac\Home\Documents\Studium\6. Semester\Bachelorarbeit\Code\PerformanceTests\Enclave\E_RLESum.cpp:48.24
$LN157:
  001f3 89 45 00         mov DWORD PTR [rbp], eax               ;\\Mac\Home\Documents\Studium\6. Semester\Bachelorarbeit\Code\PerformanceTests\Enclave\E_RLESum.cpp:48.24
$LN158:

;;; 		const uint32_t runlength = in32[i + 1];

  001f6 b8 01 00 00 00   mov eax, 1                             ;\\Mac\Home\Documents\Studium\6. Semester\Bachelorarbeit\Code\PerformanceTests\Enclave\E_RLESum.cpp:49.28
$LN159:
  001fb 48 03 45 30      add rax, QWORD PTR [48+rbp]            ;\\Mac\Home\Documents\Studium\6. Semester\Bachelorarbeit\Code\PerformanceTests\Enclave\E_RLESum.cpp:49.28
$LN160:
  001ff 48 6b c0 04      imul rax, rax, 4                       ;\\Mac\Home\Documents\Studium\6. Semester\Bachelorarbeit\Code\PerformanceTests\Enclave\E_RLESum.cpp:49.28
$LN161:
  00203 48 03 45 28      add rax, QWORD PTR [40+rbp]            ;\\Mac\Home\Documents\Studium\6. Semester\Bachelorarbeit\Code\PerformanceTests\Enclave\E_RLESum.cpp:49.28
$LN162:
  00207 8b 00            mov eax, DWORD PTR [rax]               ;\\Mac\Home\Documents\Studium\6. Semester\Bachelorarbeit\Code\PerformanceTests\Enclave\E_RLESum.cpp:49.28
$LN163:
  00209 89 45 04         mov DWORD PTR [4+rbp], eax             ;\\Mac\Home\Documents\Studium\6. Semester\Bachelorarbeit\Code\PerformanceTests\Enclave\E_RLESum.cpp:49.28
$LN164:

;;; 		for (size_t k = 0; k < runlength; k++)

  0020c 48 c7 45 38 00 
        00 00 00         mov QWORD PTR [56+rbp], 0              ;\\Mac\Home\Documents\Studium\6. Semester\Bachelorarbeit\Code\PerformanceTests\Enclave\E_RLESum.cpp:50.17
$LN165:
                                ; LOE rbx rbp rsi rdi rsp r12 r13 r14 r15 rip zmm6 zmm7 zmm8 zmm9 zmm10 zmm11 zmm12 zmm13 zmm14 zmm15
.B2.7::                         ; Preds .B2.8 .B2.6
                                ; Execution count [0.00e+000]
$LN166:
  00214 48 8b 45 38      mov rax, QWORD PTR [56+rbp]            ;\\Mac\Home\Documents\Studium\6. Semester\Bachelorarbeit\Code\PerformanceTests\Enclave\E_RLESum.cpp:50.3
$LN167:
  00218 8b 55 04         mov edx, DWORD PTR [4+rbp]             ;\\Mac\Home\Documents\Studium\6. Semester\Bachelorarbeit\Code\PerformanceTests\Enclave\E_RLESum.cpp:50.3
$LN168:
  0021b 48 3b c2         cmp rax, rdx                           ;\\Mac\Home\Documents\Studium\6. Semester\Bachelorarbeit\Code\PerformanceTests\Enclave\E_RLESum.cpp:50.3
$LN169:
  0021e 73 b6            jae .B2.5 ; Prob 50%                   ;\\Mac\Home\Documents\Studium\6. Semester\Bachelorarbeit\Code\PerformanceTests\Enclave\E_RLESum.cpp:50.3
$LN170:
                                ; LOE rbx rbp rsi rdi rsp r12 r13 r14 r15 rip zmm6 zmm7 zmm8 zmm9 zmm10 zmm11 zmm12 zmm13 zmm14 zmm15
.B2.8::                         ; Preds .B2.7
                                ; Execution count [0.00e+000]
$LN171:

;;; 			*out32++ = value;

  00220 8b 45 00         mov eax, DWORD PTR [rbp]               ;\\Mac\Home\Documents\Studium\6. Semester\Bachelorarbeit\Code\PerformanceTests\Enclave\E_RLESum.cpp:51.4
$LN172:
  00223 89 45 08         mov DWORD PTR [8+rbp], eax             ;\\Mac\Home\Documents\Studium\6. Semester\Bachelorarbeit\Code\PerformanceTests\Enclave\E_RLESum.cpp:51.4
$LN173:
  00226 48 8b 45 10      mov rax, QWORD PTR [16+rbp]            ;\\Mac\Home\Documents\Studium\6. Semester\Bachelorarbeit\Code\PerformanceTests\Enclave\E_RLESum.cpp:51.4
$LN174:
  0022a 8b 55 08         mov edx, DWORD PTR [8+rbp]             ;\\Mac\Home\Documents\Studium\6. Semester\Bachelorarbeit\Code\PerformanceTests\Enclave\E_RLESum.cpp:51.4
$LN175:
  0022d 89 10            mov DWORD PTR [rax], edx               ;\\Mac\Home\Documents\Studium\6. Semester\Bachelorarbeit\Code\PerformanceTests\Enclave\E_RLESum.cpp:51.4
$LN176:
  0022f b8 04 00 00 00   mov eax, 4                             ;\\Mac\Home\Documents\Studium\6. Semester\Bachelorarbeit\Code\PerformanceTests\Enclave\E_RLESum.cpp:51.4
$LN177:
  00234 48 03 45 10      add rax, QWORD PTR [16+rbp]            ;\\Mac\Home\Documents\Studium\6. Semester\Bachelorarbeit\Code\PerformanceTests\Enclave\E_RLESum.cpp:51.4
$LN178:
  00238 48 89 45 10      mov QWORD PTR [16+rbp], rax            ;\\Mac\Home\Documents\Studium\6. Semester\Bachelorarbeit\Code\PerformanceTests\Enclave\E_RLESum.cpp:51.4
$LN179:
  0023c b8 01 00 00 00   mov eax, 1                             ;\\Mac\Home\Documents\Studium\6. Semester\Bachelorarbeit\Code\PerformanceTests\Enclave\E_RLESum.cpp:50.37
$LN180:
  00241 48 03 45 38      add rax, QWORD PTR [56+rbp]            ;\\Mac\Home\Documents\Studium\6. Semester\Bachelorarbeit\Code\PerformanceTests\Enclave\E_RLESum.cpp:50.37
$LN181:
  00245 48 89 45 38      mov QWORD PTR [56+rbp], rax            ;\\Mac\Home\Documents\Studium\6. Semester\Bachelorarbeit\Code\PerformanceTests\Enclave\E_RLESum.cpp:50.37
$LN182:
  00249 eb c9            jmp .B2.7 ; Prob 100%                  ;\\Mac\Home\Documents\Studium\6. Semester\Bachelorarbeit\Code\PerformanceTests\Enclave\E_RLESum.cpp:50.37
$LN183:
                                ; LOE rbx rbp rsi rdi rsp r12 r13 r14 r15 rip zmm6 zmm7 zmm8 zmm9 zmm10 zmm11 zmm12 zmm13 zmm14 zmm15
.B2.9::                         ; Preds .B2.4
                                ; Execution count [0.00e+000]
$LN184:

;;; 	}
;;; 
;;; 	return (out32 - initOut32) * sizeof(uint32_t);

  0024b 48 8b 45 20      mov rax, QWORD PTR [32+rbp]            ;\\Mac\Home\Documents\Studium\6. Semester\Bachelorarbeit\Code\PerformanceTests\Enclave\E_RLESum.cpp:54.2
$LN185:
  0024f 48 f7 d8         neg rax                                ;\\Mac\Home\Documents\Studium\6. Semester\Bachelorarbeit\Code\PerformanceTests\Enclave\E_RLESum.cpp:54.2
$LN186:
  00252 48 03 45 10      add rax, QWORD PTR [16+rbp]            ;\\Mac\Home\Documents\Studium\6. Semester\Bachelorarbeit\Code\PerformanceTests\Enclave\E_RLESum.cpp:54.2
$LN187:
  00256 48 c1 f8 02      sar rax, 2                             ;\\Mac\Home\Documents\Studium\6. Semester\Bachelorarbeit\Code\PerformanceTests\Enclave\E_RLESum.cpp:54.2
$LN188:
  0025a 48 6b c0 04      imul rax, rax, 4                       ;\\Mac\Home\Documents\Studium\6. Semester\Bachelorarbeit\Code\PerformanceTests\Enclave\E_RLESum.cpp:54.2
$LN189:
  0025e 48 8d 65 40      lea rsp, QWORD PTR [64+rbp]            ;\\Mac\Home\Documents\Studium\6. Semester\Bachelorarbeit\Code\PerformanceTests\Enclave\E_RLESum.cpp:54.2
$LN190:
  00262 5d               pop rbp                                ;\\Mac\Home\Documents\Studium\6. Semester\Bachelorarbeit\Code\PerformanceTests\Enclave\E_RLESum.cpp:54.2
$LN191:
  00263 c3               ret                                    ;\\Mac\Home\Documents\Studium\6. Semester\Bachelorarbeit\Code\PerformanceTests\Enclave\E_RLESum.cpp:54.2
$LN192:
                                ; LOE
.B2.10::
$LN193:
; mark_end;
enclaveRunLengthDecode ENDP
$LNenclaveRunLengthDecode$194:
$LNenclaveRunLengthDecode$195:
_TEXT	ENDS
.xdata	SEGMENT  DWORD   READ  ''
	ALIGN 004H
.unwind.enclaveRunLengthDecode.B1_B9	DD	620956161
	DD	2986672906
	DD	20481
.xdata	ENDS
.pdata	SEGMENT  DWORD   READ  ''
	ALIGN 004H
.pdata.enclaveRunLengthDecode.B1_B9	DD	imagerel .B2.1
	DD	imagerel .B2.10
	DD	imagerel .unwind.enclaveRunLengthDecode.B1_B9
.pdata	ENDS
_DATA	SEGMENT      'DATA'
_DATA	ENDS
; -- End  enclaveRunLengthDecode
_TEXT	SEGMENT      'CODE'
_2__routine_start_enclaveRunLengthEncodeAndSum_4:
; -- Begin  enclaveRunLengthEncodeAndSum
_TEXT	ENDS
_TEXT	SEGMENT      'CODE'
; mark_begin;

	PUBLIC enclaveRunLengthEncodeAndSum
; --- enclaveRunLengthEncodeAndSum(uint8_t *, size_t, uint8_t *)
enclaveRunLengthEncodeAndSum	PROC 
; parameter 1(in): rcx
; parameter 2(length): rdx
; parameter 3(out): r8
.B3.1::                         ; Preds .B3.0
                                ; Execution count [0.00e+000]

;;; size_t enclaveRunLengthEncodeAndSum(uint8_t *in, size_t length, uint8_t *out) {

L16::
                                                          ;\\Mac\Home\Documents\Studium\6. Semester\Bachelorarbeit\Code\PerformanceTests\Enclave\E_RLESum.cpp:57.79
$LN196:
  00264 55               push rbp                               ;\\Mac\Home\Documents\Studium\6. Semester\Bachelorarbeit\Code\PerformanceTests\Enclave\E_RLESum.cpp:57.79
$LN197:
  00265 48 81 ec 80 00 
        00 00            sub rsp, 128                           ;\\Mac\Home\Documents\Studium\6. Semester\Bachelorarbeit\Code\PerformanceTests\Enclave\E_RLESum.cpp:57.79
$LN198:
  0026c 48 8d 6c 24 20   lea rbp, QWORD PTR [32+rsp]            ;\\Mac\Home\Documents\Studium\6. Semester\Bachelorarbeit\Code\PerformanceTests\Enclave\E_RLESum.cpp:57.79
$LN199:
  00271 48 89 5d 50      mov QWORD PTR [80+rbp], rbx            ;\\Mac\Home\Documents\Studium\6. Semester\Bachelorarbeit\Code\PerformanceTests\Enclave\E_RLESum.cpp:57.79[spill]
$LN200:
  00275 48 89 4d 70      mov QWORD PTR [112+rbp], rcx           ;\\Mac\Home\Documents\Studium\6. Semester\Bachelorarbeit\Code\PerformanceTests\Enclave\E_RLESum.cpp:57.79
$LN201:
  00279 48 89 55 78      mov QWORD PTR [120+rbp], rdx           ;\\Mac\Home\Documents\Studium\6. Semester\Bachelorarbeit\Code\PerformanceTests\Enclave\E_RLESum.cpp:57.79
$LN202:
  0027d 4c 89 85 80 00 
        00 00            mov QWORD PTR [128+rbp], r8            ;\\Mac\Home\Documents\Studium\6. Semester\Bachelorarbeit\Code\PerformanceTests\Enclave\E_RLESum.cpp:57.79
$LN203:

;;; 
;;; 	uint8_t *encoded = new uint8_t[length << 1];

  00284 48 8b 45 78      mov rax, QWORD PTR [120+rbp]           ;\\Mac\Home\Documents\Studium\6. Semester\Bachelorarbeit\Code\PerformanceTests\Enclave\E_RLESum.cpp:59.19
$LN204:
  00288 48 d1 e0         shl rax, 1                             ;\\Mac\Home\Documents\Studium\6. Semester\Bachelorarbeit\Code\PerformanceTests\Enclave\E_RLESum.cpp:59.19
$LN205:
  0028b 48 89 c1         mov rcx, rax                           ;\\Mac\Home\Documents\Studium\6. Semester\Bachelorarbeit\Code\PerformanceTests\Enclave\E_RLESum.cpp:59.19
$LN206:
  0028e e8 fc ff ff ff  ;       operator new(unsigned __int64)
        call      ??2@YAPEAX_K@Z                                ;\\Mac\Home\Documents\Studium\6. Semester\Bachelorarbeit\Code\PerformanceTests\Enclave\E_RLESum.cpp:59.19
$LN207:
                                ; LOE rax rbp rsi rdi rsp r12 r13 r14 r15 rip zmm6 zmm7 zmm8 zmm9 zmm10 zmm11 zmm12 zmm13 zmm14 zmm15
.B3.10::                        ; Preds .B3.1
                                ; Execution count [0.00e+000]
$LN208:
  00293 48 89 45 08      mov QWORD PTR [8+rbp], rax             ;\\Mac\Home\Documents\Studium\6. Semester\Bachelorarbeit\Code\PerformanceTests\Enclave\E_RLESum.cpp:59.19
$LN209:
                                ; LOE rbp rsi rdi rsp r12 r13 r14 r15 rip zmm6 zmm7 zmm8 zmm9 zmm10 zmm11 zmm12 zmm13 zmm14 zmm15
.B3.2::                         ; Preds .B3.10
                                ; Execution count [0.00e+000]
$LN210:
  00297 48 8b 45 08      mov rax, QWORD PTR [8+rbp]             ;\\Mac\Home\Documents\Studium\6. Semester\Bachelorarbeit\Code\PerformanceTests\Enclave\E_RLESum.cpp:59.19
$LN211:
  0029b 48 89 45 10      mov QWORD PTR [16+rbp], rax            ;\\Mac\Home\Documents\Studium\6. Semester\Bachelorarbeit\Code\PerformanceTests\Enclave\E_RLESum.cpp:59.19
$LN212:

;;; 
;;; 	size_t encSize = enclaveRunLengthEncode(in, length, encoded, length << 1);

  0029f 48 8b 45 70      mov rax, QWORD PTR [112+rbp]           ;\\Mac\Home\Documents\Studium\6. Semester\Bachelorarbeit\Code\PerformanceTests\Enclave\E_RLESum.cpp:61.17
$LN213:
  002a3 48 8b 55 78      mov rdx, QWORD PTR [120+rbp]           ;\\Mac\Home\Documents\Studium\6. Semester\Bachelorarbeit\Code\PerformanceTests\Enclave\E_RLESum.cpp:61.17
$LN214:
  002a7 48 8b 4d 10      mov rcx, QWORD PTR [16+rbp]            ;\\Mac\Home\Documents\Studium\6. Semester\Bachelorarbeit\Code\PerformanceTests\Enclave\E_RLESum.cpp:61.17
$LN215:
  002ab 48 8b 5d 78      mov rbx, QWORD PTR [120+rbp]           ;\\Mac\Home\Documents\Studium\6. Semester\Bachelorarbeit\Code\PerformanceTests\Enclave\E_RLESum.cpp:61.17
$LN216:
  002af 48 d1 e3         shl rbx, 1                             ;\\Mac\Home\Documents\Studium\6. Semester\Bachelorarbeit\Code\PerformanceTests\Enclave\E_RLESum.cpp:61.17
$LN217:
  002b2 48 89 4d 48      mov QWORD PTR [72+rbp], rcx            ;\\Mac\Home\Documents\Studium\6. Semester\Bachelorarbeit\Code\PerformanceTests\Enclave\E_RLESum.cpp:61.17[spill]
$LN218:
  002b6 48 89 c1         mov rcx, rax                           ;\\Mac\Home\Documents\Studium\6. Semester\Bachelorarbeit\Code\PerformanceTests\Enclave\E_RLESum.cpp:61.17
$LN219:
  002b9 48 8b 45 48      mov rax, QWORD PTR [72+rbp]            ;\\Mac\Home\Documents\Studium\6. Semester\Bachelorarbeit\Code\PerformanceTests\Enclave\E_RLESum.cpp:61.17[spill]
$LN220:
  002bd 49 89 c0         mov r8, rax                            ;\\Mac\Home\Documents\Studium\6. Semester\Bachelorarbeit\Code\PerformanceTests\Enclave\E_RLESum.cpp:61.17
$LN221:
  002c0 49 89 d9         mov r9, rbx                            ;\\Mac\Home\Documents\Studium\6. Semester\Bachelorarbeit\Code\PerformanceTests\Enclave\E_RLESum.cpp:61.17
$LN222:
  002c3 e8 fc ff ff ff  ;       enclaveRunLengthEncode(uint8_t *, size_t, uint8_t *, size_t)
        call      enclaveRunLengthEncode                        ;\\Mac\Home\Documents\Studium\6. Semester\Bachelorarbeit\Code\PerformanceTests\Enclave\E_RLESum.cpp:61.17
$LN223:
                                ; LOE rax rbp rsi rdi rsp r12 r13 r14 r15 rip zmm6 zmm7 zmm8 zmm9 zmm10 zmm11 zmm12 zmm13 zmm14 zmm15
.B3.11::                        ; Preds .B3.2
                                ; Execution count [0.00e+000]
$LN224:
  002c8 48 89 45 18      mov QWORD PTR [24+rbp], rax            ;\\Mac\Home\Documents\Studium\6. Semester\Bachelorarbeit\Code\PerformanceTests\Enclave\E_RLESum.cpp:61.17
$LN225:
                                ; LOE rbp rsi rdi rsp r12 r13 r14 r15 rip zmm6 zmm7 zmm8 zmm9 zmm10 zmm11 zmm12 zmm13 zmm14 zmm15
.B3.3::                         ; Preds .B3.11
                                ; Execution count [0.00e+000]
$LN226:
  002cc 48 8b 45 18      mov rax, QWORD PTR [24+rbp]            ;\\Mac\Home\Documents\Studium\6. Semester\Bachelorarbeit\Code\PerformanceTests\Enclave\E_RLESum.cpp:61.17
$LN227:
  002d0 48 89 45 20      mov QWORD PTR [32+rbp], rax            ;\\Mac\Home\Documents\Studium\6. Semester\Bachelorarbeit\Code\PerformanceTests\Enclave\E_RLESum.cpp:61.17
$LN228:

;;; 
;;; 	uint64_t sum64 = 0;

  002d4 48 c7 45 28 00 
        00 00 00         mov QWORD PTR [40+rbp], 0              ;\\Mac\Home\Documents\Studium\6. Semester\Bachelorarbeit\Code\PerformanceTests\Enclave\E_RLESum.cpp:63.17
$LN229:

;;; 
;;; 	const uint32_t* in32 = reinterpret_cast<const uint32_t*>(encoded);

  002dc 48 8b 45 10      mov rax, QWORD PTR [16+rbp]            ;\\Mac\Home\Documents\Studium\6. Semester\Bachelorarbeit\Code\PerformanceTests\Enclave\E_RLESum.cpp:65.23
$LN230:
  002e0 48 89 45 30      mov QWORD PTR [48+rbp], rax            ;\\Mac\Home\Documents\Studium\6. Semester\Bachelorarbeit\Code\PerformanceTests\Enclave\E_RLESum.cpp:65.23
$LN231:

;;; 	const size_t countIn32 = encSize >> 2;

  002e4 48 8b 45 20      mov rax, QWORD PTR [32+rbp]            ;\\Mac\Home\Documents\Studium\6. Semester\Bachelorarbeit\Code\PerformanceTests\Enclave\E_RLESum.cpp:66.25
$LN232:
  002e8 48 c1 e8 02      shr rax, 2                             ;\\Mac\Home\Documents\Studium\6. Semester\Bachelorarbeit\Code\PerformanceTests\Enclave\E_RLESum.cpp:66.25
$LN233:
  002ec 48 89 45 38      mov QWORD PTR [56+rbp], rax            ;\\Mac\Home\Documents\Studium\6. Semester\Bachelorarbeit\Code\PerformanceTests\Enclave\E_RLESum.cpp:66.25
$LN234:

;;; 	for (size_t i = 0; i < countIn32; i += 2) {

  002f0 48 c7 45 40 00 
        00 00 00         mov QWORD PTR [64+rbp], 0              ;\\Mac\Home\Documents\Studium\6. Semester\Bachelorarbeit\Code\PerformanceTests\Enclave\E_RLESum.cpp:67.16
$LN235:
                                ; LOE rbp rsi rdi rsp r12 r13 r14 r15 rip zmm6 zmm7 zmm8 zmm9 zmm10 zmm11 zmm12 zmm13 zmm14 zmm15
.B3.4::                         ; Preds .B3.5 .B3.3
                                ; Execution count [0.00e+000]
$LN236:
  002f8 48 8b 45 40      mov rax, QWORD PTR [64+rbp]            ;\\Mac\Home\Documents\Studium\6. Semester\Bachelorarbeit\Code\PerformanceTests\Enclave\E_RLESum.cpp:67.2
$LN237:
  002fc 48 8b 55 38      mov rdx, QWORD PTR [56+rbp]            ;\\Mac\Home\Documents\Studium\6. Semester\Bachelorarbeit\Code\PerformanceTests\Enclave\E_RLESum.cpp:67.2
$LN238:
  00300 48 3b c2         cmp rax, rdx                           ;\\Mac\Home\Documents\Studium\6. Semester\Bachelorarbeit\Code\PerformanceTests\Enclave\E_RLESum.cpp:67.2
$LN239:
  00303 73 48            jae .B3.6 ; Prob 50%                   ;\\Mac\Home\Documents\Studium\6. Semester\Bachelorarbeit\Code\PerformanceTests\Enclave\E_RLESum.cpp:67.2
$LN240:
                                ; LOE rbp rsi rdi rsp r12 r13 r14 r15 rip zmm6 zmm7 zmm8 zmm9 zmm10 zmm11 zmm12 zmm13 zmm14 zmm15
.B3.5::                         ; Preds .B3.4
                                ; Execution count [0.00e+000]
$LN241:

;;; 		const uint32_t value = in32[i];

  00305 48 8b 45 40      mov rax, QWORD PTR [64+rbp]            ;\\Mac\Home\Documents\Studium\6. Semester\Bachelorarbeit\Code\PerformanceTests\Enclave\E_RLESum.cpp:68.24
$LN242:
  00309 48 6b c0 04      imul rax, rax, 4                       ;\\Mac\Home\Documents\Studium\6. Semester\Bachelorarbeit\Code\PerformanceTests\Enclave\E_RLESum.cpp:68.24
$LN243:
  0030d 48 03 45 30      add rax, QWORD PTR [48+rbp]            ;\\Mac\Home\Documents\Studium\6. Semester\Bachelorarbeit\Code\PerformanceTests\Enclave\E_RLESum.cpp:68.24
$LN244:
  00311 8b 00            mov eax, DWORD PTR [rax]               ;\\Mac\Home\Documents\Studium\6. Semester\Bachelorarbeit\Code\PerformanceTests\Enclave\E_RLESum.cpp:68.24
$LN245:
  00313 89 45 00         mov DWORD PTR [rbp], eax               ;\\Mac\Home\Documents\Studium\6. Semester\Bachelorarbeit\Code\PerformanceTests\Enclave\E_RLESum.cpp:68.24
$LN246:

;;; 		const uint32_t runlength = in32[i + 1];

  00316 b8 01 00 00 00   mov eax, 1                             ;\\Mac\Home\Documents\Studium\6. Semester\Bachelorarbeit\Code\PerformanceTests\Enclave\E_RLESum.cpp:69.28
$LN247:
  0031b 48 03 45 40      add rax, QWORD PTR [64+rbp]            ;\\Mac\Home\Documents\Studium\6. Semester\Bachelorarbeit\Code\PerformanceTests\Enclave\E_RLESum.cpp:69.28
$LN248:
  0031f 48 6b c0 04      imul rax, rax, 4                       ;\\Mac\Home\Documents\Studium\6. Semester\Bachelorarbeit\Code\PerformanceTests\Enclave\E_RLESum.cpp:69.28
$LN249:
  00323 48 03 45 30      add rax, QWORD PTR [48+rbp]            ;\\Mac\Home\Documents\Studium\6. Semester\Bachelorarbeit\Code\PerformanceTests\Enclave\E_RLESum.cpp:69.28
$LN250:
  00327 8b 00            mov eax, DWORD PTR [rax]               ;\\Mac\Home\Documents\Studium\6. Semester\Bachelorarbeit\Code\PerformanceTests\Enclave\E_RLESum.cpp:69.28
$LN251:
  00329 89 45 04         mov DWORD PTR [4+rbp], eax             ;\\Mac\Home\Documents\Studium\6. Semester\Bachelorarbeit\Code\PerformanceTests\Enclave\E_RLESum.cpp:69.28
$LN252:

;;; 		sum64 += static_cast<uint64_t>(value) * static_cast<uint64_t>(runlength);

  0032c 8b 45 04         mov eax, DWORD PTR [4+rbp]             ;\\Mac\Home\Documents\Studium\6. Semester\Bachelorarbeit\Code\PerformanceTests\Enclave\E_RLESum.cpp:70.3
$LN253:
  0032f 8b 55 00         mov edx, DWORD PTR [rbp]               ;\\Mac\Home\Documents\Studium\6. Semester\Bachelorarbeit\Code\PerformanceTests\Enclave\E_RLESum.cpp:70.3
$LN254:
  00332 48 0f af d0      imul rdx, rax                          ;\\Mac\Home\Documents\Studium\6. Semester\Bachelorarbeit\Code\PerformanceTests\Enclave\E_RLESum.cpp:70.3
$LN255:
  00336 48 03 55 28      add rdx, QWORD PTR [40+rbp]            ;\\Mac\Home\Documents\Studium\6. Semester\Bachelorarbeit\Code\PerformanceTests\Enclave\E_RLESum.cpp:70.3
$LN256:
  0033a 48 89 55 28      mov QWORD PTR [40+rbp], rdx            ;\\Mac\Home\Documents\Studium\6. Semester\Bachelorarbeit\Code\PerformanceTests\Enclave\E_RLESum.cpp:70.3
$LN257:
  0033e b8 02 00 00 00   mov eax, 2                             ;\\Mac\Home\Documents\Studium\6. Semester\Bachelorarbeit\Code\PerformanceTests\Enclave\E_RLESum.cpp:67.36
$LN258:
  00343 48 03 45 40      add rax, QWORD PTR [64+rbp]            ;\\Mac\Home\Documents\Studium\6. Semester\Bachelorarbeit\Code\PerformanceTests\Enclave\E_RLESum.cpp:67.36
$LN259:
  00347 48 89 45 40      mov QWORD PTR [64+rbp], rax            ;\\Mac\Home\Documents\Studium\6. Semester\Bachelorarbeit\Code\PerformanceTests\Enclave\E_RLESum.cpp:67.36
$LN260:
  0034b eb ab            jmp .B3.4 ; Prob 100%                  ;\\Mac\Home\Documents\Studium\6. Semester\Bachelorarbeit\Code\PerformanceTests\Enclave\E_RLESum.cpp:67.36
$LN261:
                                ; LOE rbp rsi rdi rsp r12 r13 r14 r15 rip zmm6 zmm7 zmm8 zmm9 zmm10 zmm11 zmm12 zmm13 zmm14 zmm15
.B3.6::                         ; Preds .B3.4
                                ; Execution count [0.00e+000]
$LN262:

;;; 	}
;;; 
;;; 	*reinterpret_cast<uint64_t*>(out) = sum64;

  0034d 48 8b 85 80 00 
        00 00            mov rax, QWORD PTR [128+rbp]           ;\\Mac\Home\Documents\Studium\6. Semester\Bachelorarbeit\Code\PerformanceTests\Enclave\E_RLESum.cpp:73.2
$LN263:
  00354 48 8b 55 28      mov rdx, QWORD PTR [40+rbp]            ;\\Mac\Home\Documents\Studium\6. Semester\Bachelorarbeit\Code\PerformanceTests\Enclave\E_RLESum.cpp:73.2
$LN264:
  00358 48 89 10         mov QWORD PTR [rax], rdx               ;\\Mac\Home\Documents\Studium\6. Semester\Bachelorarbeit\Code\PerformanceTests\Enclave\E_RLESum.cpp:73.2
$LN265:

;;; 
;;; 	delete[] encoded;

  0035b 48 8b 45 10      mov rax, QWORD PTR [16+rbp]            ;\\Mac\Home\Documents\Studium\6. Semester\Bachelorarbeit\Code\PerformanceTests\Enclave\E_RLESum.cpp:75.2
$LN266:
  0035f 48 89 c1         mov rcx, rax                           ;\\Mac\Home\Documents\Studium\6. Semester\Bachelorarbeit\Code\PerformanceTests\Enclave\E_RLESum.cpp:75.2
$LN267:
  00362 e8 fc ff ff ff  ;       operator delete(void *)
        call      ??3@YAXPEAX@Z                                 ;\\Mac\Home\Documents\Studium\6. Semester\Bachelorarbeit\Code\PerformanceTests\Enclave\E_RLESum.cpp:75.2
$LN268:
                                ; LOE rbp rsi rdi rsp r12 r13 r14 r15 rip zmm6 zmm7 zmm8 zmm9 zmm10 zmm11 zmm12 zmm13 zmm14 zmm15
.B3.12::                        ; Preds .B3.6
                                ; Execution count [0.00e+000]
$LN269:
                                ; LOE rbp rsi rdi rsp r12 r13 r14 r15 rip zmm6 zmm7 zmm8 zmm9 zmm10 zmm11 zmm12 zmm13 zmm14 zmm15
.B3.7::                         ; Preds .B3.12
                                ; Execution count [0.00e+000]
$LN270:

;;; 
;;; 	return sizeof(uint64_t);

  00367 b8 08 00 00 00   mov eax, 8                             ;\\Mac\Home\Documents\Studium\6. Semester\Bachelorarbeit\Code\PerformanceTests\Enclave\E_RLESum.cpp:77.2
$LN271:
  0036c 48 8b 5d 50      mov rbx, QWORD PTR [80+rbp]            ;\\Mac\Home\Documents\Studium\6. Semester\Bachelorarbeit\Code\PerformanceTests\Enclave\E_RLESum.cpp:77.2[spill]
$LN272:
  00370 48 8d 65 60      lea rsp, QWORD PTR [96+rbp]            ;\\Mac\Home\Documents\Studium\6. Semester\Bachelorarbeit\Code\PerformanceTests\Enclave\E_RLESum.cpp:77.2
$LN273:
  00374 5d               pop rbp                                ;\\Mac\Home\Documents\Studium\6. Semester\Bachelorarbeit\Code\PerformanceTests\Enclave\E_RLESum.cpp:77.2
$LN274:
  00375 c3               ret                                    ;\\Mac\Home\Documents\Studium\6. Semester\Bachelorarbeit\Code\PerformanceTests\Enclave\E_RLESum.cpp:77.2
$LN275:
                                ; LOE
.B3.8::
$LN276:
; mark_end;
enclaveRunLengthEncodeAndSum ENDP
$LNenclaveRunLengthEncodeAndSum$277:
$LNenclaveRunLengthEncodeAndSum$278:
_TEXT	ENDS
.xdata	SEGMENT  DWORD   READ  ''
	ALIGN 004H
.unwind.enclaveRunLengthEncodeAndSum.B1_B7	DD	621089025
	DD	930833
	DD	4060611341
	DD	20481
.xdata	ENDS
.pdata	SEGMENT  DWORD   READ  ''
	ALIGN 004H
.pdata.enclaveRunLengthEncodeAndSum.B1_B7	DD	imagerel .B3.1
	DD	imagerel .B3.8
	DD	imagerel .unwind.enclaveRunLengthEncodeAndSum.B1_B7
.pdata	ENDS
_DATA	SEGMENT      'DATA'
_DATA	ENDS
; -- End  enclaveRunLengthEncodeAndSum
_DATA	SEGMENT      'DATA'
_DATA	ENDS
EXTRN	??3@YAXPEAX@Z:PROC
EXTRN	??2@YAPEAX_K@Z:PROC
EXTRN	__ImageBase:PROC
	INCLUDELIB <libmmt>
	INCLUDELIB <LIBCMTD>
	INCLUDELIB <libirc>
	INCLUDELIB <svml_dispmt>
	INCLUDELIB <OLDNAMES>
	INCLUDELIB <libdecimal>
	END
