; mark_description "Intel(R) C++ Intel(R) 64 Compiler for applications running on Intel(R) 64, Version 17.0.4.210 Build 20170411";
; mark_description "";
; mark_description "-c -Qm64 -IC:\\Program Files (x86)\\Intel\\IntelSGXSDK\\include -IC:\\Program Files (x86)\\Intel\\IntelSGXSD";
; mark_description "K\\include\\tlibc -IC:\\Program Files (x86)\\Intel\\IntelSGXSDK\\include\\libc++ -IC:\\Program Files (x86)\\";
; mark_description "Intel\\IntelSGXSDK\\include\\ipp -IC:\\Program Files (x86)\\IntelSWTools\\compilers_and_libraries_2017.2.187";
; mark_description "\\windows\\compiler\\include -Zi -nologo -W3 -Od -Oi -D __INTEL_COMPILER=1700 -D _WINDLL -EHs -EHc -MTd -GS ";
; mark_description "-arch:AVX -QaxSSE3 -QxSSE3 -Zc:wchar_t -Zc:forScope -FAcs -FaEnclaveSimulation\\ -FoEnclaveSimulation\\ -FdE";
; mark_description "nclaveSimulation\\vc140.pdb -TP -S";
	OPTION DOTNAME
_TEXT	SEGMENT      'CODE'
TXTST0:
_2__routine_start_enclaveVByteEncode_5:
; -- Begin  enclaveVByteEncode
_TEXT	ENDS
_TEXT	SEGMENT      'CODE'
; mark_begin;

	PUBLIC enclaveVByteEncode
; --- enclaveVByteEncode(uint8_t *, size_t, uint8_t *, size_t)
enclaveVByteEncode	PROC 
; parameter 1(in): rcx
; parameter 2(inLength): rdx
; parameter 3(out): r8
; parameter 4(outLength): r9
.B1.1::                         ; Preds .B1.0
                                ; Execution count [0.00e+000]

;;; size_t enclaveVByteEncode(uint8_t *in, size_t inLength, uint8_t *out, size_t outLength) {

L2::
                                                           ;\\Mac\Home\Documents\Studium\6. Semester\Bachelorarbeit\Code\PerformanceTests\Enclave\E_VByte.cpp:4.89
$LN0:
  00000 55               push rbp                               ;\\Mac\Home\Documents\Studium\6. Semester\Bachelorarbeit\Code\PerformanceTests\Enclave\E_VByte.cpp:4.89
$LN1:
  00001 48 83 ec 50      sub rsp, 80                            ;\\Mac\Home\Documents\Studium\6. Semester\Bachelorarbeit\Code\PerformanceTests\Enclave\E_VByte.cpp:4.89
$LN2:
  00005 48 8d 6c 24 20   lea rbp, QWORD PTR [32+rsp]            ;\\Mac\Home\Documents\Studium\6. Semester\Bachelorarbeit\Code\PerformanceTests\Enclave\E_VByte.cpp:4.89
$LN3:
  0000a 48 89 4d 40      mov QWORD PTR [64+rbp], rcx            ;\\Mac\Home\Documents\Studium\6. Semester\Bachelorarbeit\Code\PerformanceTests\Enclave\E_VByte.cpp:4.89
$LN4:
  0000e 48 89 55 48      mov QWORD PTR [72+rbp], rdx            ;\\Mac\Home\Documents\Studium\6. Semester\Bachelorarbeit\Code\PerformanceTests\Enclave\E_VByte.cpp:4.89
$LN5:
  00012 4c 89 45 50      mov QWORD PTR [80+rbp], r8             ;\\Mac\Home\Documents\Studium\6. Semester\Bachelorarbeit\Code\PerformanceTests\Enclave\E_VByte.cpp:4.89
$LN6:
  00016 4c 89 4d 58      mov QWORD PTR [88+rbp], r9             ;\\Mac\Home\Documents\Studium\6. Semester\Bachelorarbeit\Code\PerformanceTests\Enclave\E_VByte.cpp:4.89
$LN7:

;;; 
;;; 	const uint32_t *in32 = reinterpret_cast<const uint32_t*>(in);

  0001a 48 8b 45 40      mov rax, QWORD PTR [64+rbp]            ;\\Mac\Home\Documents\Studium\6. Semester\Bachelorarbeit\Code\PerformanceTests\Enclave\E_VByte.cpp:6.23
$LN8:
  0001e 48 89 45 08      mov QWORD PTR [8+rbp], rax             ;\\Mac\Home\Documents\Studium\6. Semester\Bachelorarbeit\Code\PerformanceTests\Enclave\E_VByte.cpp:6.23
$LN9:

;;; 	const size_t length32 = inLength / sizeof(uint32_t);

  00022 48 8b 45 48      mov rax, QWORD PTR [72+rbp]            ;\\Mac\Home\Documents\Studium\6. Semester\Bachelorarbeit\Code\PerformanceTests\Enclave\E_VByte.cpp:7.24
$LN10:
  00026 48 c1 e8 02      shr rax, 2                             ;\\Mac\Home\Documents\Studium\6. Semester\Bachelorarbeit\Code\PerformanceTests\Enclave\E_VByte.cpp:7.24
$LN11:
  0002a 48 89 45 10      mov QWORD PTR [16+rbp], rax            ;\\Mac\Home\Documents\Studium\6. Semester\Bachelorarbeit\Code\PerformanceTests\Enclave\E_VByte.cpp:7.24
$LN12:

;;; 
;;; 	const uint8_t *initOut = out;

  0002e 48 8b 45 50      mov rax, QWORD PTR [80+rbp]            ;\\Mac\Home\Documents\Studium\6. Semester\Bachelorarbeit\Code\PerformanceTests\Enclave\E_VByte.cpp:9.25
$LN13:
  00032 48 89 45 18      mov QWORD PTR [24+rbp], rax            ;\\Mac\Home\Documents\Studium\6. Semester\Bachelorarbeit\Code\PerformanceTests\Enclave\E_VByte.cpp:9.25
$LN14:

;;; 	size_t k;
;;; 
;;; 	for (k = 0; k < length32; ++k) {

  00036 48 c7 45 20 00 
        00 00 00         mov QWORD PTR [32+rbp], 0              ;\\Mac\Home\Documents\Studium\6. Semester\Bachelorarbeit\Code\PerformanceTests\Enclave\E_VByte.cpp:12.7
$LN15:
                                ; LOE rbx rbp rsi rdi rsp r12 r13 r14 r15 rip zmm6 zmm7 zmm8 zmm9 zmm10 zmm11 zmm12 zmm13 zmm14 zmm15
.B1.2::                         ; Preds .B1.3 .B1.1
                                ; Execution count [0.00e+000]
$LN16:
  0003e 48 8b 45 20      mov rax, QWORD PTR [32+rbp]            ;\\Mac\Home\Documents\Studium\6. Semester\Bachelorarbeit\Code\PerformanceTests\Enclave\E_VByte.cpp:12.2
$LN17:
  00042 48 8b 55 10      mov rdx, QWORD PTR [16+rbp]            ;\\Mac\Home\Documents\Studium\6. Semester\Bachelorarbeit\Code\PerformanceTests\Enclave\E_VByte.cpp:12.2
$LN18:
  00046 48 3b c2         cmp rax, rdx                           ;\\Mac\Home\Documents\Studium\6. Semester\Bachelorarbeit\Code\PerformanceTests\Enclave\E_VByte.cpp:12.2
$LN19:
  00049 72 14            jb .B1.4 ; Prob 50%                    ;\\Mac\Home\Documents\Studium\6. Semester\Bachelorarbeit\Code\PerformanceTests\Enclave\E_VByte.cpp:12.2
$LN20:
  0004b e9 19 02 00 00   jmp .B1.13 ; Prob 100%                 ;\\Mac\Home\Documents\Studium\6. Semester\Bachelorarbeit\Code\PerformanceTests\Enclave\E_VByte.cpp:12.2
$LN21:
                                ; LOE rbx rbp rsi rdi rsp r12 r13 r14 r15 rip zmm6 zmm7 zmm8 zmm9 zmm10 zmm11 zmm12 zmm13 zmm14 zmm15
.B1.3::                         ; Preds .B1.5 .B1.7 .B1.9 .B1.11 .B1.12
                                ;      
                                ; Execution count [0.00e+000]
$LN22:
  00050 b8 01 00 00 00   mov eax, 1                             ;\\Mac\Home\Documents\Studium\6. Semester\Bachelorarbeit\Code\PerformanceTests\Enclave\E_VByte.cpp:12.28
$LN23:
  00055 48 03 45 20      add rax, QWORD PTR [32+rbp]            ;\\Mac\Home\Documents\Studium\6. Semester\Bachelorarbeit\Code\PerformanceTests\Enclave\E_VByte.cpp:12.28
$LN24:
  00059 48 89 45 20      mov QWORD PTR [32+rbp], rax            ;\\Mac\Home\Documents\Studium\6. Semester\Bachelorarbeit\Code\PerformanceTests\Enclave\E_VByte.cpp:12.28
$LN25:
  0005d eb df            jmp .B1.2 ; Prob 100%                  ;\\Mac\Home\Documents\Studium\6. Semester\Bachelorarbeit\Code\PerformanceTests\Enclave\E_VByte.cpp:12.28
$LN26:
                                ; LOE rbx rbp rsi rdi rsp r12 r13 r14 r15 rip zmm6 zmm7 zmm8 zmm9 zmm10 zmm11 zmm12 zmm13 zmm14 zmm15
.B1.4::                         ; Preds .B1.2
                                ; Execution count [0.00e+000]
$LN27:

;;; 
;;; 		const uint32_t val = in32[k];

  0005f 48 8b 45 20      mov rax, QWORD PTR [32+rbp]            ;\\Mac\Home\Documents\Studium\6. Semester\Bachelorarbeit\Code\PerformanceTests\Enclave\E_VByte.cpp:14.22
$LN28:
  00063 48 6b c0 04      imul rax, rax, 4                       ;\\Mac\Home\Documents\Studium\6. Semester\Bachelorarbeit\Code\PerformanceTests\Enclave\E_VByte.cpp:14.22
$LN29:
  00067 48 03 45 08      add rax, QWORD PTR [8+rbp]             ;\\Mac\Home\Documents\Studium\6. Semester\Bachelorarbeit\Code\PerformanceTests\Enclave\E_VByte.cpp:14.22
$LN30:
  0006b 8b 00            mov eax, DWORD PTR [rax]               ;\\Mac\Home\Documents\Studium\6. Semester\Bachelorarbeit\Code\PerformanceTests\Enclave\E_VByte.cpp:14.22
$LN31:
  0006d 89 45 00         mov DWORD PTR [rbp], eax               ;\\Mac\Home\Documents\Studium\6. Semester\Bachelorarbeit\Code\PerformanceTests\Enclave\E_VByte.cpp:14.22
$LN32:

;;; 
;;; 		if (val < (1U << 7)) {

  00070 8b 45 00         mov eax, DWORD PTR [rbp]               ;\\Mac\Home\Documents\Studium\6. Semester\Bachelorarbeit\Code\PerformanceTests\Enclave\E_VByte.cpp:16.3
$LN33:
  00073 3d 80 00 00 00   cmp eax, 128                           ;\\Mac\Home\Documents\Studium\6. Semester\Bachelorarbeit\Code\PerformanceTests\Enclave\E_VByte.cpp:16.3
$LN34:
  00078 73 1b            jae .B1.6 ; Prob 50%                   ;\\Mac\Home\Documents\Studium\6. Semester\Bachelorarbeit\Code\PerformanceTests\Enclave\E_VByte.cpp:16.3
$LN35:
                                ; LOE rbx rbp rsi rdi rsp r12 r13 r14 r15 rip zmm6 zmm7 zmm8 zmm9 zmm10 zmm11 zmm12 zmm13 zmm14 zmm15
.B1.5::                         ; Preds .B1.4
                                ; Execution count [0.00e+000]
$LN36:

;;; 			*out = val & 0x7F;

  0007a 8b 45 00         mov eax, DWORD PTR [rbp]               ;\\Mac\Home\Documents\Studium\6. Semester\Bachelorarbeit\Code\PerformanceTests\Enclave\E_VByte.cpp:17.4
$LN37:
  0007d 83 e0 7f         and eax, 127                           ;\\Mac\Home\Documents\Studium\6. Semester\Bachelorarbeit\Code\PerformanceTests\Enclave\E_VByte.cpp:17.4
$LN38:
  00080 48 8b 55 50      mov rdx, QWORD PTR [80+rbp]            ;\\Mac\Home\Documents\Studium\6. Semester\Bachelorarbeit\Code\PerformanceTests\Enclave\E_VByte.cpp:17.4
$LN39:
  00084 88 02            mov BYTE PTR [rdx], al                 ;\\Mac\Home\Documents\Studium\6. Semester\Bachelorarbeit\Code\PerformanceTests\Enclave\E_VByte.cpp:17.4
$LN40:

;;; 			++out;

  00086 b8 01 00 00 00   mov eax, 1                             ;\\Mac\Home\Documents\Studium\6. Semester\Bachelorarbeit\Code\PerformanceTests\Enclave\E_VByte.cpp:18.4
$LN41:
  0008b 48 03 45 50      add rax, QWORD PTR [80+rbp]            ;\\Mac\Home\Documents\Studium\6. Semester\Bachelorarbeit\Code\PerformanceTests\Enclave\E_VByte.cpp:18.4
$LN42:
  0008f 48 89 45 50      mov QWORD PTR [80+rbp], rax            ;\\Mac\Home\Documents\Studium\6. Semester\Bachelorarbeit\Code\PerformanceTests\Enclave\E_VByte.cpp:18.4
$LN43:
  00093 eb bb            jmp .B1.3 ; Prob 100%                  ;\\Mac\Home\Documents\Studium\6. Semester\Bachelorarbeit\Code\PerformanceTests\Enclave\E_VByte.cpp:18.4
$LN44:
                                ; LOE rbx rbp rsi rdi rsp r12 r13 r14 r15 rip zmm6 zmm7 zmm8 zmm9 zmm10 zmm11 zmm12 zmm13 zmm14 zmm15
.B1.6::                         ; Preds .B1.4
                                ; Execution count [0.00e+000]
$LN45:

;;; 		}
;;; 		else if (val < (1U << 14)) {

  00095 8b 45 00         mov eax, DWORD PTR [rbp]               ;\\Mac\Home\Documents\Studium\6. Semester\Bachelorarbeit\Code\PerformanceTests\Enclave\E_VByte.cpp:20.8
$LN46:
  00098 3d 00 40 00 00   cmp eax, 16384                         ;\\Mac\Home\Documents\Studium\6. Semester\Bachelorarbeit\Code\PerformanceTests\Enclave\E_VByte.cpp:20.8
$LN47:
  0009d 73 3c            jae .B1.8 ; Prob 50%                   ;\\Mac\Home\Documents\Studium\6. Semester\Bachelorarbeit\Code\PerformanceTests\Enclave\E_VByte.cpp:20.8
$LN48:
                                ; LOE rbx rbp rsi rdi rsp r12 r13 r14 r15 rip zmm6 zmm7 zmm8 zmm9 zmm10 zmm11 zmm12 zmm13 zmm14 zmm15
.B1.7::                         ; Preds .B1.6
                                ; Execution count [0.00e+000]
$LN49:

;;; 			*out = (uint8_t)((val & 0x7F) | (1U << 7));

  0009f 8b 45 00         mov eax, DWORD PTR [rbp]               ;\\Mac\Home\Documents\Studium\6. Semester\Bachelorarbeit\Code\PerformanceTests\Enclave\E_VByte.cpp:21.4
$LN50:
  000a2 83 e0 7f         and eax, 127                           ;\\Mac\Home\Documents\Studium\6. Semester\Bachelorarbeit\Code\PerformanceTests\Enclave\E_VByte.cpp:21.4
$LN51:
  000a5 0d 80 00 00 00   or eax, 128                            ;\\Mac\Home\Documents\Studium\6. Semester\Bachelorarbeit\Code\PerformanceTests\Enclave\E_VByte.cpp:21.4
$LN52:
  000aa 48 8b 55 50      mov rdx, QWORD PTR [80+rbp]            ;\\Mac\Home\Documents\Studium\6. Semester\Bachelorarbeit\Code\PerformanceTests\Enclave\E_VByte.cpp:21.4
$LN53:
  000ae 88 02            mov BYTE PTR [rdx], al                 ;\\Mac\Home\Documents\Studium\6. Semester\Bachelorarbeit\Code\PerformanceTests\Enclave\E_VByte.cpp:21.4
$LN54:

;;; 			++out;

  000b0 b8 01 00 00 00   mov eax, 1                             ;\\Mac\Home\Documents\Studium\6. Semester\Bachelorarbeit\Code\PerformanceTests\Enclave\E_VByte.cpp:22.4
$LN55:
  000b5 48 03 45 50      add rax, QWORD PTR [80+rbp]            ;\\Mac\Home\Documents\Studium\6. Semester\Bachelorarbeit\Code\PerformanceTests\Enclave\E_VByte.cpp:22.4
$LN56:
  000b9 48 89 45 50      mov QWORD PTR [80+rbp], rax            ;\\Mac\Home\Documents\Studium\6. Semester\Bachelorarbeit\Code\PerformanceTests\Enclave\E_VByte.cpp:22.4
$LN57:

;;; 			*out = (uint8_t)(val >> 7);

  000bd 8b 45 00         mov eax, DWORD PTR [rbp]               ;\\Mac\Home\Documents\Studium\6. Semester\Bachelorarbeit\Code\PerformanceTests\Enclave\E_VByte.cpp:23.4
$LN58:
  000c0 c1 e8 07         shr eax, 7                             ;\\Mac\Home\Documents\Studium\6. Semester\Bachelorarbeit\Code\PerformanceTests\Enclave\E_VByte.cpp:23.4
$LN59:
  000c3 48 8b 55 50      mov rdx, QWORD PTR [80+rbp]            ;\\Mac\Home\Documents\Studium\6. Semester\Bachelorarbeit\Code\PerformanceTests\Enclave\E_VByte.cpp:23.4
$LN60:
  000c7 88 02            mov BYTE PTR [rdx], al                 ;\\Mac\Home\Documents\Studium\6. Semester\Bachelorarbeit\Code\PerformanceTests\Enclave\E_VByte.cpp:23.4
$LN61:

;;; 			++out;

  000c9 b8 01 00 00 00   mov eax, 1                             ;\\Mac\Home\Documents\Studium\6. Semester\Bachelorarbeit\Code\PerformanceTests\Enclave\E_VByte.cpp:24.4
$LN62:
  000ce 48 03 45 50      add rax, QWORD PTR [80+rbp]            ;\\Mac\Home\Documents\Studium\6. Semester\Bachelorarbeit\Code\PerformanceTests\Enclave\E_VByte.cpp:24.4
$LN63:
  000d2 48 89 45 50      mov QWORD PTR [80+rbp], rax            ;\\Mac\Home\Documents\Studium\6. Semester\Bachelorarbeit\Code\PerformanceTests\Enclave\E_VByte.cpp:24.4
$LN64:
  000d6 e9 75 ff ff ff   jmp .B1.3 ; Prob 100%                  ;\\Mac\Home\Documents\Studium\6. Semester\Bachelorarbeit\Code\PerformanceTests\Enclave\E_VByte.cpp:24.4
$LN65:
                                ; LOE rbx rbp rsi rdi rsp r12 r13 r14 r15 rip zmm6 zmm7 zmm8 zmm9 zmm10 zmm11 zmm12 zmm13 zmm14 zmm15
.B1.8::                         ; Preds .B1.6
                                ; Execution count [0.00e+000]
$LN66:

;;; 		}
;;; 		else if (val < (1U << 21)) {

  000db 8b 45 00         mov eax, DWORD PTR [rbp]               ;\\Mac\Home\Documents\Studium\6. Semester\Bachelorarbeit\Code\PerformanceTests\Enclave\E_VByte.cpp:26.8
$LN67:
  000de 3d 00 00 20 00   cmp eax, 2097152                       ;\\Mac\Home\Documents\Studium\6. Semester\Bachelorarbeit\Code\PerformanceTests\Enclave\E_VByte.cpp:26.8
$LN68:
  000e3 73 5d            jae .B1.10 ; Prob 50%                  ;\\Mac\Home\Documents\Studium\6. Semester\Bachelorarbeit\Code\PerformanceTests\Enclave\E_VByte.cpp:26.8
$LN69:
                                ; LOE rbx rbp rsi rdi rsp r12 r13 r14 r15 rip zmm6 zmm7 zmm8 zmm9 zmm10 zmm11 zmm12 zmm13 zmm14 zmm15
.B1.9::                         ; Preds .B1.8
                                ; Execution count [0.00e+000]
$LN70:

;;; 			*out = (uint8_t)((val & 0x7F) | (1U << 7));

  000e5 8b 45 00         mov eax, DWORD PTR [rbp]               ;\\Mac\Home\Documents\Studium\6. Semester\Bachelorarbeit\Code\PerformanceTests\Enclave\E_VByte.cpp:27.4
$LN71:
  000e8 83 e0 7f         and eax, 127                           ;\\Mac\Home\Documents\Studium\6. Semester\Bachelorarbeit\Code\PerformanceTests\Enclave\E_VByte.cpp:27.4
$LN72:
  000eb 0d 80 00 00 00   or eax, 128                            ;\\Mac\Home\Documents\Studium\6. Semester\Bachelorarbeit\Code\PerformanceTests\Enclave\E_VByte.cpp:27.4
$LN73:
  000f0 48 8b 55 50      mov rdx, QWORD PTR [80+rbp]            ;\\Mac\Home\Documents\Studium\6. Semester\Bachelorarbeit\Code\PerformanceTests\Enclave\E_VByte.cpp:27.4
$LN74:
  000f4 88 02            mov BYTE PTR [rdx], al                 ;\\Mac\Home\Documents\Studium\6. Semester\Bachelorarbeit\Code\PerformanceTests\Enclave\E_VByte.cpp:27.4
$LN75:

;;; 			++out;

  000f6 b8 01 00 00 00   mov eax, 1                             ;\\Mac\Home\Documents\Studium\6. Semester\Bachelorarbeit\Code\PerformanceTests\Enclave\E_VByte.cpp:28.4
$LN76:
  000fb 48 03 45 50      add rax, QWORD PTR [80+rbp]            ;\\Mac\Home\Documents\Studium\6. Semester\Bachelorarbeit\Code\PerformanceTests\Enclave\E_VByte.cpp:28.4
$LN77:
  000ff 48 89 45 50      mov QWORD PTR [80+rbp], rax            ;\\Mac\Home\Documents\Studium\6. Semester\Bachelorarbeit\Code\PerformanceTests\Enclave\E_VByte.cpp:28.4
$LN78:

;;; 			*out = (uint8_t)(((val >> 7) & 0x7F) | (1U << 7));

  00103 8b 45 00         mov eax, DWORD PTR [rbp]               ;\\Mac\Home\Documents\Studium\6. Semester\Bachelorarbeit\Code\PerformanceTests\Enclave\E_VByte.cpp:29.4
$LN79:
  00106 c1 e8 07         shr eax, 7                             ;\\Mac\Home\Documents\Studium\6. Semester\Bachelorarbeit\Code\PerformanceTests\Enclave\E_VByte.cpp:29.4
$LN80:
  00109 83 e0 7f         and eax, 127                           ;\\Mac\Home\Documents\Studium\6. Semester\Bachelorarbeit\Code\PerformanceTests\Enclave\E_VByte.cpp:29.4
$LN81:
  0010c 0d 80 00 00 00   or eax, 128                            ;\\Mac\Home\Documents\Studium\6. Semester\Bachelorarbeit\Code\PerformanceTests\Enclave\E_VByte.cpp:29.4
$LN82:
  00111 48 8b 55 50      mov rdx, QWORD PTR [80+rbp]            ;\\Mac\Home\Documents\Studium\6. Semester\Bachelorarbeit\Code\PerformanceTests\Enclave\E_VByte.cpp:29.4
$LN83:
  00115 88 02            mov BYTE PTR [rdx], al                 ;\\Mac\Home\Documents\Studium\6. Semester\Bachelorarbeit\Code\PerformanceTests\Enclave\E_VByte.cpp:29.4
$LN84:

;;; 			++out;

  00117 b8 01 00 00 00   mov eax, 1                             ;\\Mac\Home\Documents\Studium\6. Semester\Bachelorarbeit\Code\PerformanceTests\Enclave\E_VByte.cpp:30.4
$LN85:
  0011c 48 03 45 50      add rax, QWORD PTR [80+rbp]            ;\\Mac\Home\Documents\Studium\6. Semester\Bachelorarbeit\Code\PerformanceTests\Enclave\E_VByte.cpp:30.4
$LN86:
  00120 48 89 45 50      mov QWORD PTR [80+rbp], rax            ;\\Mac\Home\Documents\Studium\6. Semester\Bachelorarbeit\Code\PerformanceTests\Enclave\E_VByte.cpp:30.4
$LN87:

;;; 			*out = (uint8_t)(val >> 14);

  00124 8b 45 00         mov eax, DWORD PTR [rbp]               ;\\Mac\Home\Documents\Studium\6. Semester\Bachelorarbeit\Code\PerformanceTests\Enclave\E_VByte.cpp:31.4
$LN88:
  00127 c1 e8 0e         shr eax, 14                            ;\\Mac\Home\Documents\Studium\6. Semester\Bachelorarbeit\Code\PerformanceTests\Enclave\E_VByte.cpp:31.4
$LN89:
  0012a 48 8b 55 50      mov rdx, QWORD PTR [80+rbp]            ;\\Mac\Home\Documents\Studium\6. Semester\Bachelorarbeit\Code\PerformanceTests\Enclave\E_VByte.cpp:31.4
$LN90:
  0012e 88 02            mov BYTE PTR [rdx], al                 ;\\Mac\Home\Documents\Studium\6. Semester\Bachelorarbeit\Code\PerformanceTests\Enclave\E_VByte.cpp:31.4
$LN91:

;;; 			++out;

  00130 b8 01 00 00 00   mov eax, 1                             ;\\Mac\Home\Documents\Studium\6. Semester\Bachelorarbeit\Code\PerformanceTests\Enclave\E_VByte.cpp:32.4
$LN92:
  00135 48 03 45 50      add rax, QWORD PTR [80+rbp]            ;\\Mac\Home\Documents\Studium\6. Semester\Bachelorarbeit\Code\PerformanceTests\Enclave\E_VByte.cpp:32.4
$LN93:
  00139 48 89 45 50      mov QWORD PTR [80+rbp], rax            ;\\Mac\Home\Documents\Studium\6. Semester\Bachelorarbeit\Code\PerformanceTests\Enclave\E_VByte.cpp:32.4
$LN94:
  0013d e9 0e ff ff ff   jmp .B1.3 ; Prob 100%                  ;\\Mac\Home\Documents\Studium\6. Semester\Bachelorarbeit\Code\PerformanceTests\Enclave\E_VByte.cpp:32.4
$LN95:
                                ; LOE rbx rbp rsi rdi rsp r12 r13 r14 r15 rip zmm6 zmm7 zmm8 zmm9 zmm10 zmm11 zmm12 zmm13 zmm14 zmm15
.B1.10::                        ; Preds .B1.8
                                ; Execution count [0.00e+000]
$LN96:

;;; 		}
;;; 		else if (val < (1U << 28)) {

  00142 8b 45 00         mov eax, DWORD PTR [rbp]               ;\\Mac\Home\Documents\Studium\6. Semester\Bachelorarbeit\Code\PerformanceTests\Enclave\E_VByte.cpp:34.8
$LN97:
  00145 3d 00 00 00 10   cmp eax, 268435456                     ;\\Mac\Home\Documents\Studium\6. Semester\Bachelorarbeit\Code\PerformanceTests\Enclave\E_VByte.cpp:34.8
$LN98:
  0014a 73 7e            jae .B1.12 ; Prob 50%                  ;\\Mac\Home\Documents\Studium\6. Semester\Bachelorarbeit\Code\PerformanceTests\Enclave\E_VByte.cpp:34.8
$LN99:
                                ; LOE rbx rbp rsi rdi rsp r12 r13 r14 r15 rip zmm6 zmm7 zmm8 zmm9 zmm10 zmm11 zmm12 zmm13 zmm14 zmm15
.B1.11::                        ; Preds .B1.10
                                ; Execution count [0.00e+000]
$LN100:

;;; 			*out = (uint8_t)((val & 0x7F) | (1U << 7));

  0014c 8b 45 00         mov eax, DWORD PTR [rbp]               ;\\Mac\Home\Documents\Studium\6. Semester\Bachelorarbeit\Code\PerformanceTests\Enclave\E_VByte.cpp:35.4
$LN101:
  0014f 83 e0 7f         and eax, 127                           ;\\Mac\Home\Documents\Studium\6. Semester\Bachelorarbeit\Code\PerformanceTests\Enclave\E_VByte.cpp:35.4
$LN102:
  00152 0d 80 00 00 00   or eax, 128                            ;\\Mac\Home\Documents\Studium\6. Semester\Bachelorarbeit\Code\PerformanceTests\Enclave\E_VByte.cpp:35.4
$LN103:
  00157 48 8b 55 50      mov rdx, QWORD PTR [80+rbp]            ;\\Mac\Home\Documents\Studium\6. Semester\Bachelorarbeit\Code\PerformanceTests\Enclave\E_VByte.cpp:35.4
$LN104:
  0015b 88 02            mov BYTE PTR [rdx], al                 ;\\Mac\Home\Documents\Studium\6. Semester\Bachelorarbeit\Code\PerformanceTests\Enclave\E_VByte.cpp:35.4
$LN105:

;;; 			++out;

  0015d b8 01 00 00 00   mov eax, 1                             ;\\Mac\Home\Documents\Studium\6. Semester\Bachelorarbeit\Code\PerformanceTests\Enclave\E_VByte.cpp:36.4
$LN106:
  00162 48 03 45 50      add rax, QWORD PTR [80+rbp]            ;\\Mac\Home\Documents\Studium\6. Semester\Bachelorarbeit\Code\PerformanceTests\Enclave\E_VByte.cpp:36.4
$LN107:
  00166 48 89 45 50      mov QWORD PTR [80+rbp], rax            ;\\Mac\Home\Documents\Studium\6. Semester\Bachelorarbeit\Code\PerformanceTests\Enclave\E_VByte.cpp:36.4
$LN108:

;;; 			*out = (uint8_t)(((val >> 7) & 0x7F) | (1U << 7));

  0016a 8b 45 00         mov eax, DWORD PTR [rbp]               ;\\Mac\Home\Documents\Studium\6. Semester\Bachelorarbeit\Code\PerformanceTests\Enclave\E_VByte.cpp:37.4
$LN109:
  0016d c1 e8 07         shr eax, 7                             ;\\Mac\Home\Documents\Studium\6. Semester\Bachelorarbeit\Code\PerformanceTests\Enclave\E_VByte.cpp:37.4
$LN110:
  00170 83 e0 7f         and eax, 127                           ;\\Mac\Home\Documents\Studium\6. Semester\Bachelorarbeit\Code\PerformanceTests\Enclave\E_VByte.cpp:37.4
$LN111:
  00173 0d 80 00 00 00   or eax, 128                            ;\\Mac\Home\Documents\Studium\6. Semester\Bachelorarbeit\Code\PerformanceTests\Enclave\E_VByte.cpp:37.4
$LN112:
  00178 48 8b 55 50      mov rdx, QWORD PTR [80+rbp]            ;\\Mac\Home\Documents\Studium\6. Semester\Bachelorarbeit\Code\PerformanceTests\Enclave\E_VByte.cpp:37.4
$LN113:
  0017c 88 02            mov BYTE PTR [rdx], al                 ;\\Mac\Home\Documents\Studium\6. Semester\Bachelorarbeit\Code\PerformanceTests\Enclave\E_VByte.cpp:37.4
$LN114:

;;; 			++out;

  0017e b8 01 00 00 00   mov eax, 1                             ;\\Mac\Home\Documents\Studium\6. Semester\Bachelorarbeit\Code\PerformanceTests\Enclave\E_VByte.cpp:38.4
$LN115:
  00183 48 03 45 50      add rax, QWORD PTR [80+rbp]            ;\\Mac\Home\Documents\Studium\6. Semester\Bachelorarbeit\Code\PerformanceTests\Enclave\E_VByte.cpp:38.4
$LN116:
  00187 48 89 45 50      mov QWORD PTR [80+rbp], rax            ;\\Mac\Home\Documents\Studium\6. Semester\Bachelorarbeit\Code\PerformanceTests\Enclave\E_VByte.cpp:38.4
$LN117:

;;; 			*out = (uint8_t)(((val >> 14) & 0x7F) | (1U << 7));

  0018b 8b 45 00         mov eax, DWORD PTR [rbp]               ;\\Mac\Home\Documents\Studium\6. Semester\Bachelorarbeit\Code\PerformanceTests\Enclave\E_VByte.cpp:39.4
$LN118:
  0018e c1 e8 0e         shr eax, 14                            ;\\Mac\Home\Documents\Studium\6. Semester\Bachelorarbeit\Code\PerformanceTests\Enclave\E_VByte.cpp:39.4
$LN119:
  00191 83 e0 7f         and eax, 127                           ;\\Mac\Home\Documents\Studium\6. Semester\Bachelorarbeit\Code\PerformanceTests\Enclave\E_VByte.cpp:39.4
$LN120:
  00194 0d 80 00 00 00   or eax, 128                            ;\\Mac\Home\Documents\Studium\6. Semester\Bachelorarbeit\Code\PerformanceTests\Enclave\E_VByte.cpp:39.4
$LN121:
  00199 48 8b 55 50      mov rdx, QWORD PTR [80+rbp]            ;\\Mac\Home\Documents\Studium\6. Semester\Bachelorarbeit\Code\PerformanceTests\Enclave\E_VByte.cpp:39.4
$LN122:
  0019d 88 02            mov BYTE PTR [rdx], al                 ;\\Mac\Home\Documents\Studium\6. Semester\Bachelorarbeit\Code\PerformanceTests\Enclave\E_VByte.cpp:39.4
$LN123:

;;; 			++out;

  0019f b8 01 00 00 00   mov eax, 1                             ;\\Mac\Home\Documents\Studium\6. Semester\Bachelorarbeit\Code\PerformanceTests\Enclave\E_VByte.cpp:40.4
$LN124:
  001a4 48 03 45 50      add rax, QWORD PTR [80+rbp]            ;\\Mac\Home\Documents\Studium\6. Semester\Bachelorarbeit\Code\PerformanceTests\Enclave\E_VByte.cpp:40.4
$LN125:
  001a8 48 89 45 50      mov QWORD PTR [80+rbp], rax            ;\\Mac\Home\Documents\Studium\6. Semester\Bachelorarbeit\Code\PerformanceTests\Enclave\E_VByte.cpp:40.4
$LN126:

;;; 			*out = (uint8_t)(val >> 21);

  001ac 8b 45 00         mov eax, DWORD PTR [rbp]               ;\\Mac\Home\Documents\Studium\6. Semester\Bachelorarbeit\Code\PerformanceTests\Enclave\E_VByte.cpp:41.4
$LN127:
  001af c1 e8 15         shr eax, 21                            ;\\Mac\Home\Documents\Studium\6. Semester\Bachelorarbeit\Code\PerformanceTests\Enclave\E_VByte.cpp:41.4
$LN128:
  001b2 48 8b 55 50      mov rdx, QWORD PTR [80+rbp]            ;\\Mac\Home\Documents\Studium\6. Semester\Bachelorarbeit\Code\PerformanceTests\Enclave\E_VByte.cpp:41.4
$LN129:
  001b6 88 02            mov BYTE PTR [rdx], al                 ;\\Mac\Home\Documents\Studium\6. Semester\Bachelorarbeit\Code\PerformanceTests\Enclave\E_VByte.cpp:41.4
$LN130:

;;; 			++out;

  001b8 b8 01 00 00 00   mov eax, 1                             ;\\Mac\Home\Documents\Studium\6. Semester\Bachelorarbeit\Code\PerformanceTests\Enclave\E_VByte.cpp:42.4
$LN131:
  001bd 48 03 45 50      add rax, QWORD PTR [80+rbp]            ;\\Mac\Home\Documents\Studium\6. Semester\Bachelorarbeit\Code\PerformanceTests\Enclave\E_VByte.cpp:42.4
$LN132:
  001c1 48 89 45 50      mov QWORD PTR [80+rbp], rax            ;\\Mac\Home\Documents\Studium\6. Semester\Bachelorarbeit\Code\PerformanceTests\Enclave\E_VByte.cpp:42.4
$LN133:
  001c5 e9 86 fe ff ff   jmp .B1.3 ; Prob 100%                  ;\\Mac\Home\Documents\Studium\6. Semester\Bachelorarbeit\Code\PerformanceTests\Enclave\E_VByte.cpp:42.4
$LN134:
                                ; LOE rbx rbp rsi rdi rsp r12 r13 r14 r15 rip zmm6 zmm7 zmm8 zmm9 zmm10 zmm11 zmm12 zmm13 zmm14 zmm15
.B1.12::                        ; Preds .B1.10
                                ; Execution count [0.00e+000]
$LN135:

;;; 		}
;;; 		else {
;;; 			*out = (uint8_t)((val & 0x7F) | (1U << 7));

  001ca 8b 45 00         mov eax, DWORD PTR [rbp]               ;\\Mac\Home\Documents\Studium\6. Semester\Bachelorarbeit\Code\PerformanceTests\Enclave\E_VByte.cpp:45.4
$LN136:
  001cd 83 e0 7f         and eax, 127                           ;\\Mac\Home\Documents\Studium\6. Semester\Bachelorarbeit\Code\PerformanceTests\Enclave\E_VByte.cpp:45.4
$LN137:
  001d0 0d 80 00 00 00   or eax, 128                            ;\\Mac\Home\Documents\Studium\6. Semester\Bachelorarbeit\Code\PerformanceTests\Enclave\E_VByte.cpp:45.4
$LN138:
  001d5 48 8b 55 50      mov rdx, QWORD PTR [80+rbp]            ;\\Mac\Home\Documents\Studium\6. Semester\Bachelorarbeit\Code\PerformanceTests\Enclave\E_VByte.cpp:45.4
$LN139:
  001d9 88 02            mov BYTE PTR [rdx], al                 ;\\Mac\Home\Documents\Studium\6. Semester\Bachelorarbeit\Code\PerformanceTests\Enclave\E_VByte.cpp:45.4
$LN140:

;;; 			++out;

  001db b8 01 00 00 00   mov eax, 1                             ;\\Mac\Home\Documents\Studium\6. Semester\Bachelorarbeit\Code\PerformanceTests\Enclave\E_VByte.cpp:46.4
$LN141:
  001e0 48 03 45 50      add rax, QWORD PTR [80+rbp]            ;\\Mac\Home\Documents\Studium\6. Semester\Bachelorarbeit\Code\PerformanceTests\Enclave\E_VByte.cpp:46.4
$LN142:
  001e4 48 89 45 50      mov QWORD PTR [80+rbp], rax            ;\\Mac\Home\Documents\Studium\6. Semester\Bachelorarbeit\Code\PerformanceTests\Enclave\E_VByte.cpp:46.4
$LN143:

;;; 			*out = (uint8_t)(((val >> 7) & 0x7F) | (1U << 7));

  001e8 8b 45 00         mov eax, DWORD PTR [rbp]               ;\\Mac\Home\Documents\Studium\6. Semester\Bachelorarbeit\Code\PerformanceTests\Enclave\E_VByte.cpp:47.4
$LN144:
  001eb c1 e8 07         shr eax, 7                             ;\\Mac\Home\Documents\Studium\6. Semester\Bachelorarbeit\Code\PerformanceTests\Enclave\E_VByte.cpp:47.4
$LN145:
  001ee 83 e0 7f         and eax, 127                           ;\\Mac\Home\Documents\Studium\6. Semester\Bachelorarbeit\Code\PerformanceTests\Enclave\E_VByte.cpp:47.4
$LN146:
  001f1 0d 80 00 00 00   or eax, 128                            ;\\Mac\Home\Documents\Studium\6. Semester\Bachelorarbeit\Code\PerformanceTests\Enclave\E_VByte.cpp:47.4
$LN147:
  001f6 48 8b 55 50      mov rdx, QWORD PTR [80+rbp]            ;\\Mac\Home\Documents\Studium\6. Semester\Bachelorarbeit\Code\PerformanceTests\Enclave\E_VByte.cpp:47.4
$LN148:
  001fa 88 02            mov BYTE PTR [rdx], al                 ;\\Mac\Home\Documents\Studium\6. Semester\Bachelorarbeit\Code\PerformanceTests\Enclave\E_VByte.cpp:47.4
$LN149:

;;; 			++out;

  001fc b8 01 00 00 00   mov eax, 1                             ;\\Mac\Home\Documents\Studium\6. Semester\Bachelorarbeit\Code\PerformanceTests\Enclave\E_VByte.cpp:48.4
$LN150:
  00201 48 03 45 50      add rax, QWORD PTR [80+rbp]            ;\\Mac\Home\Documents\Studium\6. Semester\Bachelorarbeit\Code\PerformanceTests\Enclave\E_VByte.cpp:48.4
$LN151:
  00205 48 89 45 50      mov QWORD PTR [80+rbp], rax            ;\\Mac\Home\Documents\Studium\6. Semester\Bachelorarbeit\Code\PerformanceTests\Enclave\E_VByte.cpp:48.4
$LN152:

;;; 			*out = (uint8_t)(((val >> 14) & 0x7F) | (1U << 7));

  00209 8b 45 00         mov eax, DWORD PTR [rbp]               ;\\Mac\Home\Documents\Studium\6. Semester\Bachelorarbeit\Code\PerformanceTests\Enclave\E_VByte.cpp:49.4
$LN153:
  0020c c1 e8 0e         shr eax, 14                            ;\\Mac\Home\Documents\Studium\6. Semester\Bachelorarbeit\Code\PerformanceTests\Enclave\E_VByte.cpp:49.4
$LN154:
  0020f 83 e0 7f         and eax, 127                           ;\\Mac\Home\Documents\Studium\6. Semester\Bachelorarbeit\Code\PerformanceTests\Enclave\E_VByte.cpp:49.4
$LN155:
  00212 0d 80 00 00 00   or eax, 128                            ;\\Mac\Home\Documents\Studium\6. Semester\Bachelorarbeit\Code\PerformanceTests\Enclave\E_VByte.cpp:49.4
$LN156:
  00217 48 8b 55 50      mov rdx, QWORD PTR [80+rbp]            ;\\Mac\Home\Documents\Studium\6. Semester\Bachelorarbeit\Code\PerformanceTests\Enclave\E_VByte.cpp:49.4
$LN157:
  0021b 88 02            mov BYTE PTR [rdx], al                 ;\\Mac\Home\Documents\Studium\6. Semester\Bachelorarbeit\Code\PerformanceTests\Enclave\E_VByte.cpp:49.4
$LN158:

;;; 			++out;

  0021d b8 01 00 00 00   mov eax, 1                             ;\\Mac\Home\Documents\Studium\6. Semester\Bachelorarbeit\Code\PerformanceTests\Enclave\E_VByte.cpp:50.4
$LN159:
  00222 48 03 45 50      add rax, QWORD PTR [80+rbp]            ;\\Mac\Home\Documents\Studium\6. Semester\Bachelorarbeit\Code\PerformanceTests\Enclave\E_VByte.cpp:50.4
$LN160:
  00226 48 89 45 50      mov QWORD PTR [80+rbp], rax            ;\\Mac\Home\Documents\Studium\6. Semester\Bachelorarbeit\Code\PerformanceTests\Enclave\E_VByte.cpp:50.4
$LN161:

;;; 			*out = (uint8_t)(((val >> 21) & 0x7F) | (1U << 7));

  0022a 8b 45 00         mov eax, DWORD PTR [rbp]               ;\\Mac\Home\Documents\Studium\6. Semester\Bachelorarbeit\Code\PerformanceTests\Enclave\E_VByte.cpp:51.4
$LN162:
  0022d c1 e8 15         shr eax, 21                            ;\\Mac\Home\Documents\Studium\6. Semester\Bachelorarbeit\Code\PerformanceTests\Enclave\E_VByte.cpp:51.4
$LN163:
  00230 83 e0 7f         and eax, 127                           ;\\Mac\Home\Documents\Studium\6. Semester\Bachelorarbeit\Code\PerformanceTests\Enclave\E_VByte.cpp:51.4
$LN164:
  00233 0d 80 00 00 00   or eax, 128                            ;\\Mac\Home\Documents\Studium\6. Semester\Bachelorarbeit\Code\PerformanceTests\Enclave\E_VByte.cpp:51.4
$LN165:
  00238 48 8b 55 50      mov rdx, QWORD PTR [80+rbp]            ;\\Mac\Home\Documents\Studium\6. Semester\Bachelorarbeit\Code\PerformanceTests\Enclave\E_VByte.cpp:51.4
$LN166:
  0023c 88 02            mov BYTE PTR [rdx], al                 ;\\Mac\Home\Documents\Studium\6. Semester\Bachelorarbeit\Code\PerformanceTests\Enclave\E_VByte.cpp:51.4
$LN167:

;;; 			++out;

  0023e b8 01 00 00 00   mov eax, 1                             ;\\Mac\Home\Documents\Studium\6. Semester\Bachelorarbeit\Code\PerformanceTests\Enclave\E_VByte.cpp:52.4
$LN168:
  00243 48 03 45 50      add rax, QWORD PTR [80+rbp]            ;\\Mac\Home\Documents\Studium\6. Semester\Bachelorarbeit\Code\PerformanceTests\Enclave\E_VByte.cpp:52.4
$LN169:
  00247 48 89 45 50      mov QWORD PTR [80+rbp], rax            ;\\Mac\Home\Documents\Studium\6. Semester\Bachelorarbeit\Code\PerformanceTests\Enclave\E_VByte.cpp:52.4
$LN170:

;;; 			*out = (uint8_t)(val >> 28);

  0024b 8b 45 00         mov eax, DWORD PTR [rbp]               ;\\Mac\Home\Documents\Studium\6. Semester\Bachelorarbeit\Code\PerformanceTests\Enclave\E_VByte.cpp:53.4
$LN171:
  0024e c1 e8 1c         shr eax, 28                            ;\\Mac\Home\Documents\Studium\6. Semester\Bachelorarbeit\Code\PerformanceTests\Enclave\E_VByte.cpp:53.4
$LN172:
  00251 48 8b 55 50      mov rdx, QWORD PTR [80+rbp]            ;\\Mac\Home\Documents\Studium\6. Semester\Bachelorarbeit\Code\PerformanceTests\Enclave\E_VByte.cpp:53.4
$LN173:
  00255 88 02            mov BYTE PTR [rdx], al                 ;\\Mac\Home\Documents\Studium\6. Semester\Bachelorarbeit\Code\PerformanceTests\Enclave\E_VByte.cpp:53.4
$LN174:

;;; 			++out;

  00257 b8 01 00 00 00   mov eax, 1                             ;\\Mac\Home\Documents\Studium\6. Semester\Bachelorarbeit\Code\PerformanceTests\Enclave\E_VByte.cpp:54.4
$LN175:
  0025c 48 03 45 50      add rax, QWORD PTR [80+rbp]            ;\\Mac\Home\Documents\Studium\6. Semester\Bachelorarbeit\Code\PerformanceTests\Enclave\E_VByte.cpp:54.4
$LN176:
  00260 48 89 45 50      mov QWORD PTR [80+rbp], rax            ;\\Mac\Home\Documents\Studium\6. Semester\Bachelorarbeit\Code\PerformanceTests\Enclave\E_VByte.cpp:54.4
$LN177:
  00264 e9 e7 fd ff ff   jmp .B1.3 ; Prob 100%                  ;\\Mac\Home\Documents\Studium\6. Semester\Bachelorarbeit\Code\PerformanceTests\Enclave\E_VByte.cpp:54.4
$LN178:
                                ; LOE rbx rbp rsi rdi rsp r12 r13 r14 r15 rip zmm6 zmm7 zmm8 zmm9 zmm10 zmm11 zmm12 zmm13 zmm14 zmm15
.B1.13::                        ; Preds .B1.2
                                ; Execution count [0.00e+000]
$LN179:

;;; 		}
;;; 	}
;;; 
;;; 	return out - initOut;

  00269 48 8b 45 18      mov rax, QWORD PTR [24+rbp]            ;\\Mac\Home\Documents\Studium\6. Semester\Bachelorarbeit\Code\PerformanceTests\Enclave\E_VByte.cpp:58.2
$LN180:
  0026d 48 f7 d8         neg rax                                ;\\Mac\Home\Documents\Studium\6. Semester\Bachelorarbeit\Code\PerformanceTests\Enclave\E_VByte.cpp:58.2
$LN181:
  00270 48 03 45 50      add rax, QWORD PTR [80+rbp]            ;\\Mac\Home\Documents\Studium\6. Semester\Bachelorarbeit\Code\PerformanceTests\Enclave\E_VByte.cpp:58.2
$LN182:
  00274 48 8d 65 30      lea rsp, QWORD PTR [48+rbp]            ;\\Mac\Home\Documents\Studium\6. Semester\Bachelorarbeit\Code\PerformanceTests\Enclave\E_VByte.cpp:58.2
$LN183:
  00278 5d               pop rbp                                ;\\Mac\Home\Documents\Studium\6. Semester\Bachelorarbeit\Code\PerformanceTests\Enclave\E_VByte.cpp:58.2
$LN184:
  00279 c3               ret                                    ;\\Mac\Home\Documents\Studium\6. Semester\Bachelorarbeit\Code\PerformanceTests\Enclave\E_VByte.cpp:58.2
$LN185:
                                ; LOE
.B1.14::
$LN186:
; mark_end;
enclaveVByteEncode ENDP
$LNenclaveVByteEncode$187:
$LNenclaveVByteEncode$188:
_TEXT	ENDS
.xdata	SEGMENT  DWORD   READ  ''
	ALIGN 004H
.unwind.enclaveVByteEncode.B1_B13	DD	620956161
	DD	2449801994
	DD	20481
.xdata	ENDS
.pdata	SEGMENT  DWORD   READ  ''
	ALIGN 004H
.pdata.enclaveVByteEncode.B1_B13	DD	imagerel .B1.1
	DD	imagerel .B1.14
	DD	imagerel .unwind.enclaveVByteEncode.B1_B13
.pdata	ENDS
_DATA	SEGMENT      'DATA'
_DATA	ENDS
; -- End  enclaveVByteEncode
_TEXT	SEGMENT      'CODE'
_2__routine_start_enclaveVByteDecode_6:
; -- Begin  enclaveVByteDecode
_TEXT	ENDS
_TEXT	SEGMENT      'CODE'
; mark_begin;

	PUBLIC enclaveVByteDecode
; --- enclaveVByteDecode(uint8_t *, size_t, uint8_t *, size_t)
enclaveVByteDecode	PROC 
; parameter 1(in): rcx
; parameter 2(inLength): rdx
; parameter 3(out): r8
; parameter 4(outLength): r9
.B2.1::                         ; Preds .B2.0
                                ; Execution count [0.00e+000]

;;; size_t enclaveVByteDecode(uint8_t *in, size_t inLength, uint8_t *out, size_t outLength) {

L8::
                                                           ;\\Mac\Home\Documents\Studium\6. Semester\Bachelorarbeit\Code\PerformanceTests\Enclave\E_VByte.cpp:61.89
$LN189:
  0027a 55               push rbp                               ;\\Mac\Home\Documents\Studium\6. Semester\Bachelorarbeit\Code\PerformanceTests\Enclave\E_VByte.cpp:61.89
$LN190:
  0027b 48 83 ec 40      sub rsp, 64                            ;\\Mac\Home\Documents\Studium\6. Semester\Bachelorarbeit\Code\PerformanceTests\Enclave\E_VByte.cpp:61.89
$LN191:
  0027f 48 8d 6c 24 20   lea rbp, QWORD PTR [32+rsp]            ;\\Mac\Home\Documents\Studium\6. Semester\Bachelorarbeit\Code\PerformanceTests\Enclave\E_VByte.cpp:61.89
$LN192:
  00284 48 89 4d 30      mov QWORD PTR [48+rbp], rcx            ;\\Mac\Home\Documents\Studium\6. Semester\Bachelorarbeit\Code\PerformanceTests\Enclave\E_VByte.cpp:61.89
$LN193:
  00288 48 89 55 38      mov QWORD PTR [56+rbp], rdx            ;\\Mac\Home\Documents\Studium\6. Semester\Bachelorarbeit\Code\PerformanceTests\Enclave\E_VByte.cpp:61.89
$LN194:
  0028c 4c 89 45 40      mov QWORD PTR [64+rbp], r8             ;\\Mac\Home\Documents\Studium\6. Semester\Bachelorarbeit\Code\PerformanceTests\Enclave\E_VByte.cpp:61.89
$LN195:
  00290 4c 89 4d 48      mov QWORD PTR [72+rbp], r9             ;\\Mac\Home\Documents\Studium\6. Semester\Bachelorarbeit\Code\PerformanceTests\Enclave\E_VByte.cpp:61.89
$LN196:

;;; 
;;; 	uint32_t *out32 = reinterpret_cast<uint32_t*>(out);

  00294 48 8b 45 40      mov rax, QWORD PTR [64+rbp]            ;\\Mac\Home\Documents\Studium\6. Semester\Bachelorarbeit\Code\PerformanceTests\Enclave\E_VByte.cpp:63.18
$LN197:
  00298 48 89 45 00      mov QWORD PTR [rbp], rax               ;\\Mac\Home\Documents\Studium\6. Semester\Bachelorarbeit\Code\PerformanceTests\Enclave\E_VByte.cpp:63.18
$LN198:

;;; 
;;; 	const uint32_t *initOut = out32;

  0029c 48 8b 45 00      mov rax, QWORD PTR [rbp]               ;\\Mac\Home\Documents\Studium\6. Semester\Bachelorarbeit\Code\PerformanceTests\Enclave\E_VByte.cpp:65.26
$LN199:
  002a0 48 89 45 08      mov QWORD PTR [8+rbp], rax             ;\\Mac\Home\Documents\Studium\6. Semester\Bachelorarbeit\Code\PerformanceTests\Enclave\E_VByte.cpp:65.26
$LN200:

;;; 	size_t k = 0;

  002a4 48 c7 45 10 00 
        00 00 00         mov QWORD PTR [16+rbp], 0              ;\\Mac\Home\Documents\Studium\6. Semester\Bachelorarbeit\Code\PerformanceTests\Enclave\E_VByte.cpp:66.11
$LN201:
                                ; LOE rbx rbp rsi rdi rsp r12 r13 r14 r15 rip zmm6 zmm7 zmm8 zmm9 zmm10 zmm11 zmm12 zmm13 zmm14 zmm15
.B2.2::                         ; Preds .B2.12 .B2.1
                                ; Execution count [0.00e+000]
$LN202:

;;; 
;;; 	while (k < inLength) {

  002ac 48 8b 45 10      mov rax, QWORD PTR [16+rbp]            ;\\Mac\Home\Documents\Studium\6. Semester\Bachelorarbeit\Code\PerformanceTests\Enclave\E_VByte.cpp:68.2
$LN203:
  002b0 48 8b 55 38      mov rdx, QWORD PTR [56+rbp]            ;\\Mac\Home\Documents\Studium\6. Semester\Bachelorarbeit\Code\PerformanceTests\Enclave\E_VByte.cpp:68.2
$LN204:
  002b4 48 3b c2         cmp rax, rdx                           ;\\Mac\Home\Documents\Studium\6. Semester\Bachelorarbeit\Code\PerformanceTests\Enclave\E_VByte.cpp:68.2
$LN205:
  002b7 0f 83 4b 02 00 
        00               jae .B2.13 ; Prob 50%                  ;\\Mac\Home\Documents\Studium\6. Semester\Bachelorarbeit\Code\PerformanceTests\Enclave\E_VByte.cpp:68.2
$LN206:
                                ; LOE rbx rbp rsi rdi rsp r12 r13 r14 r15 rip zmm6 zmm7 zmm8 zmm9 zmm10 zmm11 zmm12 zmm13 zmm14 zmm15
.B2.3::                         ; Preds .B2.2
                                ; Execution count [0.00e+000]
$LN207:

;;; 
;;; 		if (in[k] < 1U << 7) {

  002bd 48 8b 45 10      mov rax, QWORD PTR [16+rbp]            ;\\Mac\Home\Documents\Studium\6. Semester\Bachelorarbeit\Code\PerformanceTests\Enclave\E_VByte.cpp:70.3
$LN208:
  002c1 48 03 45 30      add rax, QWORD PTR [48+rbp]            ;\\Mac\Home\Documents\Studium\6. Semester\Bachelorarbeit\Code\PerformanceTests\Enclave\E_VByte.cpp:70.3
$LN209:
  002c5 0f b6 00         movzx eax, BYTE PTR [rax]              ;\\Mac\Home\Documents\Studium\6. Semester\Bachelorarbeit\Code\PerformanceTests\Enclave\E_VByte.cpp:70.3
$LN210:
  002c8 0f b6 c0         movzx eax, al                          ;\\Mac\Home\Documents\Studium\6. Semester\Bachelorarbeit\Code\PerformanceTests\Enclave\E_VByte.cpp:70.3
$LN211:
  002cb 3d 80 00 00 00   cmp eax, 128                           ;\\Mac\Home\Documents\Studium\6. Semester\Bachelorarbeit\Code\PerformanceTests\Enclave\E_VByte.cpp:70.3
$LN212:
  002d0 73 29            jae .B2.5 ; Prob 50%                   ;\\Mac\Home\Documents\Studium\6. Semester\Bachelorarbeit\Code\PerformanceTests\Enclave\E_VByte.cpp:70.3
$LN213:
                                ; LOE rbx rbp rsi rdi rsp r12 r13 r14 r15 rip zmm6 zmm7 zmm8 zmm9 zmm10 zmm11 zmm12 zmm13 zmm14 zmm15
.B2.4::                         ; Preds .B2.3
                                ; Execution count [0.00e+000]
$LN214:

;;; 			*out32 = (uint32_t)(in[k] & 0x7F);

  002d2 48 8b 45 10      mov rax, QWORD PTR [16+rbp]            ;\\Mac\Home\Documents\Studium\6. Semester\Bachelorarbeit\Code\PerformanceTests\Enclave\E_VByte.cpp:71.4
$LN215:
  002d6 48 03 45 30      add rax, QWORD PTR [48+rbp]            ;\\Mac\Home\Documents\Studium\6. Semester\Bachelorarbeit\Code\PerformanceTests\Enclave\E_VByte.cpp:71.4
$LN216:
  002da 0f b6 00         movzx eax, BYTE PTR [rax]              ;\\Mac\Home\Documents\Studium\6. Semester\Bachelorarbeit\Code\PerformanceTests\Enclave\E_VByte.cpp:71.4
$LN217:
  002dd 0f b6 c0         movzx eax, al                          ;\\Mac\Home\Documents\Studium\6. Semester\Bachelorarbeit\Code\PerformanceTests\Enclave\E_VByte.cpp:71.4
$LN218:
  002e0 83 e0 7f         and eax, 127                           ;\\Mac\Home\Documents\Studium\6. Semester\Bachelorarbeit\Code\PerformanceTests\Enclave\E_VByte.cpp:71.4
$LN219:
  002e3 48 8b 55 00      mov rdx, QWORD PTR [rbp]               ;\\Mac\Home\Documents\Studium\6. Semester\Bachelorarbeit\Code\PerformanceTests\Enclave\E_VByte.cpp:71.4
$LN220:
  002e7 89 02            mov DWORD PTR [rdx], eax               ;\\Mac\Home\Documents\Studium\6. Semester\Bachelorarbeit\Code\PerformanceTests\Enclave\E_VByte.cpp:71.4
$LN221:

;;; 			k += 1;

  002e9 b8 01 00 00 00   mov eax, 1                             ;\\Mac\Home\Documents\Studium\6. Semester\Bachelorarbeit\Code\PerformanceTests\Enclave\E_VByte.cpp:72.4
$LN222:
  002ee 48 03 45 10      add rax, QWORD PTR [16+rbp]            ;\\Mac\Home\Documents\Studium\6. Semester\Bachelorarbeit\Code\PerformanceTests\Enclave\E_VByte.cpp:72.4
$LN223:
  002f2 48 89 45 10      mov QWORD PTR [16+rbp], rax            ;\\Mac\Home\Documents\Studium\6. Semester\Bachelorarbeit\Code\PerformanceTests\Enclave\E_VByte.cpp:72.4
$LN224:
  002f6 e9 fb 01 00 00   jmp .B2.12 ; Prob 100%                 ;\\Mac\Home\Documents\Studium\6. Semester\Bachelorarbeit\Code\PerformanceTests\Enclave\E_VByte.cpp:72.4
$LN225:
                                ; LOE rbx rbp rsi rdi rsp r12 r13 r14 r15 rip zmm6 zmm7 zmm8 zmm9 zmm10 zmm11 zmm12 zmm13 zmm14 zmm15
.B2.5::                         ; Preds .B2.3
                                ; Execution count [0.00e+000]
$LN226:

;;; 		}
;;; 		else if (in[k + 1] < 1U << 7) {

  002fb b8 01 00 00 00   mov eax, 1                             ;\\Mac\Home\Documents\Studium\6. Semester\Bachelorarbeit\Code\PerformanceTests\Enclave\E_VByte.cpp:74.8
$LN227:
  00300 48 03 45 10      add rax, QWORD PTR [16+rbp]            ;\\Mac\Home\Documents\Studium\6. Semester\Bachelorarbeit\Code\PerformanceTests\Enclave\E_VByte.cpp:74.8
$LN228:
  00304 48 03 45 30      add rax, QWORD PTR [48+rbp]            ;\\Mac\Home\Documents\Studium\6. Semester\Bachelorarbeit\Code\PerformanceTests\Enclave\E_VByte.cpp:74.8
$LN229:
  00308 0f b6 00         movzx eax, BYTE PTR [rax]              ;\\Mac\Home\Documents\Studium\6. Semester\Bachelorarbeit\Code\PerformanceTests\Enclave\E_VByte.cpp:74.8
$LN230:
  0030b 0f b6 c0         movzx eax, al                          ;\\Mac\Home\Documents\Studium\6. Semester\Bachelorarbeit\Code\PerformanceTests\Enclave\E_VByte.cpp:74.8
$LN231:
  0030e 3d 80 00 00 00   cmp eax, 128                           ;\\Mac\Home\Documents\Studium\6. Semester\Bachelorarbeit\Code\PerformanceTests\Enclave\E_VByte.cpp:74.8
$LN232:
  00313 73 44            jae .B2.7 ; Prob 50%                   ;\\Mac\Home\Documents\Studium\6. Semester\Bachelorarbeit\Code\PerformanceTests\Enclave\E_VByte.cpp:74.8
$LN233:
                                ; LOE rbx rbp rsi rdi rsp r12 r13 r14 r15 rip zmm6 zmm7 zmm8 zmm9 zmm10 zmm11 zmm12 zmm13 zmm14 zmm15
.B2.6::                         ; Preds .B2.5
                                ; Execution count [0.00e+000]
$LN234:

;;; 			*out32 = (uint32_t)(in[k] & 0x7F) | ((uint32_t)(in[k + 1] & 0x7F) << 7);

  00315 48 8b 45 10      mov rax, QWORD PTR [16+rbp]            ;\\Mac\Home\Documents\Studium\6. Semester\Bachelorarbeit\Code\PerformanceTests\Enclave\E_VByte.cpp:75.4
$LN235:
  00319 48 03 45 30      add rax, QWORD PTR [48+rbp]            ;\\Mac\Home\Documents\Studium\6. Semester\Bachelorarbeit\Code\PerformanceTests\Enclave\E_VByte.cpp:75.4
$LN236:
  0031d 0f b6 00         movzx eax, BYTE PTR [rax]              ;\\Mac\Home\Documents\Studium\6. Semester\Bachelorarbeit\Code\PerformanceTests\Enclave\E_VByte.cpp:75.4
$LN237:
  00320 0f b6 c0         movzx eax, al                          ;\\Mac\Home\Documents\Studium\6. Semester\Bachelorarbeit\Code\PerformanceTests\Enclave\E_VByte.cpp:75.4
$LN238:
  00323 83 e0 7f         and eax, 127                           ;\\Mac\Home\Documents\Studium\6. Semester\Bachelorarbeit\Code\PerformanceTests\Enclave\E_VByte.cpp:75.4
$LN239:
  00326 ba 01 00 00 00   mov edx, 1                             ;\\Mac\Home\Documents\Studium\6. Semester\Bachelorarbeit\Code\PerformanceTests\Enclave\E_VByte.cpp:75.4
$LN240:
  0032b 48 03 55 10      add rdx, QWORD PTR [16+rbp]            ;\\Mac\Home\Documents\Studium\6. Semester\Bachelorarbeit\Code\PerformanceTests\Enclave\E_VByte.cpp:75.4
$LN241:
  0032f 48 03 55 30      add rdx, QWORD PTR [48+rbp]            ;\\Mac\Home\Documents\Studium\6. Semester\Bachelorarbeit\Code\PerformanceTests\Enclave\E_VByte.cpp:75.4
$LN242:
  00333 0f b6 12         movzx edx, BYTE PTR [rdx]              ;\\Mac\Home\Documents\Studium\6. Semester\Bachelorarbeit\Code\PerformanceTests\Enclave\E_VByte.cpp:75.4
$LN243:
  00336 0f b6 d2         movzx edx, dl                          ;\\Mac\Home\Documents\Studium\6. Semester\Bachelorarbeit\Code\PerformanceTests\Enclave\E_VByte.cpp:75.4
$LN244:
  00339 83 e2 7f         and edx, 127                           ;\\Mac\Home\Documents\Studium\6. Semester\Bachelorarbeit\Code\PerformanceTests\Enclave\E_VByte.cpp:75.4
$LN245:
  0033c c1 e2 07         shl edx, 7                             ;\\Mac\Home\Documents\Studium\6. Semester\Bachelorarbeit\Code\PerformanceTests\Enclave\E_VByte.cpp:75.4
$LN246:
  0033f 0b c2            or eax, edx                            ;\\Mac\Home\Documents\Studium\6. Semester\Bachelorarbeit\Code\PerformanceTests\Enclave\E_VByte.cpp:75.4
$LN247:
  00341 48 8b 55 00      mov rdx, QWORD PTR [rbp]               ;\\Mac\Home\Documents\Studium\6. Semester\Bachelorarbeit\Code\PerformanceTests\Enclave\E_VByte.cpp:75.4
$LN248:
  00345 89 02            mov DWORD PTR [rdx], eax               ;\\Mac\Home\Documents\Studium\6. Semester\Bachelorarbeit\Code\PerformanceTests\Enclave\E_VByte.cpp:75.4
$LN249:

;;; 			k += 2;

  00347 b8 02 00 00 00   mov eax, 2                             ;\\Mac\Home\Documents\Studium\6. Semester\Bachelorarbeit\Code\PerformanceTests\Enclave\E_VByte.cpp:76.4
$LN250:
  0034c 48 03 45 10      add rax, QWORD PTR [16+rbp]            ;\\Mac\Home\Documents\Studium\6. Semester\Bachelorarbeit\Code\PerformanceTests\Enclave\E_VByte.cpp:76.4
$LN251:
  00350 48 89 45 10      mov QWORD PTR [16+rbp], rax            ;\\Mac\Home\Documents\Studium\6. Semester\Bachelorarbeit\Code\PerformanceTests\Enclave\E_VByte.cpp:76.4
$LN252:
  00354 e9 9d 01 00 00   jmp .B2.12 ; Prob 100%                 ;\\Mac\Home\Documents\Studium\6. Semester\Bachelorarbeit\Code\PerformanceTests\Enclave\E_VByte.cpp:76.4
$LN253:
                                ; LOE rbx rbp rsi rdi rsp r12 r13 r14 r15 rip zmm6 zmm7 zmm8 zmm9 zmm10 zmm11 zmm12 zmm13 zmm14 zmm15
.B2.7::                         ; Preds .B2.5
                                ; Execution count [0.00e+000]
$LN254:

;;; 		}
;;; 		else if (in[k + 2] < 1U << 7) {

  00359 b8 02 00 00 00   mov eax, 2                             ;\\Mac\Home\Documents\Studium\6. Semester\Bachelorarbeit\Code\PerformanceTests\Enclave\E_VByte.cpp:78.8
$LN255:
  0035e 48 03 45 10      add rax, QWORD PTR [16+rbp]            ;\\Mac\Home\Documents\Studium\6. Semester\Bachelorarbeit\Code\PerformanceTests\Enclave\E_VByte.cpp:78.8
$LN256:
  00362 48 03 45 30      add rax, QWORD PTR [48+rbp]            ;\\Mac\Home\Documents\Studium\6. Semester\Bachelorarbeit\Code\PerformanceTests\Enclave\E_VByte.cpp:78.8
$LN257:
  00366 0f b6 00         movzx eax, BYTE PTR [rax]              ;\\Mac\Home\Documents\Studium\6. Semester\Bachelorarbeit\Code\PerformanceTests\Enclave\E_VByte.cpp:78.8
$LN258:
  00369 0f b6 c0         movzx eax, al                          ;\\Mac\Home\Documents\Studium\6. Semester\Bachelorarbeit\Code\PerformanceTests\Enclave\E_VByte.cpp:78.8
$LN259:
  0036c 3d 80 00 00 00   cmp eax, 128                           ;\\Mac\Home\Documents\Studium\6. Semester\Bachelorarbeit\Code\PerformanceTests\Enclave\E_VByte.cpp:78.8
$LN260:
  00371 73 5f            jae .B2.9 ; Prob 50%                   ;\\Mac\Home\Documents\Studium\6. Semester\Bachelorarbeit\Code\PerformanceTests\Enclave\E_VByte.cpp:78.8
$LN261:
                                ; LOE rbx rbp rsi rdi rsp r12 r13 r14 r15 rip zmm6 zmm7 zmm8 zmm9 zmm10 zmm11 zmm12 zmm13 zmm14 zmm15
.B2.8::                         ; Preds .B2.7
                                ; Execution count [0.00e+000]
$LN262:

;;; 			*out32 = (uint32_t)(in[k] & 0x7F) | ((uint32_t)(in[k + 1] & 0x7F) << 7) | ((uint32_t)(in[k + 2] & 0x7F) << 14);

  00373 48 8b 45 10      mov rax, QWORD PTR [16+rbp]            ;\\Mac\Home\Documents\Studium\6. Semester\Bachelorarbeit\Code\PerformanceTests\Enclave\E_VByte.cpp:79.4
$LN263:
  00377 48 03 45 30      add rax, QWORD PTR [48+rbp]            ;\\Mac\Home\Documents\Studium\6. Semester\Bachelorarbeit\Code\PerformanceTests\Enclave\E_VByte.cpp:79.4
$LN264:
  0037b 0f b6 00         movzx eax, BYTE PTR [rax]              ;\\Mac\Home\Documents\Studium\6. Semester\Bachelorarbeit\Code\PerformanceTests\Enclave\E_VByte.cpp:79.4
$LN265:
  0037e 0f b6 c0         movzx eax, al                          ;\\Mac\Home\Documents\Studium\6. Semester\Bachelorarbeit\Code\PerformanceTests\Enclave\E_VByte.cpp:79.4
$LN266:
  00381 83 e0 7f         and eax, 127                           ;\\Mac\Home\Documents\Studium\6. Semester\Bachelorarbeit\Code\PerformanceTests\Enclave\E_VByte.cpp:79.4
$LN267:
  00384 ba 01 00 00 00   mov edx, 1                             ;\\Mac\Home\Documents\Studium\6. Semester\Bachelorarbeit\Code\PerformanceTests\Enclave\E_VByte.cpp:79.4
$LN268:
  00389 48 03 55 10      add rdx, QWORD PTR [16+rbp]            ;\\Mac\Home\Documents\Studium\6. Semester\Bachelorarbeit\Code\PerformanceTests\Enclave\E_VByte.cpp:79.4
$LN269:
  0038d 48 03 55 30      add rdx, QWORD PTR [48+rbp]            ;\\Mac\Home\Documents\Studium\6. Semester\Bachelorarbeit\Code\PerformanceTests\Enclave\E_VByte.cpp:79.4
$LN270:
  00391 0f b6 12         movzx edx, BYTE PTR [rdx]              ;\\Mac\Home\Documents\Studium\6. Semester\Bachelorarbeit\Code\PerformanceTests\Enclave\E_VByte.cpp:79.4
$LN271:
  00394 0f b6 d2         movzx edx, dl                          ;\\Mac\Home\Documents\Studium\6. Semester\Bachelorarbeit\Code\PerformanceTests\Enclave\E_VByte.cpp:79.4
$LN272:
  00397 83 e2 7f         and edx, 127                           ;\\Mac\Home\Documents\Studium\6. Semester\Bachelorarbeit\Code\PerformanceTests\Enclave\E_VByte.cpp:79.4
$LN273:
  0039a c1 e2 07         shl edx, 7                             ;\\Mac\Home\Documents\Studium\6. Semester\Bachelorarbeit\Code\PerformanceTests\Enclave\E_VByte.cpp:79.4
$LN274:
  0039d 0b c2            or eax, edx                            ;\\Mac\Home\Documents\Studium\6. Semester\Bachelorarbeit\Code\PerformanceTests\Enclave\E_VByte.cpp:79.4
$LN275:
  0039f ba 02 00 00 00   mov edx, 2                             ;\\Mac\Home\Documents\Studium\6. Semester\Bachelorarbeit\Code\PerformanceTests\Enclave\E_VByte.cpp:79.4
$LN276:
  003a4 48 03 55 10      add rdx, QWORD PTR [16+rbp]            ;\\Mac\Home\Documents\Studium\6. Semester\Bachelorarbeit\Code\PerformanceTests\Enclave\E_VByte.cpp:79.4
$LN277:
  003a8 48 03 55 30      add rdx, QWORD PTR [48+rbp]            ;\\Mac\Home\Documents\Studium\6. Semester\Bachelorarbeit\Code\PerformanceTests\Enclave\E_VByte.cpp:79.4
$LN278:
  003ac 0f b6 12         movzx edx, BYTE PTR [rdx]              ;\\Mac\Home\Documents\Studium\6. Semester\Bachelorarbeit\Code\PerformanceTests\Enclave\E_VByte.cpp:79.4
$LN279:
  003af 0f b6 d2         movzx edx, dl                          ;\\Mac\Home\Documents\Studium\6. Semester\Bachelorarbeit\Code\PerformanceTests\Enclave\E_VByte.cpp:79.4
$LN280:
  003b2 83 e2 7f         and edx, 127                           ;\\Mac\Home\Documents\Studium\6. Semester\Bachelorarbeit\Code\PerformanceTests\Enclave\E_VByte.cpp:79.4
$LN281:
  003b5 c1 e2 0e         shl edx, 14                            ;\\Mac\Home\Documents\Studium\6. Semester\Bachelorarbeit\Code\PerformanceTests\Enclave\E_VByte.cpp:79.4
$LN282:
  003b8 0b c2            or eax, edx                            ;\\Mac\Home\Documents\Studium\6. Semester\Bachelorarbeit\Code\PerformanceTests\Enclave\E_VByte.cpp:79.4
$LN283:
  003ba 48 8b 55 00      mov rdx, QWORD PTR [rbp]               ;\\Mac\Home\Documents\Studium\6. Semester\Bachelorarbeit\Code\PerformanceTests\Enclave\E_VByte.cpp:79.4
$LN284:
  003be 89 02            mov DWORD PTR [rdx], eax               ;\\Mac\Home\Documents\Studium\6. Semester\Bachelorarbeit\Code\PerformanceTests\Enclave\E_VByte.cpp:79.4
$LN285:

;;; 			k += 3;

  003c0 b8 03 00 00 00   mov eax, 3                             ;\\Mac\Home\Documents\Studium\6. Semester\Bachelorarbeit\Code\PerformanceTests\Enclave\E_VByte.cpp:80.4
$LN286:
  003c5 48 03 45 10      add rax, QWORD PTR [16+rbp]            ;\\Mac\Home\Documents\Studium\6. Semester\Bachelorarbeit\Code\PerformanceTests\Enclave\E_VByte.cpp:80.4
$LN287:
  003c9 48 89 45 10      mov QWORD PTR [16+rbp], rax            ;\\Mac\Home\Documents\Studium\6. Semester\Bachelorarbeit\Code\PerformanceTests\Enclave\E_VByte.cpp:80.4
$LN288:
  003cd e9 24 01 00 00   jmp .B2.12 ; Prob 100%                 ;\\Mac\Home\Documents\Studium\6. Semester\Bachelorarbeit\Code\PerformanceTests\Enclave\E_VByte.cpp:80.4
$LN289:
                                ; LOE rbx rbp rsi rdi rsp r12 r13 r14 r15 rip zmm6 zmm7 zmm8 zmm9 zmm10 zmm11 zmm12 zmm13 zmm14 zmm15
.B2.9::                         ; Preds .B2.7
                                ; Execution count [0.00e+000]
$LN290:

;;; 		}
;;; 		else if (in[k + 3] < 1U << 7) {

  003d2 b8 03 00 00 00   mov eax, 3                             ;\\Mac\Home\Documents\Studium\6. Semester\Bachelorarbeit\Code\PerformanceTests\Enclave\E_VByte.cpp:82.8
$LN291:
  003d7 48 03 45 10      add rax, QWORD PTR [16+rbp]            ;\\Mac\Home\Documents\Studium\6. Semester\Bachelorarbeit\Code\PerformanceTests\Enclave\E_VByte.cpp:82.8
$LN292:
  003db 48 03 45 30      add rax, QWORD PTR [48+rbp]            ;\\Mac\Home\Documents\Studium\6. Semester\Bachelorarbeit\Code\PerformanceTests\Enclave\E_VByte.cpp:82.8
$LN293:
  003df 0f b6 00         movzx eax, BYTE PTR [rax]              ;\\Mac\Home\Documents\Studium\6. Semester\Bachelorarbeit\Code\PerformanceTests\Enclave\E_VByte.cpp:82.8
$LN294:
  003e2 0f b6 c0         movzx eax, al                          ;\\Mac\Home\Documents\Studium\6. Semester\Bachelorarbeit\Code\PerformanceTests\Enclave\E_VByte.cpp:82.8
$LN295:
  003e5 3d 80 00 00 00   cmp eax, 128                           ;\\Mac\Home\Documents\Studium\6. Semester\Bachelorarbeit\Code\PerformanceTests\Enclave\E_VByte.cpp:82.8
$LN296:
  003ea 73 7a            jae .B2.11 ; Prob 50%                  ;\\Mac\Home\Documents\Studium\6. Semester\Bachelorarbeit\Code\PerformanceTests\Enclave\E_VByte.cpp:82.8
$LN297:
                                ; LOE rbx rbp rsi rdi rsp r12 r13 r14 r15 rip zmm6 zmm7 zmm8 zmm9 zmm10 zmm11 zmm12 zmm13 zmm14 zmm15
.B2.10::                        ; Preds .B2.9
                                ; Execution count [0.00e+000]
$LN298:

;;; 			*out32 = (uint32_t)(in[k] & 0x7F) | ((uint32_t)(in[k + 1] & 0x7F) << 7) | ((uint32_t)(in[k + 2] & 0x7F) << 14) | ((uint32_t)(in[k + 2] & 0x7F) << 21);

  003ec 48 8b 45 10      mov rax, QWORD PTR [16+rbp]            ;\\Mac\Home\Documents\Studium\6. Semester\Bachelorarbeit\Code\PerformanceTests\Enclave\E_VByte.cpp:83.4
$LN299:
  003f0 48 03 45 30      add rax, QWORD PTR [48+rbp]            ;\\Mac\Home\Documents\Studium\6. Semester\Bachelorarbeit\Code\PerformanceTests\Enclave\E_VByte.cpp:83.4
$LN300:
  003f4 0f b6 00         movzx eax, BYTE PTR [rax]              ;\\Mac\Home\Documents\Studium\6. Semester\Bachelorarbeit\Code\PerformanceTests\Enclave\E_VByte.cpp:83.4
$LN301:
  003f7 0f b6 c0         movzx eax, al                          ;\\Mac\Home\Documents\Studium\6. Semester\Bachelorarbeit\Code\PerformanceTests\Enclave\E_VByte.cpp:83.4
$LN302:
  003fa 83 e0 7f         and eax, 127                           ;\\Mac\Home\Documents\Studium\6. Semester\Bachelorarbeit\Code\PerformanceTests\Enclave\E_VByte.cpp:83.4
$LN303:
  003fd ba 01 00 00 00   mov edx, 1                             ;\\Mac\Home\Documents\Studium\6. Semester\Bachelorarbeit\Code\PerformanceTests\Enclave\E_VByte.cpp:83.4
$LN304:
  00402 48 03 55 10      add rdx, QWORD PTR [16+rbp]            ;\\Mac\Home\Documents\Studium\6. Semester\Bachelorarbeit\Code\PerformanceTests\Enclave\E_VByte.cpp:83.4
$LN305:
  00406 48 03 55 30      add rdx, QWORD PTR [48+rbp]            ;\\Mac\Home\Documents\Studium\6. Semester\Bachelorarbeit\Code\PerformanceTests\Enclave\E_VByte.cpp:83.4
$LN306:
  0040a 0f b6 12         movzx edx, BYTE PTR [rdx]              ;\\Mac\Home\Documents\Studium\6. Semester\Bachelorarbeit\Code\PerformanceTests\Enclave\E_VByte.cpp:83.4
$LN307:
  0040d 0f b6 d2         movzx edx, dl                          ;\\Mac\Home\Documents\Studium\6. Semester\Bachelorarbeit\Code\PerformanceTests\Enclave\E_VByte.cpp:83.4
$LN308:
  00410 83 e2 7f         and edx, 127                           ;\\Mac\Home\Documents\Studium\6. Semester\Bachelorarbeit\Code\PerformanceTests\Enclave\E_VByte.cpp:83.4
$LN309:
  00413 c1 e2 07         shl edx, 7                             ;\\Mac\Home\Documents\Studium\6. Semester\Bachelorarbeit\Code\PerformanceTests\Enclave\E_VByte.cpp:83.4
$LN310:
  00416 0b c2            or eax, edx                            ;\\Mac\Home\Documents\Studium\6. Semester\Bachelorarbeit\Code\PerformanceTests\Enclave\E_VByte.cpp:83.4
$LN311:
  00418 ba 02 00 00 00   mov edx, 2                             ;\\Mac\Home\Documents\Studium\6. Semester\Bachelorarbeit\Code\PerformanceTests\Enclave\E_VByte.cpp:83.4
$LN312:
  0041d 48 03 55 10      add rdx, QWORD PTR [16+rbp]            ;\\Mac\Home\Documents\Studium\6. Semester\Bachelorarbeit\Code\PerformanceTests\Enclave\E_VByte.cpp:83.4
$LN313:
  00421 48 03 55 30      add rdx, QWORD PTR [48+rbp]            ;\\Mac\Home\Documents\Studium\6. Semester\Bachelorarbeit\Code\PerformanceTests\Enclave\E_VByte.cpp:83.4
$LN314:
  00425 0f b6 12         movzx edx, BYTE PTR [rdx]              ;\\Mac\Home\Documents\Studium\6. Semester\Bachelorarbeit\Code\PerformanceTests\Enclave\E_VByte.cpp:83.4
$LN315:
  00428 0f b6 d2         movzx edx, dl                          ;\\Mac\Home\Documents\Studium\6. Semester\Bachelorarbeit\Code\PerformanceTests\Enclave\E_VByte.cpp:83.4
$LN316:
  0042b 83 e2 7f         and edx, 127                           ;\\Mac\Home\Documents\Studium\6. Semester\Bachelorarbeit\Code\PerformanceTests\Enclave\E_VByte.cpp:83.4
$LN317:
  0042e c1 e2 0e         shl edx, 14                            ;\\Mac\Home\Documents\Studium\6. Semester\Bachelorarbeit\Code\PerformanceTests\Enclave\E_VByte.cpp:83.4
$LN318:
  00431 0b c2            or eax, edx                            ;\\Mac\Home\Documents\Studium\6. Semester\Bachelorarbeit\Code\PerformanceTests\Enclave\E_VByte.cpp:83.4
$LN319:
  00433 ba 02 00 00 00   mov edx, 2                             ;\\Mac\Home\Documents\Studium\6. Semester\Bachelorarbeit\Code\PerformanceTests\Enclave\E_VByte.cpp:83.4
$LN320:
  00438 48 03 55 10      add rdx, QWORD PTR [16+rbp]            ;\\Mac\Home\Documents\Studium\6. Semester\Bachelorarbeit\Code\PerformanceTests\Enclave\E_VByte.cpp:83.4
$LN321:
  0043c 48 03 55 30      add rdx, QWORD PTR [48+rbp]            ;\\Mac\Home\Documents\Studium\6. Semester\Bachelorarbeit\Code\PerformanceTests\Enclave\E_VByte.cpp:83.4
$LN322:
  00440 0f b6 12         movzx edx, BYTE PTR [rdx]              ;\\Mac\Home\Documents\Studium\6. Semester\Bachelorarbeit\Code\PerformanceTests\Enclave\E_VByte.cpp:83.4
$LN323:
  00443 0f b6 d2         movzx edx, dl                          ;\\Mac\Home\Documents\Studium\6. Semester\Bachelorarbeit\Code\PerformanceTests\Enclave\E_VByte.cpp:83.4
$LN324:
  00446 83 e2 7f         and edx, 127                           ;\\Mac\Home\Documents\Studium\6. Semester\Bachelorarbeit\Code\PerformanceTests\Enclave\E_VByte.cpp:83.4
$LN325:
  00449 c1 e2 15         shl edx, 21                            ;\\Mac\Home\Documents\Studium\6. Semester\Bachelorarbeit\Code\PerformanceTests\Enclave\E_VByte.cpp:83.4
$LN326:
  0044c 0b c2            or eax, edx                            ;\\Mac\Home\Documents\Studium\6. Semester\Bachelorarbeit\Code\PerformanceTests\Enclave\E_VByte.cpp:83.4
$LN327:
  0044e 48 8b 55 00      mov rdx, QWORD PTR [rbp]               ;\\Mac\Home\Documents\Studium\6. Semester\Bachelorarbeit\Code\PerformanceTests\Enclave\E_VByte.cpp:83.4
$LN328:
  00452 89 02            mov DWORD PTR [rdx], eax               ;\\Mac\Home\Documents\Studium\6. Semester\Bachelorarbeit\Code\PerformanceTests\Enclave\E_VByte.cpp:83.4
$LN329:

;;; 			k += 4;

  00454 b8 04 00 00 00   mov eax, 4                             ;\\Mac\Home\Documents\Studium\6. Semester\Bachelorarbeit\Code\PerformanceTests\Enclave\E_VByte.cpp:84.4
$LN330:
  00459 48 03 45 10      add rax, QWORD PTR [16+rbp]            ;\\Mac\Home\Documents\Studium\6. Semester\Bachelorarbeit\Code\PerformanceTests\Enclave\E_VByte.cpp:84.4
$LN331:
  0045d 48 89 45 10      mov QWORD PTR [16+rbp], rax            ;\\Mac\Home\Documents\Studium\6. Semester\Bachelorarbeit\Code\PerformanceTests\Enclave\E_VByte.cpp:84.4
$LN332:
  00461 e9 90 00 00 00   jmp .B2.12 ; Prob 100%                 ;\\Mac\Home\Documents\Studium\6. Semester\Bachelorarbeit\Code\PerformanceTests\Enclave\E_VByte.cpp:84.4
$LN333:
                                ; LOE rbx rbp rsi rdi rsp r12 r13 r14 r15 rip zmm6 zmm7 zmm8 zmm9 zmm10 zmm11 zmm12 zmm13 zmm14 zmm15
.B2.11::                        ; Preds .B2.9
                                ; Execution count [0.00e+000]
$LN334:

;;; 		}
;;; 		else {
;;; 			*out32 = (uint32_t)(in[k] & 0x7F) | ((uint32_t)(in[k + 1] & 0x7F) << 7) | ((uint32_t)(in[k + 2] & 0x7F) << 14) | ((uint32_t)(in[k + 2] & 0x7F) << 21) | ((uint32_t)(in[k + 2] & 0x7F) << 28);

  00466 48 8b 45 10      mov rax, QWORD PTR [16+rbp]            ;\\Mac\Home\Documents\Studium\6. Semester\Bachelorarbeit\Code\PerformanceTests\Enclave\E_VByte.cpp:87.4
$LN335:
  0046a 48 03 45 30      add rax, QWORD PTR [48+rbp]            ;\\Mac\Home\Documents\Studium\6. Semester\Bachelorarbeit\Code\PerformanceTests\Enclave\E_VByte.cpp:87.4
$LN336:
  0046e 0f b6 00         movzx eax, BYTE PTR [rax]              ;\\Mac\Home\Documents\Studium\6. Semester\Bachelorarbeit\Code\PerformanceTests\Enclave\E_VByte.cpp:87.4
$LN337:
  00471 0f b6 c0         movzx eax, al                          ;\\Mac\Home\Documents\Studium\6. Semester\Bachelorarbeit\Code\PerformanceTests\Enclave\E_VByte.cpp:87.4
$LN338:
  00474 83 e0 7f         and eax, 127                           ;\\Mac\Home\Documents\Studium\6. Semester\Bachelorarbeit\Code\PerformanceTests\Enclave\E_VByte.cpp:87.4
$LN339:
  00477 ba 01 00 00 00   mov edx, 1                             ;\\Mac\Home\Documents\Studium\6. Semester\Bachelorarbeit\Code\PerformanceTests\Enclave\E_VByte.cpp:87.4
$LN340:
  0047c 48 03 55 10      add rdx, QWORD PTR [16+rbp]            ;\\Mac\Home\Documents\Studium\6. Semester\Bachelorarbeit\Code\PerformanceTests\Enclave\E_VByte.cpp:87.4
$LN341:
  00480 48 03 55 30      add rdx, QWORD PTR [48+rbp]            ;\\Mac\Home\Documents\Studium\6. Semester\Bachelorarbeit\Code\PerformanceTests\Enclave\E_VByte.cpp:87.4
$LN342:
  00484 0f b6 12         movzx edx, BYTE PTR [rdx]              ;\\Mac\Home\Documents\Studium\6. Semester\Bachelorarbeit\Code\PerformanceTests\Enclave\E_VByte.cpp:87.4
$LN343:
  00487 0f b6 d2         movzx edx, dl                          ;\\Mac\Home\Documents\Studium\6. Semester\Bachelorarbeit\Code\PerformanceTests\Enclave\E_VByte.cpp:87.4
$LN344:
  0048a 83 e2 7f         and edx, 127                           ;\\Mac\Home\Documents\Studium\6. Semester\Bachelorarbeit\Code\PerformanceTests\Enclave\E_VByte.cpp:87.4
$LN345:
  0048d c1 e2 07         shl edx, 7                             ;\\Mac\Home\Documents\Studium\6. Semester\Bachelorarbeit\Code\PerformanceTests\Enclave\E_VByte.cpp:87.4
$LN346:
  00490 0b c2            or eax, edx                            ;\\Mac\Home\Documents\Studium\6. Semester\Bachelorarbeit\Code\PerformanceTests\Enclave\E_VByte.cpp:87.4
$LN347:
  00492 ba 02 00 00 00   mov edx, 2                             ;\\Mac\Home\Documents\Studium\6. Semester\Bachelorarbeit\Code\PerformanceTests\Enclave\E_VByte.cpp:87.4
$LN348:
  00497 48 03 55 10      add rdx, QWORD PTR [16+rbp]            ;\\Mac\Home\Documents\Studium\6. Semester\Bachelorarbeit\Code\PerformanceTests\Enclave\E_VByte.cpp:87.4
$LN349:
  0049b 48 03 55 30      add rdx, QWORD PTR [48+rbp]            ;\\Mac\Home\Documents\Studium\6. Semester\Bachelorarbeit\Code\PerformanceTests\Enclave\E_VByte.cpp:87.4
$LN350:
  0049f 0f b6 12         movzx edx, BYTE PTR [rdx]              ;\\Mac\Home\Documents\Studium\6. Semester\Bachelorarbeit\Code\PerformanceTests\Enclave\E_VByte.cpp:87.4
$LN351:
  004a2 0f b6 d2         movzx edx, dl                          ;\\Mac\Home\Documents\Studium\6. Semester\Bachelorarbeit\Code\PerformanceTests\Enclave\E_VByte.cpp:87.4
$LN352:
  004a5 83 e2 7f         and edx, 127                           ;\\Mac\Home\Documents\Studium\6. Semester\Bachelorarbeit\Code\PerformanceTests\Enclave\E_VByte.cpp:87.4
$LN353:
  004a8 c1 e2 0e         shl edx, 14                            ;\\Mac\Home\Documents\Studium\6. Semester\Bachelorarbeit\Code\PerformanceTests\Enclave\E_VByte.cpp:87.4
$LN354:
  004ab 0b c2            or eax, edx                            ;\\Mac\Home\Documents\Studium\6. Semester\Bachelorarbeit\Code\PerformanceTests\Enclave\E_VByte.cpp:87.4
$LN355:
  004ad ba 02 00 00 00   mov edx, 2                             ;\\Mac\Home\Documents\Studium\6. Semester\Bachelorarbeit\Code\PerformanceTests\Enclave\E_VByte.cpp:87.4
$LN356:
  004b2 48 03 55 10      add rdx, QWORD PTR [16+rbp]            ;\\Mac\Home\Documents\Studium\6. Semester\Bachelorarbeit\Code\PerformanceTests\Enclave\E_VByte.cpp:87.4
$LN357:
  004b6 48 03 55 30      add rdx, QWORD PTR [48+rbp]            ;\\Mac\Home\Documents\Studium\6. Semester\Bachelorarbeit\Code\PerformanceTests\Enclave\E_VByte.cpp:87.4
$LN358:
  004ba 0f b6 12         movzx edx, BYTE PTR [rdx]              ;\\Mac\Home\Documents\Studium\6. Semester\Bachelorarbeit\Code\PerformanceTests\Enclave\E_VByte.cpp:87.4
$LN359:
  004bd 0f b6 d2         movzx edx, dl                          ;\\Mac\Home\Documents\Studium\6. Semester\Bachelorarbeit\Code\PerformanceTests\Enclave\E_VByte.cpp:87.4
$LN360:
  004c0 83 e2 7f         and edx, 127                           ;\\Mac\Home\Documents\Studium\6. Semester\Bachelorarbeit\Code\PerformanceTests\Enclave\E_VByte.cpp:87.4
$LN361:
  004c3 c1 e2 15         shl edx, 21                            ;\\Mac\Home\Documents\Studium\6. Semester\Bachelorarbeit\Code\PerformanceTests\Enclave\E_VByte.cpp:87.4
$LN362:
  004c6 0b c2            or eax, edx                            ;\\Mac\Home\Documents\Studium\6. Semester\Bachelorarbeit\Code\PerformanceTests\Enclave\E_VByte.cpp:87.4
$LN363:
  004c8 ba 02 00 00 00   mov edx, 2                             ;\\Mac\Home\Documents\Studium\6. Semester\Bachelorarbeit\Code\PerformanceTests\Enclave\E_VByte.cpp:87.4
$LN364:
  004cd 48 03 55 10      add rdx, QWORD PTR [16+rbp]            ;\\Mac\Home\Documents\Studium\6. Semester\Bachelorarbeit\Code\PerformanceTests\Enclave\E_VByte.cpp:87.4
$LN365:
  004d1 48 03 55 30      add rdx, QWORD PTR [48+rbp]            ;\\Mac\Home\Documents\Studium\6. Semester\Bachelorarbeit\Code\PerformanceTests\Enclave\E_VByte.cpp:87.4
$LN366:
  004d5 0f b6 12         movzx edx, BYTE PTR [rdx]              ;\\Mac\Home\Documents\Studium\6. Semester\Bachelorarbeit\Code\PerformanceTests\Enclave\E_VByte.cpp:87.4
$LN367:
  004d8 0f b6 d2         movzx edx, dl                          ;\\Mac\Home\Documents\Studium\6. Semester\Bachelorarbeit\Code\PerformanceTests\Enclave\E_VByte.cpp:87.4
$LN368:
  004db 83 e2 7f         and edx, 127                           ;\\Mac\Home\Documents\Studium\6. Semester\Bachelorarbeit\Code\PerformanceTests\Enclave\E_VByte.cpp:87.4
$LN369:
  004de c1 e2 1c         shl edx, 28                            ;\\Mac\Home\Documents\Studium\6. Semester\Bachelorarbeit\Code\PerformanceTests\Enclave\E_VByte.cpp:87.4
$LN370:
  004e1 0b c2            or eax, edx                            ;\\Mac\Home\Documents\Studium\6. Semester\Bachelorarbeit\Code\PerformanceTests\Enclave\E_VByte.cpp:87.4
$LN371:
  004e3 48 8b 55 00      mov rdx, QWORD PTR [rbp]               ;\\Mac\Home\Documents\Studium\6. Semester\Bachelorarbeit\Code\PerformanceTests\Enclave\E_VByte.cpp:87.4
$LN372:
  004e7 89 02            mov DWORD PTR [rdx], eax               ;\\Mac\Home\Documents\Studium\6. Semester\Bachelorarbeit\Code\PerformanceTests\Enclave\E_VByte.cpp:87.4
$LN373:

;;; 			k += 5;

  004e9 b8 05 00 00 00   mov eax, 5                             ;\\Mac\Home\Documents\Studium\6. Semester\Bachelorarbeit\Code\PerformanceTests\Enclave\E_VByte.cpp:88.4
$LN374:
  004ee 48 03 45 10      add rax, QWORD PTR [16+rbp]            ;\\Mac\Home\Documents\Studium\6. Semester\Bachelorarbeit\Code\PerformanceTests\Enclave\E_VByte.cpp:88.4
$LN375:
  004f2 48 89 45 10      mov QWORD PTR [16+rbp], rax            ;\\Mac\Home\Documents\Studium\6. Semester\Bachelorarbeit\Code\PerformanceTests\Enclave\E_VByte.cpp:88.4
$LN376:
                                ; LOE rbx rbp rsi rdi rsp r12 r13 r14 r15 rip zmm6 zmm7 zmm8 zmm9 zmm10 zmm11 zmm12 zmm13 zmm14 zmm15
.B2.12::                        ; Preds .B2.4 .B2.6 .B2.8 .B2.10 .B2.11
                                ;      
                                ; Execution count [0.00e+000]
$LN377:

;;; 		}
;;; 		out32++;

  004f6 b8 04 00 00 00   mov eax, 4                             ;\\Mac\Home\Documents\Studium\6. Semester\Bachelorarbeit\Code\PerformanceTests\Enclave\E_VByte.cpp:90.3
$LN378:
  004fb 48 03 45 00      add rax, QWORD PTR [rbp]               ;\\Mac\Home\Documents\Studium\6. Semester\Bachelorarbeit\Code\PerformanceTests\Enclave\E_VByte.cpp:90.3
$LN379:
  004ff 48 89 45 00      mov QWORD PTR [rbp], rax               ;\\Mac\Home\Documents\Studium\6. Semester\Bachelorarbeit\Code\PerformanceTests\Enclave\E_VByte.cpp:90.3
$LN380:
  00503 e9 a4 fd ff ff   jmp .B2.2 ; Prob 100%                  ;\\Mac\Home\Documents\Studium\6. Semester\Bachelorarbeit\Code\PerformanceTests\Enclave\E_VByte.cpp:90.3
$LN381:
                                ; LOE rbx rbp rsi rdi rsp r12 r13 r14 r15 rip zmm6 zmm7 zmm8 zmm9 zmm10 zmm11 zmm12 zmm13 zmm14 zmm15
.B2.13::                        ; Preds .B2.2
                                ; Execution count [0.00e+000]
$LN382:

;;; 	}
;;; 
;;; 	return (out32 - initOut) * sizeof(uint32_t);

  00508 48 8b 45 08      mov rax, QWORD PTR [8+rbp]             ;\\Mac\Home\Documents\Studium\6. Semester\Bachelorarbeit\Code\PerformanceTests\Enclave\E_VByte.cpp:93.2
$LN383:
  0050c 48 f7 d8         neg rax                                ;\\Mac\Home\Documents\Studium\6. Semester\Bachelorarbeit\Code\PerformanceTests\Enclave\E_VByte.cpp:93.2
$LN384:
  0050f 48 03 45 00      add rax, QWORD PTR [rbp]               ;\\Mac\Home\Documents\Studium\6. Semester\Bachelorarbeit\Code\PerformanceTests\Enclave\E_VByte.cpp:93.2
$LN385:
  00513 48 c1 f8 02      sar rax, 2                             ;\\Mac\Home\Documents\Studium\6. Semester\Bachelorarbeit\Code\PerformanceTests\Enclave\E_VByte.cpp:93.2
$LN386:
  00517 48 6b c0 04      imul rax, rax, 4                       ;\\Mac\Home\Documents\Studium\6. Semester\Bachelorarbeit\Code\PerformanceTests\Enclave\E_VByte.cpp:93.2
$LN387:
  0051b 48 8d 65 20      lea rsp, QWORD PTR [32+rbp]            ;\\Mac\Home\Documents\Studium\6. Semester\Bachelorarbeit\Code\PerformanceTests\Enclave\E_VByte.cpp:93.2
$LN388:
  0051f 5d               pop rbp                                ;\\Mac\Home\Documents\Studium\6. Semester\Bachelorarbeit\Code\PerformanceTests\Enclave\E_VByte.cpp:93.2
$LN389:
  00520 c3               ret                                    ;\\Mac\Home\Documents\Studium\6. Semester\Bachelorarbeit\Code\PerformanceTests\Enclave\E_VByte.cpp:93.2
$LN390:
                                ; LOE
.B2.14::
$LN391:
; mark_end;
enclaveVByteDecode ENDP
$LNenclaveVByteDecode$392:
$LNenclaveVByteDecode$393:
_TEXT	ENDS
.xdata	SEGMENT  DWORD   READ  ''
	ALIGN 004H
.unwind.enclaveVByteDecode.B1_B13	DD	620956161
	DD	1912931082
	DD	20481
.xdata	ENDS
.pdata	SEGMENT  DWORD   READ  ''
	ALIGN 004H
.pdata.enclaveVByteDecode.B1_B13	DD	imagerel .B2.1
	DD	imagerel .B2.14
	DD	imagerel .unwind.enclaveVByteDecode.B1_B13
.pdata	ENDS
_DATA	SEGMENT      'DATA'
_DATA	ENDS
; -- End  enclaveVByteDecode
_TEXT	SEGMENT      'CODE'
_2__routine_start_enclaveVByteEncodeEncrypted_7:
; -- Begin  enclaveVByteEncodeEncrypted
_TEXT	ENDS
_TEXT	SEGMENT      'CODE'
; mark_begin;

	PUBLIC enclaveVByteEncodeEncrypted
; --- enclaveVByteEncodeEncrypted(uint8_t *, size_t, uint8_t *)
enclaveVByteEncodeEncrypted	PROC 
; parameter 1(in): rcx
; parameter 2(length): rdx
; parameter 3(out): r8
.B3.1::                         ; Preds .B3.0
                                ; Execution count [0.00e+000]

;;; {

L14::
                                                          ;\\Mac\Home\Documents\Studium\6. Semester\Bachelorarbeit\Code\PerformanceTests\Enclave\E_VByte.cpp:97.1
$LN394:
  00521 55               push rbp                               ;\\Mac\Home\Documents\Studium\6. Semester\Bachelorarbeit\Code\PerformanceTests\Enclave\E_VByte.cpp:97.1
$LN395:
  00522 48 81 ec b0 00 
        00 00            sub rsp, 176                           ;\\Mac\Home\Documents\Studium\6. Semester\Bachelorarbeit\Code\PerformanceTests\Enclave\E_VByte.cpp:97.1
$LN396:
  00529 48 8d 6c 24 30   lea rbp, QWORD PTR [48+rsp]            ;\\Mac\Home\Documents\Studium\6. Semester\Bachelorarbeit\Code\PerformanceTests\Enclave\E_VByte.cpp:97.1
$LN397:
  0052e 48 89 75 50      mov QWORD PTR [80+rbp], rsi            ;\\Mac\Home\Documents\Studium\6. Semester\Bachelorarbeit\Code\PerformanceTests\Enclave\E_VByte.cpp:97.1[spill]
$LN398:
  00532 48 89 5d 48      mov QWORD PTR [72+rbp], rbx            ;\\Mac\Home\Documents\Studium\6. Semester\Bachelorarbeit\Code\PerformanceTests\Enclave\E_VByte.cpp:97.1[spill]
$LN399:
  00536 48 89 8d 90 00 
        00 00            mov QWORD PTR [144+rbp], rcx           ;\\Mac\Home\Documents\Studium\6. Semester\Bachelorarbeit\Code\PerformanceTests\Enclave\E_VByte.cpp:97.1
$LN400:
  0053d 48 89 95 98 00 
        00 00            mov QWORD PTR [152+rbp], rdx           ;\\Mac\Home\Documents\Studium\6. Semester\Bachelorarbeit\Code\PerformanceTests\Enclave\E_VByte.cpp:97.1
$LN401:
  00544 4c 89 85 a0 00 
        00 00            mov QWORD PTR [160+rbp], r8            ;\\Mac\Home\Documents\Studium\6. Semester\Bachelorarbeit\Code\PerformanceTests\Enclave\E_VByte.cpp:97.1
$LN402:
  0054b 48 8b 05 00 00 
        00 00            mov rax, QWORD PTR [__security_cookie] ;\\Mac\Home\Documents\Studium\6. Semester\Bachelorarbeit\Code\PerformanceTests\Enclave\E_VByte.cpp:97.1
$LN403:
  00552 48 33 c5         xor rax, rbp                           ;\\Mac\Home\Documents\Studium\6. Semester\Bachelorarbeit\Code\PerformanceTests\Enclave\E_VByte.cpp:97.1
$LN404:
  00555 48 89 45 78      mov QWORD PTR [120+rbp], rax           ;\\Mac\Home\Documents\Studium\6. Semester\Bachelorarbeit\Code\PerformanceTests\Enclave\E_VByte.cpp:97.1
$LN405:

;;; 	uint8_t key[AES_KEY_SIZE] = "123456789012345";

  00559 48 8d 45 58      lea rax, QWORD PTR [88+rbp]            ;\\Mac\Home\Documents\Studium\6. Semester\Bachelorarbeit\Code\PerformanceTests\Enclave\E_VByte.cpp:98.28
$LN406:
  0055d 48 ba 31 32 33 
        34 35 36 37 38   mov rdx, 03837363534333231H            ;\\Mac\Home\Documents\Studium\6. Semester\Bachelorarbeit\Code\PerformanceTests\Enclave\E_VByte.cpp:98.28
$LN407:
  00567 48 89 10         mov QWORD PTR [rax], rdx               ;\\Mac\Home\Documents\Studium\6. Semester\Bachelorarbeit\Code\PerformanceTests\Enclave\E_VByte.cpp:98.28
$LN408:
  0056a 48 8d 45 58      lea rax, QWORD PTR [88+rbp]            ;\\Mac\Home\Documents\Studium\6. Semester\Bachelorarbeit\Code\PerformanceTests\Enclave\E_VByte.cpp:98.28
$LN409:
  0056e 48 83 c0 08      add rax, 8                             ;\\Mac\Home\Documents\Studium\6. Semester\Bachelorarbeit\Code\PerformanceTests\Enclave\E_VByte.cpp:98.28
$LN410:
  00572 48 ba 39 30 31 
        32 33 34 35 00   mov rdx, 035343332313039H              ;\\Mac\Home\Documents\Studium\6. Semester\Bachelorarbeit\Code\PerformanceTests\Enclave\E_VByte.cpp:98.28
$LN411:
  0057c 48 89 10         mov QWORD PTR [rax], rdx               ;\\Mac\Home\Documents\Studium\6. Semester\Bachelorarbeit\Code\PerformanceTests\Enclave\E_VByte.cpp:98.28
$LN412:

;;; 	uint8_t iv[AES_BLOCK_SIZE] = "123456789012345";

  0057f 48 8d 45 68      lea rax, QWORD PTR [104+rbp]           ;\\Mac\Home\Documents\Studium\6. Semester\Bachelorarbeit\Code\PerformanceTests\Enclave\E_VByte.cpp:99.29
$LN413:
  00583 48 ba 31 32 33 
        34 35 36 37 38   mov rdx, 03837363534333231H            ;\\Mac\Home\Documents\Studium\6. Semester\Bachelorarbeit\Code\PerformanceTests\Enclave\E_VByte.cpp:99.29
$LN414:
  0058d 48 89 10         mov QWORD PTR [rax], rdx               ;\\Mac\Home\Documents\Studium\6. Semester\Bachelorarbeit\Code\PerformanceTests\Enclave\E_VByte.cpp:99.29
$LN415:
  00590 48 8d 45 68      lea rax, QWORD PTR [104+rbp]           ;\\Mac\Home\Documents\Studium\6. Semester\Bachelorarbeit\Code\PerformanceTests\Enclave\E_VByte.cpp:99.29
$LN416:
  00594 48 83 c0 08      add rax, 8                             ;\\Mac\Home\Documents\Studium\6. Semester\Bachelorarbeit\Code\PerformanceTests\Enclave\E_VByte.cpp:99.29
$LN417:
  00598 48 ba 39 30 31 
        32 33 34 35 00   mov rdx, 035343332313039H              ;\\Mac\Home\Documents\Studium\6. Semester\Bachelorarbeit\Code\PerformanceTests\Enclave\E_VByte.cpp:99.29
$LN418:
  005a2 48 89 10         mov QWORD PTR [rax], rdx               ;\\Mac\Home\Documents\Studium\6. Semester\Bachelorarbeit\Code\PerformanceTests\Enclave\E_VByte.cpp:99.29
$LN419:

;;; 
;;; 	size_t encodedLength = (length / sizeof(uint32_t)) * 5;

  005a5 48 8b 85 98 00 
        00 00            mov rax, QWORD PTR [152+rbp]           ;\\Mac\Home\Documents\Studium\6. Semester\Bachelorarbeit\Code\PerformanceTests\Enclave\E_VByte.cpp:101.23
$LN420:
  005ac 48 c1 e8 02      shr rax, 2                             ;\\Mac\Home\Documents\Studium\6. Semester\Bachelorarbeit\Code\PerformanceTests\Enclave\E_VByte.cpp:101.23
$LN421:
  005b0 48 6b c0 05      imul rax, rax, 5                       ;\\Mac\Home\Documents\Studium\6. Semester\Bachelorarbeit\Code\PerformanceTests\Enclave\E_VByte.cpp:101.23
$LN422:
  005b4 48 89 45 08      mov QWORD PTR [8+rbp], rax             ;\\Mac\Home\Documents\Studium\6. Semester\Bachelorarbeit\Code\PerformanceTests\Enclave\E_VByte.cpp:101.23
$LN423:

;;; 	uint8_t *encoded = new uint8_t[encodedLength];

  005b8 48 8b 45 08      mov rax, QWORD PTR [8+rbp]             ;\\Mac\Home\Documents\Studium\6. Semester\Bachelorarbeit\Code\PerformanceTests\Enclave\E_VByte.cpp:102.19
$LN424:
  005bc 48 89 c1         mov rcx, rax                           ;\\Mac\Home\Documents\Studium\6. Semester\Bachelorarbeit\Code\PerformanceTests\Enclave\E_VByte.cpp:102.19
$LN425:
  005bf e8 fc ff ff ff  ;       operator new(unsigned __int64)
        call      ??2@YAPEAX_K@Z                                ;\\Mac\Home\Documents\Studium\6. Semester\Bachelorarbeit\Code\PerformanceTests\Enclave\E_VByte.cpp:102.19
$LN426:
                                ; LOE rax rbp rdi rsp r12 r13 r14 r15 rip zmm6 zmm7 zmm8 zmm9 zmm10 zmm11 zmm12 zmm13 zmm14 zmm15
.B3.8::                         ; Preds .B3.1
                                ; Execution count [0.00e+000]
$LN427:
  005c4 48 89 45 10      mov QWORD PTR [16+rbp], rax            ;\\Mac\Home\Documents\Studium\6. Semester\Bachelorarbeit\Code\PerformanceTests\Enclave\E_VByte.cpp:102.19
$LN428:
                                ; LOE rbp rdi rsp r12 r13 r14 r15 rip zmm6 zmm7 zmm8 zmm9 zmm10 zmm11 zmm12 zmm13 zmm14 zmm15
.B3.2::                         ; Preds .B3.8
                                ; Execution count [0.00e+000]
$LN429:
  005c8 48 8b 45 10      mov rax, QWORD PTR [16+rbp]            ;\\Mac\Home\Documents\Studium\6. Semester\Bachelorarbeit\Code\PerformanceTests\Enclave\E_VByte.cpp:102.19
$LN430:
  005cc 48 89 45 18      mov QWORD PTR [24+rbp], rax            ;\\Mac\Home\Documents\Studium\6. Semester\Bachelorarbeit\Code\PerformanceTests\Enclave\E_VByte.cpp:102.19
$LN431:

;;; 
;;; 	size_t encLength = enclaveVByteEncode(in, length, encoded, encodedLength);

  005d0 48 8b 85 90 00 
        00 00            mov rax, QWORD PTR [144+rbp]           ;\\Mac\Home\Documents\Studium\6. Semester\Bachelorarbeit\Code\PerformanceTests\Enclave\E_VByte.cpp:104.19
$LN432:
  005d7 48 8b 95 98 00 
        00 00            mov rdx, QWORD PTR [152+rbp]           ;\\Mac\Home\Documents\Studium\6. Semester\Bachelorarbeit\Code\PerformanceTests\Enclave\E_VByte.cpp:104.19
$LN433:
  005de 48 8b 4d 18      mov rcx, QWORD PTR [24+rbp]            ;\\Mac\Home\Documents\Studium\6. Semester\Bachelorarbeit\Code\PerformanceTests\Enclave\E_VByte.cpp:104.19
$LN434:
  005e2 48 8b 5d 08      mov rbx, QWORD PTR [8+rbp]             ;\\Mac\Home\Documents\Studium\6. Semester\Bachelorarbeit\Code\PerformanceTests\Enclave\E_VByte.cpp:104.19
$LN435:
  005e6 48 89 4d 38      mov QWORD PTR [56+rbp], rcx            ;\\Mac\Home\Documents\Studium\6. Semester\Bachelorarbeit\Code\PerformanceTests\Enclave\E_VByte.cpp:104.19[spill]
$LN436:
  005ea 48 89 c1         mov rcx, rax                           ;\\Mac\Home\Documents\Studium\6. Semester\Bachelorarbeit\Code\PerformanceTests\Enclave\E_VByte.cpp:104.19
$LN437:
  005ed 48 8b 45 38      mov rax, QWORD PTR [56+rbp]            ;\\Mac\Home\Documents\Studium\6. Semester\Bachelorarbeit\Code\PerformanceTests\Enclave\E_VByte.cpp:104.19[spill]
$LN438:
  005f1 49 89 c0         mov r8, rax                            ;\\Mac\Home\Documents\Studium\6. Semester\Bachelorarbeit\Code\PerformanceTests\Enclave\E_VByte.cpp:104.19
$LN439:
  005f4 49 89 d9         mov r9, rbx                            ;\\Mac\Home\Documents\Studium\6. Semester\Bachelorarbeit\Code\PerformanceTests\Enclave\E_VByte.cpp:104.19
$LN440:
  005f7 e8 fc ff ff ff  ;       enclaveVByteEncode(uint8_t *, size_t, uint8_t *, size_t)
        call      enclaveVByteEncode                            ;\\Mac\Home\Documents\Studium\6. Semester\Bachelorarbeit\Code\PerformanceTests\Enclave\E_VByte.cpp:104.19
$LN441:
                                ; LOE rax rbp rdi rsp r12 r13 r14 r15 rip zmm6 zmm7 zmm8 zmm9 zmm10 zmm11 zmm12 zmm13 zmm14 zmm15
.B3.9::                         ; Preds .B3.2
                                ; Execution count [0.00e+000]
$LN442:
  005fc 48 89 45 20      mov QWORD PTR [32+rbp], rax            ;\\Mac\Home\Documents\Studium\6. Semester\Bachelorarbeit\Code\PerformanceTests\Enclave\E_VByte.cpp:104.19
$LN443:
                                ; LOE rbp rdi rsp r12 r13 r14 r15 rip zmm6 zmm7 zmm8 zmm9 zmm10 zmm11 zmm12 zmm13 zmm14 zmm15
.B3.3::                         ; Preds .B3.9
                                ; Execution count [0.00e+000]
$LN444:
  00600 48 8b 45 20      mov rax, QWORD PTR [32+rbp]            ;\\Mac\Home\Documents\Studium\6. Semester\Bachelorarbeit\Code\PerformanceTests\Enclave\E_VByte.cpp:104.19
$LN445:
  00604 48 89 45 28      mov QWORD PTR [40+rbp], rax            ;\\Mac\Home\Documents\Studium\6. Semester\Bachelorarbeit\Code\PerformanceTests\Enclave\E_VByte.cpp:104.19
$LN446:

;;; 
;;; 	encryptBytes(encoded, encLength, out, key, AES_KEY_SIZE, iv);

  00608 48 8b 45 18      mov rax, QWORD PTR [24+rbp]            ;\\Mac\Home\Documents\Studium\6. Semester\Bachelorarbeit\Code\PerformanceTests\Enclave\E_VByte.cpp:106.2
$LN447:
  0060c 48 8b 55 28      mov rdx, QWORD PTR [40+rbp]            ;\\Mac\Home\Documents\Studium\6. Semester\Bachelorarbeit\Code\PerformanceTests\Enclave\E_VByte.cpp:106.2
$LN448:
  00610 48 8b 8d a0 00 
        00 00            mov rcx, QWORD PTR [160+rbp]           ;\\Mac\Home\Documents\Studium\6. Semester\Bachelorarbeit\Code\PerformanceTests\Enclave\E_VByte.cpp:106.2
$LN449:
  00617 48 8d 5d 58      lea rbx, QWORD PTR [88+rbp]            ;\\Mac\Home\Documents\Studium\6. Semester\Bachelorarbeit\Code\PerformanceTests\Enclave\E_VByte.cpp:106.2
$LN450:
  0061b 48 c7 44 24 20 
        10 00 00 00      mov QWORD PTR [32+rsp], 16             ;\\Mac\Home\Documents\Studium\6. Semester\Bachelorarbeit\Code\PerformanceTests\Enclave\E_VByte.cpp:106.2
$LN451:
  00624 48 8d 75 68      lea rsi, QWORD PTR [104+rbp]           ;\\Mac\Home\Documents\Studium\6. Semester\Bachelorarbeit\Code\PerformanceTests\Enclave\E_VByte.cpp:106.2
$LN452:
  00628 48 89 74 24 28   mov QWORD PTR [40+rsp], rsi            ;\\Mac\Home\Documents\Studium\6. Semester\Bachelorarbeit\Code\PerformanceTests\Enclave\E_VByte.cpp:106.2
$LN453:
  0062d 48 89 4d 40      mov QWORD PTR [64+rbp], rcx            ;\\Mac\Home\Documents\Studium\6. Semester\Bachelorarbeit\Code\PerformanceTests\Enclave\E_VByte.cpp:106.2[spill]
$LN454:
  00631 48 89 c1         mov rcx, rax                           ;\\Mac\Home\Documents\Studium\6. Semester\Bachelorarbeit\Code\PerformanceTests\Enclave\E_VByte.cpp:106.2
$LN455:
  00634 48 8b 45 40      mov rax, QWORD PTR [64+rbp]            ;\\Mac\Home\Documents\Studium\6. Semester\Bachelorarbeit\Code\PerformanceTests\Enclave\E_VByte.cpp:106.2[spill]
$LN456:
  00638 49 89 c0         mov r8, rax                            ;\\Mac\Home\Documents\Studium\6. Semester\Bachelorarbeit\Code\PerformanceTests\Enclave\E_VByte.cpp:106.2
$LN457:
  0063b 49 89 d9         mov r9, rbx                            ;\\Mac\Home\Documents\Studium\6. Semester\Bachelorarbeit\Code\PerformanceTests\Enclave\E_VByte.cpp:106.2
$LN458:
  0063e e8 fc ff ff ff  ;       encryptBytes(uint8_t *, size_t, uint8_t *, const uint8_t *, size_t, uint8_t *)
        call      encryptBytes                                  ;\\Mac\Home\Documents\Studium\6. Semester\Bachelorarbeit\Code\PerformanceTests\Enclave\E_VByte.cpp:106.2
$LN459:
                                ; LOE rbp rdi rsp r12 r13 r14 r15 rip eax zmm6 zmm7 zmm8 zmm9 zmm10 zmm11 zmm12 zmm13 zmm14 zmm15
.B3.10::                        ; Preds .B3.3
                                ; Execution count [0.00e+000]
$LN460:
  00643 89 45 00         mov DWORD PTR [rbp], eax               ;\\Mac\Home\Documents\Studium\6. Semester\Bachelorarbeit\Code\PerformanceTests\Enclave\E_VByte.cpp:106.2
$LN461:
                                ; LOE rbp rdi rsp r12 r13 r14 r15 rip zmm6 zmm7 zmm8 zmm9 zmm10 zmm11 zmm12 zmm13 zmm14 zmm15
.B3.4::                         ; Preds .B3.10
                                ; Execution count [0.00e+000]
$LN462:

;;; 
;;; 	delete[] encoded;

  00646 48 8b 45 18      mov rax, QWORD PTR [24+rbp]            ;\\Mac\Home\Documents\Studium\6. Semester\Bachelorarbeit\Code\PerformanceTests\Enclave\E_VByte.cpp:108.2
$LN463:
  0064a 48 89 c1         mov rcx, rax                           ;\\Mac\Home\Documents\Studium\6. Semester\Bachelorarbeit\Code\PerformanceTests\Enclave\E_VByte.cpp:108.2
$LN464:
  0064d e8 fc ff ff ff  ;       operator delete(void *)
        call      ??3@YAXPEAX@Z                                 ;\\Mac\Home\Documents\Studium\6. Semester\Bachelorarbeit\Code\PerformanceTests\Enclave\E_VByte.cpp:108.2
$LN465:
                                ; LOE rbp rdi rsp r12 r13 r14 r15 rip zmm6 zmm7 zmm8 zmm9 zmm10 zmm11 zmm12 zmm13 zmm14 zmm15
.B3.11::                        ; Preds .B3.4
                                ; Execution count [0.00e+000]
$LN466:
                                ; LOE rbp rdi rsp r12 r13 r14 r15 rip zmm6 zmm7 zmm8 zmm9 zmm10 zmm11 zmm12 zmm13 zmm14 zmm15
.B3.5::                         ; Preds .B3.11
                                ; Execution count [0.00e+000]
$LN467:

;;; 
;;; 	return encLength + AES_BLOCK_SIZE;

  00652 b8 10 00 00 00   mov eax, 16                            ;\\Mac\Home\Documents\Studium\6. Semester\Bachelorarbeit\Code\PerformanceTests\Enclave\E_VByte.cpp:110.2
$LN468:
  00657 48 03 45 28      add rax, QWORD PTR [40+rbp]            ;\\Mac\Home\Documents\Studium\6. Semester\Bachelorarbeit\Code\PerformanceTests\Enclave\E_VByte.cpp:110.2
$LN469:
  0065b 48 89 45 30      mov QWORD PTR [48+rbp], rax            ;\\Mac\Home\Documents\Studium\6. Semester\Bachelorarbeit\Code\PerformanceTests\Enclave\E_VByte.cpp:110.2[spill]
$LN470:
  0065f 48 8b 45 78      mov rax, QWORD PTR [120+rbp]           ;\\Mac\Home\Documents\Studium\6. Semester\Bachelorarbeit\Code\PerformanceTests\Enclave\E_VByte.cpp:110.2
$LN471:
  00663 48 33 c5         xor rax, rbp                           ;\\Mac\Home\Documents\Studium\6. Semester\Bachelorarbeit\Code\PerformanceTests\Enclave\E_VByte.cpp:110.2
$LN472:
  00666 48 89 c1         mov rcx, rax                           ;\\Mac\Home\Documents\Studium\6. Semester\Bachelorarbeit\Code\PerformanceTests\Enclave\E_VByte.cpp:110.2
$LN473:
  00669 e8 fc ff ff ff   call __security_check_cookie           ;\\Mac\Home\Documents\Studium\6. Semester\Bachelorarbeit\Code\PerformanceTests\Enclave\E_VByte.cpp:110.2
$LN474:
                                ; LOE rbp rdi rsp r12 r13 r14 r15 rip zmm6 zmm7 zmm8 zmm9 zmm10 zmm11 zmm12 zmm13 zmm14 zmm15
.B3.12::                        ; Preds .B3.5
                                ; Execution count [0.00e+000]
$LN475:
  0066e 48 8b 45 30      mov rax, QWORD PTR [48+rbp]            ;\\Mac\Home\Documents\Studium\6. Semester\Bachelorarbeit\Code\PerformanceTests\Enclave\E_VByte.cpp:110.2[spill]
$LN476:
  00672 48 8b 5d 48      mov rbx, QWORD PTR [72+rbp]            ;\\Mac\Home\Documents\Studium\6. Semester\Bachelorarbeit\Code\PerformanceTests\Enclave\E_VByte.cpp:110.2[spill]
$LN477:
  00676 48 8b 75 50      mov rsi, QWORD PTR [80+rbp]            ;\\Mac\Home\Documents\Studium\6. Semester\Bachelorarbeit\Code\PerformanceTests\Enclave\E_VByte.cpp:110.2[spill]
$LN478:
  0067a 48 8d a5 80 00 
        00 00            lea rsp, QWORD PTR [128+rbp]           ;\\Mac\Home\Documents\Studium\6. Semester\Bachelorarbeit\Code\PerformanceTests\Enclave\E_VByte.cpp:110.2
$LN479:
  00681 5d               pop rbp                                ;\\Mac\Home\Documents\Studium\6. Semester\Bachelorarbeit\Code\PerformanceTests\Enclave\E_VByte.cpp:110.2
$LN480:
  00682 c3               ret                                    ;\\Mac\Home\Documents\Studium\6. Semester\Bachelorarbeit\Code\PerformanceTests\Enclave\E_VByte.cpp:110.2
$LN481:
                                ; LOE
.B3.6::
$LN482:
; mark_end;
enclaveVByteEncodeEncrypted ENDP
$LNenclaveVByteEncodeEncrypted$483:
$LNenclaveVByteEncodeEncrypted$484:
_TEXT	ENDS
.xdata	SEGMENT  DWORD   READ  ''
	ALIGN 004H
.unwind.enclaveVByteEncodeEncrypted.B1_B12	DD	889722113
	DD	996373
	DD	1074193
	DD	17302285
	DD	1342242838
.xdata	ENDS
.pdata	SEGMENT  DWORD   READ  ''
	ALIGN 004H
.pdata.enclaveVByteEncodeEncrypted.B1_B12	DD	imagerel .B3.1
	DD	imagerel .B3.6
	DD	imagerel .unwind.enclaveVByteEncodeEncrypted.B1_B12
.pdata	ENDS
_RDATA	SEGMENT     READ  'DATA'
	ALIGN 004H
key.81.0	DD	875770417
	DD	943142453
	DD	842084409
	DD	3486771
iv.81.0	DD	875770417
	DD	943142453
	DD	842084409
	DD	3486771
_RDATA	ENDS
_DATA	SEGMENT      'DATA'
_DATA	ENDS
; -- End  enclaveVByteEncodeEncrypted
_TEXT	SEGMENT      'CODE'
_2__routine_start_enclaveVByteDecodeEncrypted_8:
; -- Begin  enclaveVByteDecodeEncrypted
_TEXT	ENDS
_TEXT	SEGMENT      'CODE'
; mark_begin;

	PUBLIC enclaveVByteDecodeEncrypted
; --- enclaveVByteDecodeEncrypted(uint8_t *, size_t, uint8_t *)
enclaveVByteDecodeEncrypted	PROC 
; parameter 1(in): rcx
; parameter 2(length): rdx
; parameter 3(out): r8
.B4.1::                         ; Preds .B4.0
                                ; Execution count [0.00e+000]

;;; {

L20::
                                                          ;\\Mac\Home\Documents\Studium\6. Semester\Bachelorarbeit\Code\PerformanceTests\Enclave\E_VByte.cpp:114.1
$LN485:
  00683 55               push rbp                               ;\\Mac\Home\Documents\Studium\6. Semester\Bachelorarbeit\Code\PerformanceTests\Enclave\E_VByte.cpp:114.1
$LN486:
  00684 48 81 ec b0 00 
        00 00            sub rsp, 176                           ;\\Mac\Home\Documents\Studium\6. Semester\Bachelorarbeit\Code\PerformanceTests\Enclave\E_VByte.cpp:114.1
$LN487:
  0068b 48 8d 6c 24 30   lea rbp, QWORD PTR [48+rsp]            ;\\Mac\Home\Documents\Studium\6. Semester\Bachelorarbeit\Code\PerformanceTests\Enclave\E_VByte.cpp:114.1
$LN488:
  00690 48 89 75 50      mov QWORD PTR [80+rbp], rsi            ;\\Mac\Home\Documents\Studium\6. Semester\Bachelorarbeit\Code\PerformanceTests\Enclave\E_VByte.cpp:114.1[spill]
$LN489:
  00694 48 89 5d 48      mov QWORD PTR [72+rbp], rbx            ;\\Mac\Home\Documents\Studium\6. Semester\Bachelorarbeit\Code\PerformanceTests\Enclave\E_VByte.cpp:114.1[spill]
$LN490:
  00698 48 89 8d 90 00 
        00 00            mov QWORD PTR [144+rbp], rcx           ;\\Mac\Home\Documents\Studium\6. Semester\Bachelorarbeit\Code\PerformanceTests\Enclave\E_VByte.cpp:114.1
$LN491:
  0069f 48 89 95 98 00 
        00 00            mov QWORD PTR [152+rbp], rdx           ;\\Mac\Home\Documents\Studium\6. Semester\Bachelorarbeit\Code\PerformanceTests\Enclave\E_VByte.cpp:114.1
$LN492:
  006a6 4c 89 85 a0 00 
        00 00            mov QWORD PTR [160+rbp], r8            ;\\Mac\Home\Documents\Studium\6. Semester\Bachelorarbeit\Code\PerformanceTests\Enclave\E_VByte.cpp:114.1
$LN493:
  006ad 48 8b 05 00 00 
        00 00            mov rax, QWORD PTR [__security_cookie] ;\\Mac\Home\Documents\Studium\6. Semester\Bachelorarbeit\Code\PerformanceTests\Enclave\E_VByte.cpp:114.1
$LN494:
  006b4 48 33 c5         xor rax, rbp                           ;\\Mac\Home\Documents\Studium\6. Semester\Bachelorarbeit\Code\PerformanceTests\Enclave\E_VByte.cpp:114.1
$LN495:
  006b7 48 89 45 78      mov QWORD PTR [120+rbp], rax           ;\\Mac\Home\Documents\Studium\6. Semester\Bachelorarbeit\Code\PerformanceTests\Enclave\E_VByte.cpp:114.1
$LN496:

;;; 	size_t decodedLength = length * sizeof(uint32_t);

  006bb 48 8b 85 98 00 
        00 00            mov rax, QWORD PTR [152+rbp]           ;\\Mac\Home\Documents\Studium\6. Semester\Bachelorarbeit\Code\PerformanceTests\Enclave\E_VByte.cpp:115.23
$LN497:
  006c2 48 6b c0 04      imul rax, rax, 4                       ;\\Mac\Home\Documents\Studium\6. Semester\Bachelorarbeit\Code\PerformanceTests\Enclave\E_VByte.cpp:115.23
$LN498:
  006c6 48 89 45 08      mov QWORD PTR [8+rbp], rax             ;\\Mac\Home\Documents\Studium\6. Semester\Bachelorarbeit\Code\PerformanceTests\Enclave\E_VByte.cpp:115.23
$LN499:

;;; 
;;; 	uint8_t *data = new uint8_t[length];

  006ca 48 8b 85 98 00 
        00 00            mov rax, QWORD PTR [152+rbp]           ;\\Mac\Home\Documents\Studium\6. Semester\Bachelorarbeit\Code\PerformanceTests\Enclave\E_VByte.cpp:117.16
$LN500:
  006d1 48 89 c1         mov rcx, rax                           ;\\Mac\Home\Documents\Studium\6. Semester\Bachelorarbeit\Code\PerformanceTests\Enclave\E_VByte.cpp:117.16
$LN501:
  006d4 e8 fc ff ff ff  ;       operator new(unsigned __int64)
        call      ??2@YAPEAX_K@Z                                ;\\Mac\Home\Documents\Studium\6. Semester\Bachelorarbeit\Code\PerformanceTests\Enclave\E_VByte.cpp:117.16
$LN502:
                                ; LOE rax rbp rdi rsp r12 r13 r14 r15 rip zmm6 zmm7 zmm8 zmm9 zmm10 zmm11 zmm12 zmm13 zmm14 zmm15
.B4.8::                         ; Preds .B4.1
                                ; Execution count [0.00e+000]
$LN503:
  006d9 48 89 45 10      mov QWORD PTR [16+rbp], rax            ;\\Mac\Home\Documents\Studium\6. Semester\Bachelorarbeit\Code\PerformanceTests\Enclave\E_VByte.cpp:117.16
$LN504:
                                ; LOE rbp rdi rsp r12 r13 r14 r15 rip zmm6 zmm7 zmm8 zmm9 zmm10 zmm11 zmm12 zmm13 zmm14 zmm15
.B4.2::                         ; Preds .B4.8
                                ; Execution count [0.00e+000]
$LN505:
  006dd 48 8b 45 10      mov rax, QWORD PTR [16+rbp]            ;\\Mac\Home\Documents\Studium\6. Semester\Bachelorarbeit\Code\PerformanceTests\Enclave\E_VByte.cpp:117.16
$LN506:
  006e1 48 89 45 18      mov QWORD PTR [24+rbp], rax            ;\\Mac\Home\Documents\Studium\6. Semester\Bachelorarbeit\Code\PerformanceTests\Enclave\E_VByte.cpp:117.16
$LN507:

;;; 
;;; 	uint8_t key[AES_KEY_SIZE] = "123456789012345";

  006e5 48 8d 45 58      lea rax, QWORD PTR [88+rbp]            ;\\Mac\Home\Documents\Studium\6. Semester\Bachelorarbeit\Code\PerformanceTests\Enclave\E_VByte.cpp:119.28
$LN508:
  006e9 48 ba 31 32 33 
        34 35 36 37 38   mov rdx, 03837363534333231H            ;\\Mac\Home\Documents\Studium\6. Semester\Bachelorarbeit\Code\PerformanceTests\Enclave\E_VByte.cpp:119.28
$LN509:
  006f3 48 89 10         mov QWORD PTR [rax], rdx               ;\\Mac\Home\Documents\Studium\6. Semester\Bachelorarbeit\Code\PerformanceTests\Enclave\E_VByte.cpp:119.28
$LN510:
  006f6 48 8d 45 58      lea rax, QWORD PTR [88+rbp]            ;\\Mac\Home\Documents\Studium\6. Semester\Bachelorarbeit\Code\PerformanceTests\Enclave\E_VByte.cpp:119.28
$LN511:
  006fa 48 83 c0 08      add rax, 8                             ;\\Mac\Home\Documents\Studium\6. Semester\Bachelorarbeit\Code\PerformanceTests\Enclave\E_VByte.cpp:119.28
$LN512:
  006fe 48 ba 39 30 31 
        32 33 34 35 00   mov rdx, 035343332313039H              ;\\Mac\Home\Documents\Studium\6. Semester\Bachelorarbeit\Code\PerformanceTests\Enclave\E_VByte.cpp:119.28
$LN513:
  00708 48 89 10         mov QWORD PTR [rax], rdx               ;\\Mac\Home\Documents\Studium\6. Semester\Bachelorarbeit\Code\PerformanceTests\Enclave\E_VByte.cpp:119.28
$LN514:

;;; 	uint8_t iv[AES_BLOCK_SIZE] = "123456789012345";

  0070b 48 8d 45 68      lea rax, QWORD PTR [104+rbp]           ;\\Mac\Home\Documents\Studium\6. Semester\Bachelorarbeit\Code\PerformanceTests\Enclave\E_VByte.cpp:120.29
$LN515:
  0070f 48 ba 31 32 33 
        34 35 36 37 38   mov rdx, 03837363534333231H            ;\\Mac\Home\Documents\Studium\6. Semester\Bachelorarbeit\Code\PerformanceTests\Enclave\E_VByte.cpp:120.29
$LN516:
  00719 48 89 10         mov QWORD PTR [rax], rdx               ;\\Mac\Home\Documents\Studium\6. Semester\Bachelorarbeit\Code\PerformanceTests\Enclave\E_VByte.cpp:120.29
$LN517:
  0071c 48 8d 45 68      lea rax, QWORD PTR [104+rbp]           ;\\Mac\Home\Documents\Studium\6. Semester\Bachelorarbeit\Code\PerformanceTests\Enclave\E_VByte.cpp:120.29
$LN518:
  00720 48 83 c0 08      add rax, 8                             ;\\Mac\Home\Documents\Studium\6. Semester\Bachelorarbeit\Code\PerformanceTests\Enclave\E_VByte.cpp:120.29
$LN519:
  00724 48 ba 39 30 31 
        32 33 34 35 00   mov rdx, 035343332313039H              ;\\Mac\Home\Documents\Studium\6. Semester\Bachelorarbeit\Code\PerformanceTests\Enclave\E_VByte.cpp:120.29
$LN520:
  0072e 48 89 10         mov QWORD PTR [rax], rdx               ;\\Mac\Home\Documents\Studium\6. Semester\Bachelorarbeit\Code\PerformanceTests\Enclave\E_VByte.cpp:120.29
$LN521:

;;; 
;;; 	decryptBytes(in, length, data, key, AES_KEY_SIZE, iv);

  00731 48 8b 85 90 00 
        00 00            mov rax, QWORD PTR [144+rbp]           ;\\Mac\Home\Documents\Studium\6. Semester\Bachelorarbeit\Code\PerformanceTests\Enclave\E_VByte.cpp:122.2
$LN522:
  00738 48 8b 95 98 00 
        00 00            mov rdx, QWORD PTR [152+rbp]           ;\\Mac\Home\Documents\Studium\6. Semester\Bachelorarbeit\Code\PerformanceTests\Enclave\E_VByte.cpp:122.2
$LN523:
  0073f 48 8b 4d 18      mov rcx, QWORD PTR [24+rbp]            ;\\Mac\Home\Documents\Studium\6. Semester\Bachelorarbeit\Code\PerformanceTests\Enclave\E_VByte.cpp:122.2
$LN524:
  00743 48 8d 5d 58      lea rbx, QWORD PTR [88+rbp]            ;\\Mac\Home\Documents\Studium\6. Semester\Bachelorarbeit\Code\PerformanceTests\Enclave\E_VByte.cpp:122.2
$LN525:
  00747 48 c7 44 24 20 
        10 00 00 00      mov QWORD PTR [32+rsp], 16             ;\\Mac\Home\Documents\Studium\6. Semester\Bachelorarbeit\Code\PerformanceTests\Enclave\E_VByte.cpp:122.2
$LN526:
  00750 48 8d 75 68      lea rsi, QWORD PTR [104+rbp]           ;\\Mac\Home\Documents\Studium\6. Semester\Bachelorarbeit\Code\PerformanceTests\Enclave\E_VByte.cpp:122.2
$LN527:
  00754 48 89 74 24 28   mov QWORD PTR [40+rsp], rsi            ;\\Mac\Home\Documents\Studium\6. Semester\Bachelorarbeit\Code\PerformanceTests\Enclave\E_VByte.cpp:122.2
$LN528:
  00759 48 89 4d 38      mov QWORD PTR [56+rbp], rcx            ;\\Mac\Home\Documents\Studium\6. Semester\Bachelorarbeit\Code\PerformanceTests\Enclave\E_VByte.cpp:122.2[spill]
$LN529:
  0075d 48 89 c1         mov rcx, rax                           ;\\Mac\Home\Documents\Studium\6. Semester\Bachelorarbeit\Code\PerformanceTests\Enclave\E_VByte.cpp:122.2
$LN530:
  00760 48 8b 45 38      mov rax, QWORD PTR [56+rbp]            ;\\Mac\Home\Documents\Studium\6. Semester\Bachelorarbeit\Code\PerformanceTests\Enclave\E_VByte.cpp:122.2[spill]
$LN531:
  00764 49 89 c0         mov r8, rax                            ;\\Mac\Home\Documents\Studium\6. Semester\Bachelorarbeit\Code\PerformanceTests\Enclave\E_VByte.cpp:122.2
$LN532:
  00767 49 89 d9         mov r9, rbx                            ;\\Mac\Home\Documents\Studium\6. Semester\Bachelorarbeit\Code\PerformanceTests\Enclave\E_VByte.cpp:122.2
$LN533:
  0076a e8 fc ff ff ff  ;       decryptBytes(uint8_t *, size_t, uint8_t *, const uint8_t *, size_t, uint8_t *)
        call      decryptBytes                                  ;\\Mac\Home\Documents\Studium\6. Semester\Bachelorarbeit\Code\PerformanceTests\Enclave\E_VByte.cpp:122.2
$LN534:
                                ; LOE rbp rdi rsp r12 r13 r14 r15 rip eax zmm6 zmm7 zmm8 zmm9 zmm10 zmm11 zmm12 zmm13 zmm14 zmm15
.B4.9::                         ; Preds .B4.2
                                ; Execution count [0.00e+000]
$LN535:
  0076f 89 45 00         mov DWORD PTR [rbp], eax               ;\\Mac\Home\Documents\Studium\6. Semester\Bachelorarbeit\Code\PerformanceTests\Enclave\E_VByte.cpp:122.2
$LN536:
                                ; LOE rbp rdi rsp r12 r13 r14 r15 rip zmm6 zmm7 zmm8 zmm9 zmm10 zmm11 zmm12 zmm13 zmm14 zmm15
.B4.3::                         ; Preds .B4.9
                                ; Execution count [0.00e+000]
$LN537:

;;; 
;;; 	size_t resLength = enclaveVByteDecode(data, length, out, decodedLength);

  00772 48 8b 45 18      mov rax, QWORD PTR [24+rbp]            ;\\Mac\Home\Documents\Studium\6. Semester\Bachelorarbeit\Code\PerformanceTests\Enclave\E_VByte.cpp:124.19
$LN538:
  00776 48 8b 95 98 00 
        00 00            mov rdx, QWORD PTR [152+rbp]           ;\\Mac\Home\Documents\Studium\6. Semester\Bachelorarbeit\Code\PerformanceTests\Enclave\E_VByte.cpp:124.19
$LN539:
  0077d 48 8b 8d a0 00 
        00 00            mov rcx, QWORD PTR [160+rbp]           ;\\Mac\Home\Documents\Studium\6. Semester\Bachelorarbeit\Code\PerformanceTests\Enclave\E_VByte.cpp:124.19
$LN540:
  00784 48 8b 5d 08      mov rbx, QWORD PTR [8+rbp]             ;\\Mac\Home\Documents\Studium\6. Semester\Bachelorarbeit\Code\PerformanceTests\Enclave\E_VByte.cpp:124.19
$LN541:
  00788 48 89 4d 40      mov QWORD PTR [64+rbp], rcx            ;\\Mac\Home\Documents\Studium\6. Semester\Bachelorarbeit\Code\PerformanceTests\Enclave\E_VByte.cpp:124.19[spill]
$LN542:
  0078c 48 89 c1         mov rcx, rax                           ;\\Mac\Home\Documents\Studium\6. Semester\Bachelorarbeit\Code\PerformanceTests\Enclave\E_VByte.cpp:124.19
$LN543:
  0078f 48 8b 45 40      mov rax, QWORD PTR [64+rbp]            ;\\Mac\Home\Documents\Studium\6. Semester\Bachelorarbeit\Code\PerformanceTests\Enclave\E_VByte.cpp:124.19[spill]
$LN544:
  00793 49 89 c0         mov r8, rax                            ;\\Mac\Home\Documents\Studium\6. Semester\Bachelorarbeit\Code\PerformanceTests\Enclave\E_VByte.cpp:124.19
$LN545:
  00796 49 89 d9         mov r9, rbx                            ;\\Mac\Home\Documents\Studium\6. Semester\Bachelorarbeit\Code\PerformanceTests\Enclave\E_VByte.cpp:124.19
$LN546:
  00799 e8 fc ff ff ff  ;       enclaveVByteDecode(uint8_t *, size_t, uint8_t *, size_t)
        call      enclaveVByteDecode                            ;\\Mac\Home\Documents\Studium\6. Semester\Bachelorarbeit\Code\PerformanceTests\Enclave\E_VByte.cpp:124.19
$LN547:
                                ; LOE rax rbp rdi rsp r12 r13 r14 r15 rip zmm6 zmm7 zmm8 zmm9 zmm10 zmm11 zmm12 zmm13 zmm14 zmm15
.B4.10::                        ; Preds .B4.3
                                ; Execution count [0.00e+000]
$LN548:
  0079e 48 89 45 20      mov QWORD PTR [32+rbp], rax            ;\\Mac\Home\Documents\Studium\6. Semester\Bachelorarbeit\Code\PerformanceTests\Enclave\E_VByte.cpp:124.19
$LN549:
                                ; LOE rbp rdi rsp r12 r13 r14 r15 rip zmm6 zmm7 zmm8 zmm9 zmm10 zmm11 zmm12 zmm13 zmm14 zmm15
.B4.4::                         ; Preds .B4.10
                                ; Execution count [0.00e+000]
$LN550:
  007a2 48 8b 45 20      mov rax, QWORD PTR [32+rbp]            ;\\Mac\Home\Documents\Studium\6. Semester\Bachelorarbeit\Code\PerformanceTests\Enclave\E_VByte.cpp:124.19
$LN551:
  007a6 48 89 45 28      mov QWORD PTR [40+rbp], rax            ;\\Mac\Home\Documents\Studium\6. Semester\Bachelorarbeit\Code\PerformanceTests\Enclave\E_VByte.cpp:124.19
$LN552:

;;; 
;;; 	delete[] data;

  007aa 48 8b 45 18      mov rax, QWORD PTR [24+rbp]            ;\\Mac\Home\Documents\Studium\6. Semester\Bachelorarbeit\Code\PerformanceTests\Enclave\E_VByte.cpp:126.2
$LN553:
  007ae 48 89 c1         mov rcx, rax                           ;\\Mac\Home\Documents\Studium\6. Semester\Bachelorarbeit\Code\PerformanceTests\Enclave\E_VByte.cpp:126.2
$LN554:
  007b1 e8 fc ff ff ff  ;       operator delete(void *)
        call      ??3@YAXPEAX@Z                                 ;\\Mac\Home\Documents\Studium\6. Semester\Bachelorarbeit\Code\PerformanceTests\Enclave\E_VByte.cpp:126.2
$LN555:
                                ; LOE rbp rdi rsp r12 r13 r14 r15 rip zmm6 zmm7 zmm8 zmm9 zmm10 zmm11 zmm12 zmm13 zmm14 zmm15
.B4.11::                        ; Preds .B4.4
                                ; Execution count [0.00e+000]
$LN556:
                                ; LOE rbp rdi rsp r12 r13 r14 r15 rip zmm6 zmm7 zmm8 zmm9 zmm10 zmm11 zmm12 zmm13 zmm14 zmm15
.B4.5::                         ; Preds .B4.11
                                ; Execution count [0.00e+000]
$LN557:

;;; 
;;; 	return resLength;

  007b6 48 8b 45 28      mov rax, QWORD PTR [40+rbp]            ;\\Mac\Home\Documents\Studium\6. Semester\Bachelorarbeit\Code\PerformanceTests\Enclave\E_VByte.cpp:128.2
$LN558:
  007ba 48 89 45 30      mov QWORD PTR [48+rbp], rax            ;\\Mac\Home\Documents\Studium\6. Semester\Bachelorarbeit\Code\PerformanceTests\Enclave\E_VByte.cpp:128.2[spill]
$LN559:
  007be 48 8b 45 78      mov rax, QWORD PTR [120+rbp]           ;\\Mac\Home\Documents\Studium\6. Semester\Bachelorarbeit\Code\PerformanceTests\Enclave\E_VByte.cpp:128.2
$LN560:
  007c2 48 33 c5         xor rax, rbp                           ;\\Mac\Home\Documents\Studium\6. Semester\Bachelorarbeit\Code\PerformanceTests\Enclave\E_VByte.cpp:128.2
$LN561:
  007c5 48 89 c1         mov rcx, rax                           ;\\Mac\Home\Documents\Studium\6. Semester\Bachelorarbeit\Code\PerformanceTests\Enclave\E_VByte.cpp:128.2
$LN562:
  007c8 e8 fc ff ff ff   call __security_check_cookie           ;\\Mac\Home\Documents\Studium\6. Semester\Bachelorarbeit\Code\PerformanceTests\Enclave\E_VByte.cpp:128.2
$LN563:
                                ; LOE rbp rdi rsp r12 r13 r14 r15 rip zmm6 zmm7 zmm8 zmm9 zmm10 zmm11 zmm12 zmm13 zmm14 zmm15
.B4.12::                        ; Preds .B4.5
                                ; Execution count [0.00e+000]
$LN564:
  007cd 48 8b 45 30      mov rax, QWORD PTR [48+rbp]            ;\\Mac\Home\Documents\Studium\6. Semester\Bachelorarbeit\Code\PerformanceTests\Enclave\E_VByte.cpp:128.2[spill]
$LN565:
  007d1 48 8b 5d 48      mov rbx, QWORD PTR [72+rbp]            ;\\Mac\Home\Documents\Studium\6. Semester\Bachelorarbeit\Code\PerformanceTests\Enclave\E_VByte.cpp:128.2[spill]
$LN566:
  007d5 48 8b 75 50      mov rsi, QWORD PTR [80+rbp]            ;\\Mac\Home\Documents\Studium\6. Semester\Bachelorarbeit\Code\PerformanceTests\Enclave\E_VByte.cpp:128.2[spill]
$LN567:
  007d9 48 8d a5 80 00 
        00 00            lea rsp, QWORD PTR [128+rbp]           ;\\Mac\Home\Documents\Studium\6. Semester\Bachelorarbeit\Code\PerformanceTests\Enclave\E_VByte.cpp:128.2
$LN568:
  007e0 5d               pop rbp                                ;\\Mac\Home\Documents\Studium\6. Semester\Bachelorarbeit\Code\PerformanceTests\Enclave\E_VByte.cpp:128.2
$LN569:
  007e1 c3               ret                                    ;\\Mac\Home\Documents\Studium\6. Semester\Bachelorarbeit\Code\PerformanceTests\Enclave\E_VByte.cpp:128.2
$LN570:
                                ; LOE
.B4.6::
$LN571:
; mark_end;
enclaveVByteDecodeEncrypted ENDP
$LNenclaveVByteDecodeEncrypted$572:
$LNenclaveVByteDecodeEncrypted$573:
_TEXT	ENDS
.xdata	SEGMENT  DWORD   READ  ''
	ALIGN 004H
.unwind.enclaveVByteDecodeEncrypted.B1_B12	DD	889722113
	DD	996373
	DD	1074193
	DD	17302285
	DD	1342242838
.xdata	ENDS
.pdata	SEGMENT  DWORD   READ  ''
	ALIGN 004H
.pdata.enclaveVByteDecodeEncrypted.B1_B12	DD	imagerel .B4.1
	DD	imagerel .B4.6
	DD	imagerel .unwind.enclaveVByteDecodeEncrypted.B1_B12
.pdata	ENDS
_RDATA	SEGMENT     READ  'DATA'
key.82.0	DD	875770417
	DD	943142453
	DD	842084409
	DD	3486771
iv.82.0	DD	875770417
	DD	943142453
	DD	842084409
	DD	3486771
_RDATA	ENDS
_DATA	SEGMENT      'DATA'
_DATA	ENDS
; -- End  enclaveVByteDecodeEncrypted
_TEXT	SEGMENT      'CODE'
_2__routine_start_enclaveVByte_9:
; -- Begin  enclaveVByte
_TEXT	ENDS
_TEXT	SEGMENT      'CODE'
; mark_begin;

	PUBLIC enclaveVByte
; --- enclaveVByte(uint8_t *, size_t, uint8_t *, size_t)
enclaveVByte	PROC 
; parameter 1(in): rcx
; parameter 2(inLength): rdx
; parameter 3(out): r8
; parameter 4(outLength): r9
.B5.1::                         ; Preds .B5.0
                                ; Execution count [0.00e+000]

;;; size_t enclaveVByte(uint8_t *in, size_t inLength, uint8_t *out, size_t outLength) {

L26::
                                                          ;\\Mac\Home\Documents\Studium\6. Semester\Bachelorarbeit\Code\PerformanceTests\Enclave\E_VByte.cpp:131.83
$LN574:
  007e2 55               push rbp                               ;\\Mac\Home\Documents\Studium\6. Semester\Bachelorarbeit\Code\PerformanceTests\Enclave\E_VByte.cpp:131.83
$LN575:
  007e3 48 83 ec 70      sub rsp, 112                           ;\\Mac\Home\Documents\Studium\6. Semester\Bachelorarbeit\Code\PerformanceTests\Enclave\E_VByte.cpp:131.83
$LN576:
  007e7 48 8d 6c 24 20   lea rbp, QWORD PTR [32+rsp]            ;\\Mac\Home\Documents\Studium\6. Semester\Bachelorarbeit\Code\PerformanceTests\Enclave\E_VByte.cpp:131.83
$LN577:
  007ec 48 89 5d 48      mov QWORD PTR [72+rbp], rbx            ;\\Mac\Home\Documents\Studium\6. Semester\Bachelorarbeit\Code\PerformanceTests\Enclave\E_VByte.cpp:131.83[spill]
$LN578:
  007f0 48 89 4d 60      mov QWORD PTR [96+rbp], rcx            ;\\Mac\Home\Documents\Studium\6. Semester\Bachelorarbeit\Code\PerformanceTests\Enclave\E_VByte.cpp:131.83
$LN579:
  007f4 48 89 55 68      mov QWORD PTR [104+rbp], rdx           ;\\Mac\Home\Documents\Studium\6. Semester\Bachelorarbeit\Code\PerformanceTests\Enclave\E_VByte.cpp:131.83
$LN580:
  007f8 4c 89 45 70      mov QWORD PTR [112+rbp], r8            ;\\Mac\Home\Documents\Studium\6. Semester\Bachelorarbeit\Code\PerformanceTests\Enclave\E_VByte.cpp:131.83
$LN581:
  007fc 4c 89 4d 78      mov QWORD PTR [120+rbp], r9            ;\\Mac\Home\Documents\Studium\6. Semester\Bachelorarbeit\Code\PerformanceTests\Enclave\E_VByte.cpp:131.83
$LN582:

;;; 
;;; 	size_t decodedLength = inLength * sizeof(uint32_t);

  00800 48 8b 45 68      mov rax, QWORD PTR [104+rbp]           ;\\Mac\Home\Documents\Studium\6. Semester\Bachelorarbeit\Code\PerformanceTests\Enclave\E_VByte.cpp:133.23
$LN583:
  00804 48 6b c0 04      imul rax, rax, 4                       ;\\Mac\Home\Documents\Studium\6. Semester\Bachelorarbeit\Code\PerformanceTests\Enclave\E_VByte.cpp:133.23
$LN584:
  00808 48 89 45 00      mov QWORD PTR [rbp], rax               ;\\Mac\Home\Documents\Studium\6. Semester\Bachelorarbeit\Code\PerformanceTests\Enclave\E_VByte.cpp:133.23
$LN585:

;;; 
;;; 	uint8_t *decoded = new uint8_t[decodedLength];

  0080c 48 8b 45 00      mov rax, QWORD PTR [rbp]               ;\\Mac\Home\Documents\Studium\6. Semester\Bachelorarbeit\Code\PerformanceTests\Enclave\E_VByte.cpp:135.19
$LN586:
  00810 48 89 c1         mov rcx, rax                           ;\\Mac\Home\Documents\Studium\6. Semester\Bachelorarbeit\Code\PerformanceTests\Enclave\E_VByte.cpp:135.19
$LN587:
  00813 e8 fc ff ff ff  ;       operator new(unsigned __int64)
        call      ??2@YAPEAX_K@Z                                ;\\Mac\Home\Documents\Studium\6. Semester\Bachelorarbeit\Code\PerformanceTests\Enclave\E_VByte.cpp:135.19
$LN588:
                                ; LOE rax rbp rsi rdi rsp r12 r13 r14 r15 rip zmm6 zmm7 zmm8 zmm9 zmm10 zmm11 zmm12 zmm13 zmm14 zmm15
.B5.8::                         ; Preds .B5.1
                                ; Execution count [0.00e+000]
$LN589:
  00818 48 89 45 08      mov QWORD PTR [8+rbp], rax             ;\\Mac\Home\Documents\Studium\6. Semester\Bachelorarbeit\Code\PerformanceTests\Enclave\E_VByte.cpp:135.19
$LN590:
                                ; LOE rbp rsi rdi rsp r12 r13 r14 r15 rip zmm6 zmm7 zmm8 zmm9 zmm10 zmm11 zmm12 zmm13 zmm14 zmm15
.B5.2::                         ; Preds .B5.8
                                ; Execution count [0.00e+000]
$LN591:
  0081c 48 8b 45 08      mov rax, QWORD PTR [8+rbp]             ;\\Mac\Home\Documents\Studium\6. Semester\Bachelorarbeit\Code\PerformanceTests\Enclave\E_VByte.cpp:135.19
$LN592:
  00820 48 89 45 10      mov QWORD PTR [16+rbp], rax            ;\\Mac\Home\Documents\Studium\6. Semester\Bachelorarbeit\Code\PerformanceTests\Enclave\E_VByte.cpp:135.19
$LN593:

;;; 
;;; 	size_t decSize = enclaveVByteDecode(in, inLength, decoded, decodedLength);

  00824 48 8b 45 60      mov rax, QWORD PTR [96+rbp]            ;\\Mac\Home\Documents\Studium\6. Semester\Bachelorarbeit\Code\PerformanceTests\Enclave\E_VByte.cpp:137.17
$LN594:
  00828 48 8b 55 68      mov rdx, QWORD PTR [104+rbp]           ;\\Mac\Home\Documents\Studium\6. Semester\Bachelorarbeit\Code\PerformanceTests\Enclave\E_VByte.cpp:137.17
$LN595:
  0082c 48 8b 4d 10      mov rcx, QWORD PTR [16+rbp]            ;\\Mac\Home\Documents\Studium\6. Semester\Bachelorarbeit\Code\PerformanceTests\Enclave\E_VByte.cpp:137.17
$LN596:
  00830 48 8b 5d 00      mov rbx, QWORD PTR [rbp]               ;\\Mac\Home\Documents\Studium\6. Semester\Bachelorarbeit\Code\PerformanceTests\Enclave\E_VByte.cpp:137.17
$LN597:
  00834 48 89 4d 38      mov QWORD PTR [56+rbp], rcx            ;\\Mac\Home\Documents\Studium\6. Semester\Bachelorarbeit\Code\PerformanceTests\Enclave\E_VByte.cpp:137.17[spill]
$LN598:
  00838 48 89 c1         mov rcx, rax                           ;\\Mac\Home\Documents\Studium\6. Semester\Bachelorarbeit\Code\PerformanceTests\Enclave\E_VByte.cpp:137.17
$LN599:
  0083b 48 8b 45 38      mov rax, QWORD PTR [56+rbp]            ;\\Mac\Home\Documents\Studium\6. Semester\Bachelorarbeit\Code\PerformanceTests\Enclave\E_VByte.cpp:137.17[spill]
$LN600:
  0083f 49 89 c0         mov r8, rax                            ;\\Mac\Home\Documents\Studium\6. Semester\Bachelorarbeit\Code\PerformanceTests\Enclave\E_VByte.cpp:137.17
$LN601:
  00842 49 89 d9         mov r9, rbx                            ;\\Mac\Home\Documents\Studium\6. Semester\Bachelorarbeit\Code\PerformanceTests\Enclave\E_VByte.cpp:137.17
$LN602:
  00845 e8 fc ff ff ff  ;       enclaveVByteDecode(uint8_t *, size_t, uint8_t *, size_t)
        call      enclaveVByteDecode                            ;\\Mac\Home\Documents\Studium\6. Semester\Bachelorarbeit\Code\PerformanceTests\Enclave\E_VByte.cpp:137.17
$LN603:
                                ; LOE rax rbp rsi rdi rsp r12 r13 r14 r15 rip zmm6 zmm7 zmm8 zmm9 zmm10 zmm11 zmm12 zmm13 zmm14 zmm15
.B5.9::                         ; Preds .B5.2
                                ; Execution count [0.00e+000]
$LN604:
  0084a 48 89 45 18      mov QWORD PTR [24+rbp], rax            ;\\Mac\Home\Documents\Studium\6. Semester\Bachelorarbeit\Code\PerformanceTests\Enclave\E_VByte.cpp:137.17
$LN605:
                                ; LOE rbp rsi rdi rsp r12 r13 r14 r15 rip zmm6 zmm7 zmm8 zmm9 zmm10 zmm11 zmm12 zmm13 zmm14 zmm15
.B5.3::                         ; Preds .B5.9
                                ; Execution count [0.00e+000]
$LN606:
  0084e 48 8b 45 18      mov rax, QWORD PTR [24+rbp]            ;\\Mac\Home\Documents\Studium\6. Semester\Bachelorarbeit\Code\PerformanceTests\Enclave\E_VByte.cpp:137.17
$LN607:
  00852 48 89 45 20      mov QWORD PTR [32+rbp], rax            ;\\Mac\Home\Documents\Studium\6. Semester\Bachelorarbeit\Code\PerformanceTests\Enclave\E_VByte.cpp:137.17
$LN608:

;;; 
;;; 	// * processing on the data *
;;; 
;;; 	size_t outSize = enclaveVByteEncode(decoded, decSize, out, outLength);

  00856 48 8b 45 10      mov rax, QWORD PTR [16+rbp]            ;\\Mac\Home\Documents\Studium\6. Semester\Bachelorarbeit\Code\PerformanceTests\Enclave\E_VByte.cpp:141.17
$LN609:
  0085a 48 8b 55 20      mov rdx, QWORD PTR [32+rbp]            ;\\Mac\Home\Documents\Studium\6. Semester\Bachelorarbeit\Code\PerformanceTests\Enclave\E_VByte.cpp:141.17
$LN610:
  0085e 48 8b 4d 70      mov rcx, QWORD PTR [112+rbp]           ;\\Mac\Home\Documents\Studium\6. Semester\Bachelorarbeit\Code\PerformanceTests\Enclave\E_VByte.cpp:141.17
$LN611:
  00862 48 8b 5d 78      mov rbx, QWORD PTR [120+rbp]           ;\\Mac\Home\Documents\Studium\6. Semester\Bachelorarbeit\Code\PerformanceTests\Enclave\E_VByte.cpp:141.17
$LN612:
  00866 48 89 4d 40      mov QWORD PTR [64+rbp], rcx            ;\\Mac\Home\Documents\Studium\6. Semester\Bachelorarbeit\Code\PerformanceTests\Enclave\E_VByte.cpp:141.17[spill]
$LN613:
  0086a 48 89 c1         mov rcx, rax                           ;\\Mac\Home\Documents\Studium\6. Semester\Bachelorarbeit\Code\PerformanceTests\Enclave\E_VByte.cpp:141.17
$LN614:
  0086d 48 8b 45 40      mov rax, QWORD PTR [64+rbp]            ;\\Mac\Home\Documents\Studium\6. Semester\Bachelorarbeit\Code\PerformanceTests\Enclave\E_VByte.cpp:141.17[spill]
$LN615:
  00871 49 89 c0         mov r8, rax                            ;\\Mac\Home\Documents\Studium\6. Semester\Bachelorarbeit\Code\PerformanceTests\Enclave\E_VByte.cpp:141.17
$LN616:
  00874 49 89 d9         mov r9, rbx                            ;\\Mac\Home\Documents\Studium\6. Semester\Bachelorarbeit\Code\PerformanceTests\Enclave\E_VByte.cpp:141.17
$LN617:
  00877 e8 fc ff ff ff  ;       enclaveVByteEncode(uint8_t *, size_t, uint8_t *, size_t)
        call      enclaveVByteEncode                            ;\\Mac\Home\Documents\Studium\6. Semester\Bachelorarbeit\Code\PerformanceTests\Enclave\E_VByte.cpp:141.17
$LN618:
                                ; LOE rax rbp rsi rdi rsp r12 r13 r14 r15 rip zmm6 zmm7 zmm8 zmm9 zmm10 zmm11 zmm12 zmm13 zmm14 zmm15
.B5.10::                        ; Preds .B5.3
                                ; Execution count [0.00e+000]
$LN619:
  0087c 48 89 45 28      mov QWORD PTR [40+rbp], rax            ;\\Mac\Home\Documents\Studium\6. Semester\Bachelorarbeit\Code\PerformanceTests\Enclave\E_VByte.cpp:141.17
$LN620:
                                ; LOE rbp rsi rdi rsp r12 r13 r14 r15 rip zmm6 zmm7 zmm8 zmm9 zmm10 zmm11 zmm12 zmm13 zmm14 zmm15
.B5.4::                         ; Preds .B5.10
                                ; Execution count [0.00e+000]
$LN621:
  00880 48 8b 45 28      mov rax, QWORD PTR [40+rbp]            ;\\Mac\Home\Documents\Studium\6. Semester\Bachelorarbeit\Code\PerformanceTests\Enclave\E_VByte.cpp:141.17
$LN622:
  00884 48 89 45 30      mov QWORD PTR [48+rbp], rax            ;\\Mac\Home\Documents\Studium\6. Semester\Bachelorarbeit\Code\PerformanceTests\Enclave\E_VByte.cpp:141.17
$LN623:

;;; 
;;; 	delete[] decoded;

  00888 48 8b 45 10      mov rax, QWORD PTR [16+rbp]            ;\\Mac\Home\Documents\Studium\6. Semester\Bachelorarbeit\Code\PerformanceTests\Enclave\E_VByte.cpp:143.2
$LN624:
  0088c 48 89 c1         mov rcx, rax                           ;\\Mac\Home\Documents\Studium\6. Semester\Bachelorarbeit\Code\PerformanceTests\Enclave\E_VByte.cpp:143.2
$LN625:
  0088f e8 fc ff ff ff  ;       operator delete(void *)
        call      ??3@YAXPEAX@Z                                 ;\\Mac\Home\Documents\Studium\6. Semester\Bachelorarbeit\Code\PerformanceTests\Enclave\E_VByte.cpp:143.2
$LN626:
                                ; LOE rbp rsi rdi rsp r12 r13 r14 r15 rip zmm6 zmm7 zmm8 zmm9 zmm10 zmm11 zmm12 zmm13 zmm14 zmm15
.B5.11::                        ; Preds .B5.4
                                ; Execution count [0.00e+000]
$LN627:
                                ; LOE rbp rsi rdi rsp r12 r13 r14 r15 rip zmm6 zmm7 zmm8 zmm9 zmm10 zmm11 zmm12 zmm13 zmm14 zmm15
.B5.5::                         ; Preds .B5.11
                                ; Execution count [0.00e+000]
$LN628:

;;; 
;;; 	return outSize;

  00894 48 8b 45 30      mov rax, QWORD PTR [48+rbp]            ;\\Mac\Home\Documents\Studium\6. Semester\Bachelorarbeit\Code\PerformanceTests\Enclave\E_VByte.cpp:145.2
$LN629:
  00898 48 8b 5d 48      mov rbx, QWORD PTR [72+rbp]            ;\\Mac\Home\Documents\Studium\6. Semester\Bachelorarbeit\Code\PerformanceTests\Enclave\E_VByte.cpp:145.2[spill]
$LN630:
  0089c 48 8d 65 50      lea rsp, QWORD PTR [80+rbp]            ;\\Mac\Home\Documents\Studium\6. Semester\Bachelorarbeit\Code\PerformanceTests\Enclave\E_VByte.cpp:145.2
$LN631:
  008a0 5d               pop rbp                                ;\\Mac\Home\Documents\Studium\6. Semester\Bachelorarbeit\Code\PerformanceTests\Enclave\E_VByte.cpp:145.2
$LN632:
  008a1 c3               ret                                    ;\\Mac\Home\Documents\Studium\6. Semester\Bachelorarbeit\Code\PerformanceTests\Enclave\E_VByte.cpp:145.2
$LN633:
                                ; LOE
.B5.6::
$LN634:
; mark_end;
enclaveVByte ENDP
$LNenclaveVByte$635:
$LNenclaveVByte$636:
_TEXT	ENDS
.xdata	SEGMENT  DWORD   READ  ''
	ALIGN 004H
.unwind.enclaveVByte.B1_B5	DD	621088257
	DD	865294
	DD	3523543818
	DD	20481
.xdata	ENDS
.pdata	SEGMENT  DWORD   READ  ''
	ALIGN 004H
.pdata.enclaveVByte.B1_B5	DD	imagerel .B5.1
	DD	imagerel .B5.6
	DD	imagerel .unwind.enclaveVByte.B1_B5
.pdata	ENDS
_DATA	SEGMENT      'DATA'
_DATA	ENDS
; -- End  enclaveVByte
_TEXT	SEGMENT      'CODE'
_2__routine_start_enclaveVByteEncodeEncryptedPreproc_10:
; -- Begin  enclaveVByteEncodeEncryptedPreproc
_TEXT	ENDS
_TEXT	SEGMENT      'CODE'
; mark_begin;

	PUBLIC enclaveVByteEncodeEncryptedPreproc
; --- enclaveVByteEncodeEncryptedPreproc(uint8_t *, size_t, uint8_t *)
enclaveVByteEncodeEncryptedPreproc	PROC 
; parameter 1(in): rcx
; parameter 2(length): rdx
; parameter 3(out): r8
.B6.1::                         ; Preds .B6.0
                                ; Execution count [0.00e+000]

;;; {

L32::
                                                          ;\\Mac\Home\Documents\Studium\6. Semester\Bachelorarbeit\Code\PerformanceTests\Enclave\E_VByte.cpp:149.1
$LN637:
  008a2 55               push rbp                               ;\\Mac\Home\Documents\Studium\6. Semester\Bachelorarbeit\Code\PerformanceTests\Enclave\E_VByte.cpp:149.1
$LN638:
  008a3 48 81 ec c0 00 
        00 00            sub rsp, 192                           ;\\Mac\Home\Documents\Studium\6. Semester\Bachelorarbeit\Code\PerformanceTests\Enclave\E_VByte.cpp:149.1
$LN639:
  008aa 48 8d 6c 24 30   lea rbp, QWORD PTR [48+rsp]            ;\\Mac\Home\Documents\Studium\6. Semester\Bachelorarbeit\Code\PerformanceTests\Enclave\E_VByte.cpp:149.1
$LN640:
  008af 48 89 75 58      mov QWORD PTR [88+rbp], rsi            ;\\Mac\Home\Documents\Studium\6. Semester\Bachelorarbeit\Code\PerformanceTests\Enclave\E_VByte.cpp:149.1[spill]
$LN641:
  008b3 48 89 5d 50      mov QWORD PTR [80+rbp], rbx            ;\\Mac\Home\Documents\Studium\6. Semester\Bachelorarbeit\Code\PerformanceTests\Enclave\E_VByte.cpp:149.1[spill]
$LN642:
  008b7 48 89 8d a0 00 
        00 00            mov QWORD PTR [160+rbp], rcx           ;\\Mac\Home\Documents\Studium\6. Semester\Bachelorarbeit\Code\PerformanceTests\Enclave\E_VByte.cpp:149.1
$LN643:
  008be 48 89 95 a8 00 
        00 00            mov QWORD PTR [168+rbp], rdx           ;\\Mac\Home\Documents\Studium\6. Semester\Bachelorarbeit\Code\PerformanceTests\Enclave\E_VByte.cpp:149.1
$LN644:
  008c5 4c 89 85 b0 00 
        00 00            mov QWORD PTR [176+rbp], r8            ;\\Mac\Home\Documents\Studium\6. Semester\Bachelorarbeit\Code\PerformanceTests\Enclave\E_VByte.cpp:149.1
$LN645:
  008cc 48 8b 05 00 00 
        00 00            mov rax, QWORD PTR [__security_cookie] ;\\Mac\Home\Documents\Studium\6. Semester\Bachelorarbeit\Code\PerformanceTests\Enclave\E_VByte.cpp:149.1
$LN646:
  008d3 48 33 c5         xor rax, rbp                           ;\\Mac\Home\Documents\Studium\6. Semester\Bachelorarbeit\Code\PerformanceTests\Enclave\E_VByte.cpp:149.1
$LN647:
  008d6 48 89 85 80 00 
        00 00            mov QWORD PTR [128+rbp], rax           ;\\Mac\Home\Documents\Studium\6. Semester\Bachelorarbeit\Code\PerformanceTests\Enclave\E_VByte.cpp:149.1
$LN648:

;;; 	uint8_t key[AES_KEY_SIZE] = "123456789012345";

  008dd 48 8d 45 60      lea rax, QWORD PTR [96+rbp]            ;\\Mac\Home\Documents\Studium\6. Semester\Bachelorarbeit\Code\PerformanceTests\Enclave\E_VByte.cpp:150.28
$LN649:
  008e1 48 ba 31 32 33 
        34 35 36 37 38   mov rdx, 03837363534333231H            ;\\Mac\Home\Documents\Studium\6. Semester\Bachelorarbeit\Code\PerformanceTests\Enclave\E_VByte.cpp:150.28
$LN650:
  008eb 48 89 10         mov QWORD PTR [rax], rdx               ;\\Mac\Home\Documents\Studium\6. Semester\Bachelorarbeit\Code\PerformanceTests\Enclave\E_VByte.cpp:150.28
$LN651:
  008ee 48 8d 45 60      lea rax, QWORD PTR [96+rbp]            ;\\Mac\Home\Documents\Studium\6. Semester\Bachelorarbeit\Code\PerformanceTests\Enclave\E_VByte.cpp:150.28
$LN652:
  008f2 48 83 c0 08      add rax, 8                             ;\\Mac\Home\Documents\Studium\6. Semester\Bachelorarbeit\Code\PerformanceTests\Enclave\E_VByte.cpp:150.28
$LN653:
  008f6 48 ba 39 30 31 
        32 33 34 35 00   mov rdx, 035343332313039H              ;\\Mac\Home\Documents\Studium\6. Semester\Bachelorarbeit\Code\PerformanceTests\Enclave\E_VByte.cpp:150.28
$LN654:
  00900 48 89 10         mov QWORD PTR [rax], rdx               ;\\Mac\Home\Documents\Studium\6. Semester\Bachelorarbeit\Code\PerformanceTests\Enclave\E_VByte.cpp:150.28
$LN655:

;;; 	uint8_t iv[AES_BLOCK_SIZE] = "123456789012345";

  00903 48 8d 45 70      lea rax, QWORD PTR [112+rbp]           ;\\Mac\Home\Documents\Studium\6. Semester\Bachelorarbeit\Code\PerformanceTests\Enclave\E_VByte.cpp:151.29
$LN656:
  00907 48 ba 31 32 33 
        34 35 36 37 38   mov rdx, 03837363534333231H            ;\\Mac\Home\Documents\Studium\6. Semester\Bachelorarbeit\Code\PerformanceTests\Enclave\E_VByte.cpp:151.29
$LN657:
  00911 48 89 10         mov QWORD PTR [rax], rdx               ;\\Mac\Home\Documents\Studium\6. Semester\Bachelorarbeit\Code\PerformanceTests\Enclave\E_VByte.cpp:151.29
$LN658:
  00914 48 8d 45 70      lea rax, QWORD PTR [112+rbp]           ;\\Mac\Home\Documents\Studium\6. Semester\Bachelorarbeit\Code\PerformanceTests\Enclave\E_VByte.cpp:151.29
$LN659:
  00918 48 83 c0 08      add rax, 8                             ;\\Mac\Home\Documents\Studium\6. Semester\Bachelorarbeit\Code\PerformanceTests\Enclave\E_VByte.cpp:151.29
$LN660:
  0091c 48 ba 39 30 31 
        32 33 34 35 00   mov rdx, 035343332313039H              ;\\Mac\Home\Documents\Studium\6. Semester\Bachelorarbeit\Code\PerformanceTests\Enclave\E_VByte.cpp:151.29
$LN661:
  00926 48 89 10         mov QWORD PTR [rax], rdx               ;\\Mac\Home\Documents\Studium\6. Semester\Bachelorarbeit\Code\PerformanceTests\Enclave\E_VByte.cpp:151.29
$LN662:

;;; 
;;; 	size_t encodedLength = (length / sizeof(uint32_t)) * 5;

  00929 48 8b 85 a8 00 
        00 00            mov rax, QWORD PTR [168+rbp]           ;\\Mac\Home\Documents\Studium\6. Semester\Bachelorarbeit\Code\PerformanceTests\Enclave\E_VByte.cpp:153.23
$LN663:
  00930 48 c1 e8 02      shr rax, 2                             ;\\Mac\Home\Documents\Studium\6. Semester\Bachelorarbeit\Code\PerformanceTests\Enclave\E_VByte.cpp:153.23
$LN664:
  00934 48 6b c0 05      imul rax, rax, 5                       ;\\Mac\Home\Documents\Studium\6. Semester\Bachelorarbeit\Code\PerformanceTests\Enclave\E_VByte.cpp:153.23
$LN665:
  00938 48 89 45 08      mov QWORD PTR [8+rbp], rax             ;\\Mac\Home\Documents\Studium\6. Semester\Bachelorarbeit\Code\PerformanceTests\Enclave\E_VByte.cpp:153.23
$LN666:

;;; 	encodedLength += encodedLength % 16 == 0 ? 0 : 16 - (encodedLength % 16);

  0093c 8b 45 08         mov eax, DWORD PTR [8+rbp]             ;\\Mac\Home\Documents\Studium\6. Semester\Bachelorarbeit\Code\PerformanceTests\Enclave\E_VByte.cpp:154.2
$LN667:
  0093f a8 0f            test al, 15                            ;\\Mac\Home\Documents\Studium\6. Semester\Bachelorarbeit\Code\PerformanceTests\Enclave\E_VByte.cpp:154.2
$LN668:
  00941 74 15            je .B6.3 ; Prob 50%                    ;\\Mac\Home\Documents\Studium\6. Semester\Bachelorarbeit\Code\PerformanceTests\Enclave\E_VByte.cpp:154.2
$LN669:
                                ; LOE rbp rdi rsp r12 r13 r14 r15 rip zmm6 zmm7 zmm8 zmm9 zmm10 zmm11 zmm12 zmm13 zmm14 zmm15
.B6.2::                         ; Preds .B6.1
                                ; Execution count [0.00e+000]
$LN670:
  00943 48 8b 45 08      mov rax, QWORD PTR [8+rbp]             ;\\Mac\Home\Documents\Studium\6. Semester\Bachelorarbeit\Code\PerformanceTests\Enclave\E_VByte.cpp:154.2
$LN671:
  00947 48 83 e0 0f      and rax, 15                            ;\\Mac\Home\Documents\Studium\6. Semester\Bachelorarbeit\Code\PerformanceTests\Enclave\E_VByte.cpp:154.2
$LN672:
  0094b 48 f7 d8         neg rax                                ;\\Mac\Home\Documents\Studium\6. Semester\Bachelorarbeit\Code\PerformanceTests\Enclave\E_VByte.cpp:154.2
$LN673:
  0094e 48 83 c0 10      add rax, 16                            ;\\Mac\Home\Documents\Studium\6. Semester\Bachelorarbeit\Code\PerformanceTests\Enclave\E_VByte.cpp:154.2
$LN674:
  00952 48 89 45 10      mov QWORD PTR [16+rbp], rax            ;\\Mac\Home\Documents\Studium\6. Semester\Bachelorarbeit\Code\PerformanceTests\Enclave\E_VByte.cpp:154.2
$LN675:
  00956 eb 08            jmp .B6.4 ; Prob 100%                  ;\\Mac\Home\Documents\Studium\6. Semester\Bachelorarbeit\Code\PerformanceTests\Enclave\E_VByte.cpp:154.2
$LN676:
                                ; LOE rbp rdi rsp r12 r13 r14 r15 rip zmm6 zmm7 zmm8 zmm9 zmm10 zmm11 zmm12 zmm13 zmm14 zmm15
.B6.3::                         ; Preds .B6.1
                                ; Execution count [0.00e+000]
$LN677:
  00958 48 c7 45 10 00 
        00 00 00         mov QWORD PTR [16+rbp], 0              ;\\Mac\Home\Documents\Studium\6. Semester\Bachelorarbeit\Code\PerformanceTests\Enclave\E_VByte.cpp:154.2
$LN678:
                                ; LOE rbp rdi rsp r12 r13 r14 r15 rip zmm6 zmm7 zmm8 zmm9 zmm10 zmm11 zmm12 zmm13 zmm14 zmm15
.B6.4::                         ; Preds .B6.3 .B6.2
                                ; Execution count [0.00e+000]
$LN679:
  00960 48 8b 45 10      mov rax, QWORD PTR [16+rbp]            ;\\Mac\Home\Documents\Studium\6. Semester\Bachelorarbeit\Code\PerformanceTests\Enclave\E_VByte.cpp:154.2
$LN680:
  00964 48 03 45 08      add rax, QWORD PTR [8+rbp]             ;\\Mac\Home\Documents\Studium\6. Semester\Bachelorarbeit\Code\PerformanceTests\Enclave\E_VByte.cpp:154.2
$LN681:
  00968 48 89 45 08      mov QWORD PTR [8+rbp], rax             ;\\Mac\Home\Documents\Studium\6. Semester\Bachelorarbeit\Code\PerformanceTests\Enclave\E_VByte.cpp:154.2
$LN682:

;;; 	uint8_t *encoded = new uint8_t[encodedLength];

  0096c 48 8b 45 08      mov rax, QWORD PTR [8+rbp]             ;\\Mac\Home\Documents\Studium\6. Semester\Bachelorarbeit\Code\PerformanceTests\Enclave\E_VByte.cpp:155.19
$LN683:
  00970 48 89 c1         mov rcx, rax                           ;\\Mac\Home\Documents\Studium\6. Semester\Bachelorarbeit\Code\PerformanceTests\Enclave\E_VByte.cpp:155.19
$LN684:
  00973 e8 fc ff ff ff  ;       operator new(unsigned __int64)
        call      ??2@YAPEAX_K@Z                                ;\\Mac\Home\Documents\Studium\6. Semester\Bachelorarbeit\Code\PerformanceTests\Enclave\E_VByte.cpp:155.19
$LN685:
                                ; LOE rax rbp rdi rsp r12 r13 r14 r15 rip zmm6 zmm7 zmm8 zmm9 zmm10 zmm11 zmm12 zmm13 zmm14 zmm15
.B6.11::                        ; Preds .B6.4
                                ; Execution count [0.00e+000]
$LN686:
  00978 48 89 45 18      mov QWORD PTR [24+rbp], rax            ;\\Mac\Home\Documents\Studium\6. Semester\Bachelorarbeit\Code\PerformanceTests\Enclave\E_VByte.cpp:155.19
$LN687:
                                ; LOE rbp rdi rsp r12 r13 r14 r15 rip zmm6 zmm7 zmm8 zmm9 zmm10 zmm11 zmm12 zmm13 zmm14 zmm15
.B6.5::                         ; Preds .B6.11
                                ; Execution count [0.00e+000]
$LN688:
  0097c 48 8b 45 18      mov rax, QWORD PTR [24+rbp]            ;\\Mac\Home\Documents\Studium\6. Semester\Bachelorarbeit\Code\PerformanceTests\Enclave\E_VByte.cpp:155.19
$LN689:
  00980 48 89 45 20      mov QWORD PTR [32+rbp], rax            ;\\Mac\Home\Documents\Studium\6. Semester\Bachelorarbeit\Code\PerformanceTests\Enclave\E_VByte.cpp:155.19
$LN690:

;;; 
;;; 	size_t encLength = enclaveVByteEncode(in, length, encoded, encodedLength);

  00984 48 8b 85 a0 00 
        00 00            mov rax, QWORD PTR [160+rbp]           ;\\Mac\Home\Documents\Studium\6. Semester\Bachelorarbeit\Code\PerformanceTests\Enclave\E_VByte.cpp:157.19
$LN691:
  0098b 48 8b 95 a8 00 
        00 00            mov rdx, QWORD PTR [168+rbp]           ;\\Mac\Home\Documents\Studium\6. Semester\Bachelorarbeit\Code\PerformanceTests\Enclave\E_VByte.cpp:157.19
$LN692:
  00992 48 8b 4d 20      mov rcx, QWORD PTR [32+rbp]            ;\\Mac\Home\Documents\Studium\6. Semester\Bachelorarbeit\Code\PerformanceTests\Enclave\E_VByte.cpp:157.19
$LN693:
  00996 48 8b 5d 08      mov rbx, QWORD PTR [8+rbp]             ;\\Mac\Home\Documents\Studium\6. Semester\Bachelorarbeit\Code\PerformanceTests\Enclave\E_VByte.cpp:157.19
$LN694:
  0099a 48 89 4d 40      mov QWORD PTR [64+rbp], rcx            ;\\Mac\Home\Documents\Studium\6. Semester\Bachelorarbeit\Code\PerformanceTests\Enclave\E_VByte.cpp:157.19[spill]
$LN695:
  0099e 48 89 c1         mov rcx, rax                           ;\\Mac\Home\Documents\Studium\6. Semester\Bachelorarbeit\Code\PerformanceTests\Enclave\E_VByte.cpp:157.19
$LN696:
  009a1 48 8b 45 40      mov rax, QWORD PTR [64+rbp]            ;\\Mac\Home\Documents\Studium\6. Semester\Bachelorarbeit\Code\PerformanceTests\Enclave\E_VByte.cpp:157.19[spill]
$LN697:
  009a5 49 89 c0         mov r8, rax                            ;\\Mac\Home\Documents\Studium\6. Semester\Bachelorarbeit\Code\PerformanceTests\Enclave\E_VByte.cpp:157.19
$LN698:
  009a8 49 89 d9         mov r9, rbx                            ;\\Mac\Home\Documents\Studium\6. Semester\Bachelorarbeit\Code\PerformanceTests\Enclave\E_VByte.cpp:157.19
$LN699:
  009ab e8 fc ff ff ff  ;       enclaveVByteEncode(uint8_t *, size_t, uint8_t *, size_t)
        call      enclaveVByteEncode                            ;\\Mac\Home\Documents\Studium\6. Semester\Bachelorarbeit\Code\PerformanceTests\Enclave\E_VByte.cpp:157.19
$LN700:
                                ; LOE rax rbp rdi rsp r12 r13 r14 r15 rip zmm6 zmm7 zmm8 zmm9 zmm10 zmm11 zmm12 zmm13 zmm14 zmm15
.B6.12::                        ; Preds .B6.5
                                ; Execution count [0.00e+000]
$LN701:
  009b0 48 89 45 28      mov QWORD PTR [40+rbp], rax            ;\\Mac\Home\Documents\Studium\6. Semester\Bachelorarbeit\Code\PerformanceTests\Enclave\E_VByte.cpp:157.19
$LN702:
                                ; LOE rbp rdi rsp r12 r13 r14 r15 rip zmm6 zmm7 zmm8 zmm9 zmm10 zmm11 zmm12 zmm13 zmm14 zmm15
.B6.6::                         ; Preds .B6.12
                                ; Execution count [0.00e+000]
$LN703:
  009b4 48 8b 45 28      mov rax, QWORD PTR [40+rbp]            ;\\Mac\Home\Documents\Studium\6. Semester\Bachelorarbeit\Code\PerformanceTests\Enclave\E_VByte.cpp:157.19
$LN704:
  009b8 48 89 45 30      mov QWORD PTR [48+rbp], rax            ;\\Mac\Home\Documents\Studium\6. Semester\Bachelorarbeit\Code\PerformanceTests\Enclave\E_VByte.cpp:157.19
$LN705:

;;; 
;;; 	encryptBytes(encoded, encodedLength, out, key, AES_KEY_SIZE, iv);

  009bc 48 8b 45 20      mov rax, QWORD PTR [32+rbp]            ;\\Mac\Home\Documents\Studium\6. Semester\Bachelorarbeit\Code\PerformanceTests\Enclave\E_VByte.cpp:159.2
$LN706:
  009c0 48 8b 55 08      mov rdx, QWORD PTR [8+rbp]             ;\\Mac\Home\Documents\Studium\6. Semester\Bachelorarbeit\Code\PerformanceTests\Enclave\E_VByte.cpp:159.2
$LN707:
  009c4 48 8b 8d b0 00 
        00 00            mov rcx, QWORD PTR [176+rbp]           ;\\Mac\Home\Documents\Studium\6. Semester\Bachelorarbeit\Code\PerformanceTests\Enclave\E_VByte.cpp:159.2
$LN708:
  009cb 48 8d 5d 60      lea rbx, QWORD PTR [96+rbp]            ;\\Mac\Home\Documents\Studium\6. Semester\Bachelorarbeit\Code\PerformanceTests\Enclave\E_VByte.cpp:159.2
$LN709:
  009cf 48 c7 44 24 20 
        10 00 00 00      mov QWORD PTR [32+rsp], 16             ;\\Mac\Home\Documents\Studium\6. Semester\Bachelorarbeit\Code\PerformanceTests\Enclave\E_VByte.cpp:159.2
$LN710:
  009d8 48 8d 75 70      lea rsi, QWORD PTR [112+rbp]           ;\\Mac\Home\Documents\Studium\6. Semester\Bachelorarbeit\Code\PerformanceTests\Enclave\E_VByte.cpp:159.2
$LN711:
  009dc 48 89 74 24 28   mov QWORD PTR [40+rsp], rsi            ;\\Mac\Home\Documents\Studium\6. Semester\Bachelorarbeit\Code\PerformanceTests\Enclave\E_VByte.cpp:159.2
$LN712:
  009e1 48 89 4d 48      mov QWORD PTR [72+rbp], rcx            ;\\Mac\Home\Documents\Studium\6. Semester\Bachelorarbeit\Code\PerformanceTests\Enclave\E_VByte.cpp:159.2[spill]
$LN713:
  009e5 48 89 c1         mov rcx, rax                           ;\\Mac\Home\Documents\Studium\6. Semester\Bachelorarbeit\Code\PerformanceTests\Enclave\E_VByte.cpp:159.2
$LN714:
  009e8 48 8b 45 48      mov rax, QWORD PTR [72+rbp]            ;\\Mac\Home\Documents\Studium\6. Semester\Bachelorarbeit\Code\PerformanceTests\Enclave\E_VByte.cpp:159.2[spill]
$LN715:
  009ec 49 89 c0         mov r8, rax                            ;\\Mac\Home\Documents\Studium\6. Semester\Bachelorarbeit\Code\PerformanceTests\Enclave\E_VByte.cpp:159.2
$LN716:
  009ef 49 89 d9         mov r9, rbx                            ;\\Mac\Home\Documents\Studium\6. Semester\Bachelorarbeit\Code\PerformanceTests\Enclave\E_VByte.cpp:159.2
$LN717:
  009f2 e8 fc ff ff ff  ;       encryptBytes(uint8_t *, size_t, uint8_t *, const uint8_t *, size_t, uint8_t *)
        call      encryptBytes                                  ;\\Mac\Home\Documents\Studium\6. Semester\Bachelorarbeit\Code\PerformanceTests\Enclave\E_VByte.cpp:159.2
$LN718:
                                ; LOE rbp rdi rsp r12 r13 r14 r15 rip eax zmm6 zmm7 zmm8 zmm9 zmm10 zmm11 zmm12 zmm13 zmm14 zmm15
.B6.13::                        ; Preds .B6.6
                                ; Execution count [0.00e+000]
$LN719:
  009f7 89 45 00         mov DWORD PTR [rbp], eax               ;\\Mac\Home\Documents\Studium\6. Semester\Bachelorarbeit\Code\PerformanceTests\Enclave\E_VByte.cpp:159.2
$LN720:
                                ; LOE rbp rdi rsp r12 r13 r14 r15 rip zmm6 zmm7 zmm8 zmm9 zmm10 zmm11 zmm12 zmm13 zmm14 zmm15
.B6.7::                         ; Preds .B6.13
                                ; Execution count [0.00e+000]
$LN721:

;;; 
;;; 	delete[] encoded;

  009fa 48 8b 45 20      mov rax, QWORD PTR [32+rbp]            ;\\Mac\Home\Documents\Studium\6. Semester\Bachelorarbeit\Code\PerformanceTests\Enclave\E_VByte.cpp:161.2
$LN722:
  009fe 48 89 c1         mov rcx, rax                           ;\\Mac\Home\Documents\Studium\6. Semester\Bachelorarbeit\Code\PerformanceTests\Enclave\E_VByte.cpp:161.2
$LN723:
  00a01 e8 fc ff ff ff  ;       operator delete(void *)
        call      ??3@YAXPEAX@Z                                 ;\\Mac\Home\Documents\Studium\6. Semester\Bachelorarbeit\Code\PerformanceTests\Enclave\E_VByte.cpp:161.2
$LN724:
                                ; LOE rbp rdi rsp r12 r13 r14 r15 rip zmm6 zmm7 zmm8 zmm9 zmm10 zmm11 zmm12 zmm13 zmm14 zmm15
.B6.14::                        ; Preds .B6.7
                                ; Execution count [0.00e+000]
$LN725:
                                ; LOE rbp rdi rsp r12 r13 r14 r15 rip zmm6 zmm7 zmm8 zmm9 zmm10 zmm11 zmm12 zmm13 zmm14 zmm15
.B6.8::                         ; Preds .B6.14
                                ; Execution count [0.00e+000]
$LN726:

;;; 
;;; 	return encLength + AES_BLOCK_SIZE;

  00a06 b8 10 00 00 00   mov eax, 16                            ;\\Mac\Home\Documents\Studium\6. Semester\Bachelorarbeit\Code\PerformanceTests\Enclave\E_VByte.cpp:163.2
$LN727:
  00a0b 48 03 45 30      add rax, QWORD PTR [48+rbp]            ;\\Mac\Home\Documents\Studium\6. Semester\Bachelorarbeit\Code\PerformanceTests\Enclave\E_VByte.cpp:163.2
$LN728:
  00a0f 48 89 45 38      mov QWORD PTR [56+rbp], rax            ;\\Mac\Home\Documents\Studium\6. Semester\Bachelorarbeit\Code\PerformanceTests\Enclave\E_VByte.cpp:163.2[spill]
$LN729:
  00a13 48 8b 85 80 00 
        00 00            mov rax, QWORD PTR [128+rbp]           ;\\Mac\Home\Documents\Studium\6. Semester\Bachelorarbeit\Code\PerformanceTests\Enclave\E_VByte.cpp:163.2
$LN730:
  00a1a 48 33 c5         xor rax, rbp                           ;\\Mac\Home\Documents\Studium\6. Semester\Bachelorarbeit\Code\PerformanceTests\Enclave\E_VByte.cpp:163.2
$LN731:
  00a1d 48 89 c1         mov rcx, rax                           ;\\Mac\Home\Documents\Studium\6. Semester\Bachelorarbeit\Code\PerformanceTests\Enclave\E_VByte.cpp:163.2
$LN732:
  00a20 e8 fc ff ff ff   call __security_check_cookie           ;\\Mac\Home\Documents\Studium\6. Semester\Bachelorarbeit\Code\PerformanceTests\Enclave\E_VByte.cpp:163.2
$LN733:
                                ; LOE rbp rdi rsp r12 r13 r14 r15 rip zmm6 zmm7 zmm8 zmm9 zmm10 zmm11 zmm12 zmm13 zmm14 zmm15
.B6.15::                        ; Preds .B6.8
                                ; Execution count [0.00e+000]
$LN734:
  00a25 48 8b 45 38      mov rax, QWORD PTR [56+rbp]            ;\\Mac\Home\Documents\Studium\6. Semester\Bachelorarbeit\Code\PerformanceTests\Enclave\E_VByte.cpp:163.2[spill]
$LN735:
  00a29 48 8b 5d 50      mov rbx, QWORD PTR [80+rbp]            ;\\Mac\Home\Documents\Studium\6. Semester\Bachelorarbeit\Code\PerformanceTests\Enclave\E_VByte.cpp:163.2[spill]
$LN736:
  00a2d 48 8b 75 58      mov rsi, QWORD PTR [88+rbp]            ;\\Mac\Home\Documents\Studium\6. Semester\Bachelorarbeit\Code\PerformanceTests\Enclave\E_VByte.cpp:163.2[spill]
$LN737:
  00a31 48 8d a5 90 00 
        00 00            lea rsp, QWORD PTR [144+rbp]           ;\\Mac\Home\Documents\Studium\6. Semester\Bachelorarbeit\Code\PerformanceTests\Enclave\E_VByte.cpp:163.2
$LN738:
  00a38 5d               pop rbp                                ;\\Mac\Home\Documents\Studium\6. Semester\Bachelorarbeit\Code\PerformanceTests\Enclave\E_VByte.cpp:163.2
$LN739:
  00a39 c3               ret                                    ;\\Mac\Home\Documents\Studium\6. Semester\Bachelorarbeit\Code\PerformanceTests\Enclave\E_VByte.cpp:163.2
$LN740:
                                ; LOE
.B6.9::
$LN741:
; mark_end;
enclaveVByteEncodeEncryptedPreproc ENDP
$LNenclaveVByteEncodeEncryptedPreproc$742:
$LNenclaveVByteEncodeEncryptedPreproc$743:
_TEXT	ENDS
.xdata	SEGMENT  DWORD   READ  ''
	ALIGN 004H
.unwind.enclaveVByteEncodeEncryptedPreproc.B1_B15	DD	889722113
	DD	1061909
	DD	1139729
	DD	17302285
	DD	1342242840
.xdata	ENDS
.pdata	SEGMENT  DWORD   READ  ''
	ALIGN 004H
.pdata.enclaveVByteEncodeEncryptedPreproc.B1_B15	DD	imagerel .B6.1
	DD	imagerel .B6.9
	DD	imagerel .unwind.enclaveVByteEncodeEncryptedPreproc.B1_B15
.pdata	ENDS
_RDATA	SEGMENT     READ  'DATA'
key.84.0	DD	875770417
	DD	943142453
	DD	842084409
	DD	3486771
iv.84.0	DD	875770417
	DD	943142453
	DD	842084409
	DD	3486771
_RDATA	ENDS
_DATA	SEGMENT      'DATA'
_DATA	ENDS
; -- End  enclaveVByteEncodeEncryptedPreproc
_DATA	SEGMENT      'DATA'
EXTRN	__security_cookie:BYTE
_DATA	ENDS
EXTRN	decryptBytes:PROC
EXTRN	encryptBytes:PROC
EXTRN	??3@YAXPEAX@Z:PROC
EXTRN	??2@YAPEAX_K@Z:PROC
EXTRN	__security_check_cookie:PROC
EXTRN	__ImageBase:PROC
	INCLUDELIB <libmmt>
	INCLUDELIB <LIBCMTD>
	INCLUDELIB <libirc>
	INCLUDELIB <svml_dispmt>
	INCLUDELIB <OLDNAMES>
	INCLUDELIB <libdecimal>
	END
