; mark_description "Intel(R) C++ Intel(R) 64 Compiler for applications running on Intel(R) 64, Version 17.0.4.210 Build 20170411";
; mark_description "";
; mark_description "-c -Qm64 -IC:\\Program Files (x86)\\Intel\\IntelSGXSDK\\include -IC:\\Program Files (x86)\\Intel\\IntelSGXSD";
; mark_description "K\\include\\tlibc -IC:\\Program Files (x86)\\Intel\\IntelSGXSDK\\include\\libc++ -IC:\\Program Files (x86)\\";
; mark_description "Intel\\IntelSGXSDK\\include\\ipp -IC:\\Program Files (x86)\\IntelSWTools\\compilers_and_libraries_2017.2.187";
; mark_description "\\windows\\compiler\\include -Zi -nologo -W3 -Od -Oi -D __INTEL_COMPILER=1700 -D _WINDLL -EHs -EHc -MTd -GS ";
; mark_description "-arch:AVX -QaxSSE3 -QxSSE3 -Zc:wchar_t -Zc:forScope -FAcs -FaEnclaveSimulation\\ -FoEnclaveSimulation\\ -FdE";
; mark_description "nclaveSimulation\\vc140.pdb -TC -S";
	OPTION DOTNAME
_TEXT	SEGMENT      'CODE'
TXTST0:
_2__routine_start_sgx_enclaveJustCopy_0:
; -- Begin  sgx_enclaveJustCopy
_TEXT	ENDS
_TEXT	SEGMENT      'CODE'
; mark_begin;

; --- sgx_enclaveJustCopy(void *)
sgx_enclaveJustCopy	PROC PRIVATE
; parameter 1(pms): rcx
.B1.1::                         ; Preds .B1.0
                                ; Execution count [0.00e+000]

;;; {

L2::
                                                           ;\\Mac\Home\Documents\Studium\6. Semester\Bachelorarbeit\Code\PerformanceTests\Enclave\PerformanceTests_t.c:186.1
$LN0:
        push      rbp                                           ;\\Mac\Home\Documents\Studium\6. Semester\Bachelorarbeit\Code\PerformanceTests\Enclave\PerformanceTests_t.c:186.1
$LN1:
        sub       rsp, 192                                      ;\\Mac\Home\Documents\Studium\6. Semester\Bachelorarbeit\Code\PerformanceTests\Enclave\PerformanceTests_t.c:186.1
$LN2:
        lea       rbp, QWORD PTR [32+rsp]                       ;\\Mac\Home\Documents\Studium\6. Semester\Bachelorarbeit\Code\PerformanceTests\Enclave\PerformanceTests_t.c:186.1
$LN3:
        mov       QWORD PTR [152+rbp], rdi                      ;\\Mac\Home\Documents\Studium\6. Semester\Bachelorarbeit\Code\PerformanceTests\Enclave\PerformanceTests_t.c:186.1[spill]
$LN4:
        mov       QWORD PTR [144+rbp], rsi                      ;\\Mac\Home\Documents\Studium\6. Semester\Bachelorarbeit\Code\PerformanceTests\Enclave\PerformanceTests_t.c:186.1[spill]
$LN5:
        mov       QWORD PTR [176+rbp], rcx                      ;\\Mac\Home\Documents\Studium\6. Semester\Bachelorarbeit\Code\PerformanceTests\Enclave\PerformanceTests_t.c:186.1
$LN6:

;;; 	ms_enclaveJustCopy_t* ms = SGX_CAST(ms_enclaveJustCopy_t*, pms);

        mov       rax, QWORD PTR [176+rbp]                      ;\\Mac\Home\Documents\Studium\6. Semester\Bachelorarbeit\Code\PerformanceTests\Enclave\PerformanceTests_t.c:187.27
$LN7:
        mov       QWORD PTR [16+rbp], rax                       ;\\Mac\Home\Documents\Studium\6. Semester\Bachelorarbeit\Code\PerformanceTests\Enclave\PerformanceTests_t.c:187.27
$LN8:

;;; 	sgx_status_t status = SGX_SUCCESS;

        mov       DWORD PTR [rbp], 0                            ;\\Mac\Home\Documents\Studium\6. Semester\Bachelorarbeit\Code\PerformanceTests\Enclave\PerformanceTests_t.c:188.22
$LN9:

;;; 	uint8_t* _tmp_in = ms->ms_in;

        mov       rax, QWORD PTR [16+rbp]                       ;\\Mac\Home\Documents\Studium\6. Semester\Bachelorarbeit\Code\PerformanceTests\Enclave\PerformanceTests_t.c:189.19
$LN10:
        mov       rax, QWORD PTR [8+rax]                        ;\\Mac\Home\Documents\Studium\6. Semester\Bachelorarbeit\Code\PerformanceTests\Enclave\PerformanceTests_t.c:189.19
$LN11:
        mov       QWORD PTR [24+rbp], rax                       ;\\Mac\Home\Documents\Studium\6. Semester\Bachelorarbeit\Code\PerformanceTests\Enclave\PerformanceTests_t.c:189.19
$LN12:

;;; 	size_t _tmp_length = ms->ms_length;

        mov       rax, QWORD PTR [16+rbp]                       ;\\Mac\Home\Documents\Studium\6. Semester\Bachelorarbeit\Code\PerformanceTests\Enclave\PerformanceTests_t.c:190.21
$LN13:
        mov       rax, QWORD PTR [16+rax]                       ;\\Mac\Home\Documents\Studium\6. Semester\Bachelorarbeit\Code\PerformanceTests\Enclave\PerformanceTests_t.c:190.21
$LN14:
        mov       QWORD PTR [32+rbp], rax                       ;\\Mac\Home\Documents\Studium\6. Semester\Bachelorarbeit\Code\PerformanceTests\Enclave\PerformanceTests_t.c:190.21
$LN15:

;;; 	size_t _len_in = _tmp_length;

        mov       rax, QWORD PTR [32+rbp]                       ;\\Mac\Home\Documents\Studium\6. Semester\Bachelorarbeit\Code\PerformanceTests\Enclave\PerformanceTests_t.c:191.17
$LN16:
        mov       QWORD PTR [40+rbp], rax                       ;\\Mac\Home\Documents\Studium\6. Semester\Bachelorarbeit\Code\PerformanceTests\Enclave\PerformanceTests_t.c:191.17
$LN17:

;;; 	uint8_t* _in_in = NULL;

        mov       QWORD PTR [48+rbp], 0                         ;\\Mac\Home\Documents\Studium\6. Semester\Bachelorarbeit\Code\PerformanceTests\Enclave\PerformanceTests_t.c:192.18
$LN18:

;;; 	uint8_t* _tmp_out = ms->ms_out;

        mov       rax, QWORD PTR [16+rbp]                       ;\\Mac\Home\Documents\Studium\6. Semester\Bachelorarbeit\Code\PerformanceTests\Enclave\PerformanceTests_t.c:193.20
$LN19:
        mov       rax, QWORD PTR [24+rax]                       ;\\Mac\Home\Documents\Studium\6. Semester\Bachelorarbeit\Code\PerformanceTests\Enclave\PerformanceTests_t.c:193.20
$LN20:
        mov       QWORD PTR [56+rbp], rax                       ;\\Mac\Home\Documents\Studium\6. Semester\Bachelorarbeit\Code\PerformanceTests\Enclave\PerformanceTests_t.c:193.20
$LN21:

;;; 	size_t _len_out = _tmp_length;

        mov       rax, QWORD PTR [32+rbp]                       ;\\Mac\Home\Documents\Studium\6. Semester\Bachelorarbeit\Code\PerformanceTests\Enclave\PerformanceTests_t.c:194.18
$LN22:
        mov       QWORD PTR [64+rbp], rax                       ;\\Mac\Home\Documents\Studium\6. Semester\Bachelorarbeit\Code\PerformanceTests\Enclave\PerformanceTests_t.c:194.18
$LN23:

;;; 	uint8_t* _in_out = NULL;

        mov       QWORD PTR [72+rbp], 0                         ;\\Mac\Home\Documents\Studium\6. Semester\Bachelorarbeit\Code\PerformanceTests\Enclave\PerformanceTests_t.c:195.19
$LN24:
                                ; LOE rbx rbp rsp r12 r13 r14 r15 rip zmm6 zmm7 zmm8 zmm9 zmm10 zmm11 zmm12 zmm13 zmm14 zmm15
.B1.2::                         ; Preds .B1.5 .B1.1
                                ; Execution count [0.00e+000]
$LN25:

;;; 
;;; 	CHECK_REF_POINTER(pms, sizeof(ms_enclaveJustCopy_t));

        mov       rax, QWORD PTR [176+rbp]                      ;\\Mac\Home\Documents\Studium\6. Semester\Bachelorarbeit\Code\PerformanceTests\Enclave\PerformanceTests_t.c:197.2
$LN26:
        test      rax, rax                                      ;\\Mac\Home\Documents\Studium\6. Semester\Bachelorarbeit\Code\PerformanceTests\Enclave\PerformanceTests_t.c:197.2
$LN27:
        je        .B1.6         ; Prob 50%                      ;\\Mac\Home\Documents\Studium\6. Semester\Bachelorarbeit\Code\PerformanceTests\Enclave\PerformanceTests_t.c:197.2
$LN28:
                                ; LOE rbx rbp rsp r12 r13 r14 r15 rip zmm6 zmm7 zmm8 zmm9 zmm10 zmm11 zmm12 zmm13 zmm14 zmm15
.B1.3::                         ; Preds .B1.2
                                ; Execution count [0.00e+000]
$LN29:
        mov       rax, QWORD PTR [176+rbp]                      ;\\Mac\Home\Documents\Studium\6. Semester\Bachelorarbeit\Code\PerformanceTests\Enclave\PerformanceTests_t.c:197.2
$LN30:
        mov       edx, 32                                       ;\\Mac\Home\Documents\Studium\6. Semester\Bachelorarbeit\Code\PerformanceTests\Enclave\PerformanceTests_t.c:197.2
$LN31:
        mov       rcx, rax                                      ;\\Mac\Home\Documents\Studium\6. Semester\Bachelorarbeit\Code\PerformanceTests\Enclave\PerformanceTests_t.c:197.2
$LN32:
;       sgx_is_outside_enclave(const void *, size_t)
        call      sgx_is_outside_enclave                        ;\\Mac\Home\Documents\Studium\6. Semester\Bachelorarbeit\Code\PerformanceTests\Enclave\PerformanceTests_t.c:197.2
$LN33:
                                ; LOE rbx rbp rsp r12 r13 r14 r15 rip eax zmm6 zmm7 zmm8 zmm9 zmm10 zmm11 zmm12 zmm13 zmm14 zmm15
.B1.37::                        ; Preds .B1.3
                                ; Execution count [0.00e+000]
$LN34:
        mov       DWORD PTR [4+rbp], eax                        ;\\Mac\Home\Documents\Studium\6. Semester\Bachelorarbeit\Code\PerformanceTests\Enclave\PerformanceTests_t.c:197.2
$LN35:
                                ; LOE rbx rbp rsp r12 r13 r14 r15 rip zmm6 zmm7 zmm8 zmm9 zmm10 zmm11 zmm12 zmm13 zmm14 zmm15
.B1.4::                         ; Preds .B1.37
                                ; Execution count [0.00e+000]
$LN36:
        mov       eax, DWORD PTR [4+rbp]                        ;\\Mac\Home\Documents\Studium\6. Semester\Bachelorarbeit\Code\PerformanceTests\Enclave\PerformanceTests_t.c:197.2
$LN37:
        test      eax, eax                                      ;\\Mac\Home\Documents\Studium\6. Semester\Bachelorarbeit\Code\PerformanceTests\Enclave\PerformanceTests_t.c:197.2
$LN38:
        je        .B1.6         ; Prob 50%                      ;\\Mac\Home\Documents\Studium\6. Semester\Bachelorarbeit\Code\PerformanceTests\Enclave\PerformanceTests_t.c:197.2
$LN39:
                                ; LOE rbx rbp rsp r12 r13 r14 r15 rip zmm6 zmm7 zmm8 zmm9 zmm10 zmm11 zmm12 zmm13 zmm14 zmm15
.B1.5::                         ; Preds .B1.4
                                ; Execution count [0.00e+000]
$LN40:
        mov       eax, 0                                        ;\\Mac\Home\Documents\Studium\6. Semester\Bachelorarbeit\Code\PerformanceTests\Enclave\PerformanceTests_t.c:197.2
$LN41:
        test      eax, eax                                      ;\\Mac\Home\Documents\Studium\6. Semester\Bachelorarbeit\Code\PerformanceTests\Enclave\PerformanceTests_t.c:197.2
$LN42:
        jne       .B1.2         ; Prob 0%                       ;\\Mac\Home\Documents\Studium\6. Semester\Bachelorarbeit\Code\PerformanceTests\Enclave\PerformanceTests_t.c:197.2
$LN43:
        jmp       .B1.7         ; Prob 100%                     ;\\Mac\Home\Documents\Studium\6. Semester\Bachelorarbeit\Code\PerformanceTests\Enclave\PerformanceTests_t.c:197.2
$LN44:
                                ; LOE rbx rbp rsp r12 r13 r14 r15 rip zmm6 zmm7 zmm8 zmm9 zmm10 zmm11 zmm12 zmm13 zmm14 zmm15
.B1.6::                         ; Preds .B1.2 .B1.4
                                ; Execution count [0.00e+000]
$LN45:
        mov       eax, 2                                        ;\\Mac\Home\Documents\Studium\6. Semester\Bachelorarbeit\Code\PerformanceTests\Enclave\PerformanceTests_t.c:197.2
$LN46:
        mov       rsi, QWORD PTR [144+rbp]                      ;\\Mac\Home\Documents\Studium\6. Semester\Bachelorarbeit\Code\PerformanceTests\Enclave\PerformanceTests_t.c:197.2[spill]
$LN47:
        mov       rdi, QWORD PTR [152+rbp]                      ;\\Mac\Home\Documents\Studium\6. Semester\Bachelorarbeit\Code\PerformanceTests\Enclave\PerformanceTests_t.c:197.2[spill]
$LN48:
        lea       rsp, QWORD PTR [160+rbp]                      ;\\Mac\Home\Documents\Studium\6. Semester\Bachelorarbeit\Code\PerformanceTests\Enclave\PerformanceTests_t.c:197.2
$LN49:
        pop       rbp                                           ;\\Mac\Home\Documents\Studium\6. Semester\Bachelorarbeit\Code\PerformanceTests\Enclave\PerformanceTests_t.c:197.2
$LN50:
        ret                                                     ;\\Mac\Home\Documents\Studium\6. Semester\Bachelorarbeit\Code\PerformanceTests\Enclave\PerformanceTests_t.c:197.2
$LN51:
                                ; LOE
.B1.7::                         ; Preds .B1.10 .B1.5
                                ; Execution count [0.00e+000]
$LN52:

;;; 	CHECK_UNIQUE_POINTER(_tmp_in, _len_in);

        mov       rax, QWORD PTR [24+rbp]                       ;\\Mac\Home\Documents\Studium\6. Semester\Bachelorarbeit\Code\PerformanceTests\Enclave\PerformanceTests_t.c:198.2
$LN53:
        test      rax, rax                                      ;\\Mac\Home\Documents\Studium\6. Semester\Bachelorarbeit\Code\PerformanceTests\Enclave\PerformanceTests_t.c:198.2
$LN54:
        je        .B1.10        ; Prob 50%                      ;\\Mac\Home\Documents\Studium\6. Semester\Bachelorarbeit\Code\PerformanceTests\Enclave\PerformanceTests_t.c:198.2
$LN55:
                                ; LOE rbx rbp rsp r12 r13 r14 r15 rip zmm6 zmm7 zmm8 zmm9 zmm10 zmm11 zmm12 zmm13 zmm14 zmm15
.B1.8::                         ; Preds .B1.7
                                ; Execution count [0.00e+000]
$LN56:
        mov       rax, QWORD PTR [24+rbp]                       ;\\Mac\Home\Documents\Studium\6. Semester\Bachelorarbeit\Code\PerformanceTests\Enclave\PerformanceTests_t.c:198.2
$LN57:
        mov       rdx, QWORD PTR [40+rbp]                       ;\\Mac\Home\Documents\Studium\6. Semester\Bachelorarbeit\Code\PerformanceTests\Enclave\PerformanceTests_t.c:198.2
$LN58:
        mov       rcx, rax                                      ;\\Mac\Home\Documents\Studium\6. Semester\Bachelorarbeit\Code\PerformanceTests\Enclave\PerformanceTests_t.c:198.2
$LN59:
;       sgx_is_outside_enclave(const void *, size_t)
        call      sgx_is_outside_enclave                        ;\\Mac\Home\Documents\Studium\6. Semester\Bachelorarbeit\Code\PerformanceTests\Enclave\PerformanceTests_t.c:198.2
$LN60:
                                ; LOE rbx rbp rsp r12 r13 r14 r15 rip eax zmm6 zmm7 zmm8 zmm9 zmm10 zmm11 zmm12 zmm13 zmm14 zmm15
.B1.38::                        ; Preds .B1.8
                                ; Execution count [0.00e+000]
$LN61:
        mov       DWORD PTR [8+rbp], eax                        ;\\Mac\Home\Documents\Studium\6. Semester\Bachelorarbeit\Code\PerformanceTests\Enclave\PerformanceTests_t.c:198.2
$LN62:
                                ; LOE rbx rbp rsp r12 r13 r14 r15 rip zmm6 zmm7 zmm8 zmm9 zmm10 zmm11 zmm12 zmm13 zmm14 zmm15
.B1.9::                         ; Preds .B1.38
                                ; Execution count [0.00e+000]
$LN63:
        mov       eax, DWORD PTR [8+rbp]                        ;\\Mac\Home\Documents\Studium\6. Semester\Bachelorarbeit\Code\PerformanceTests\Enclave\PerformanceTests_t.c:198.2
$LN64:
        test      eax, eax                                      ;\\Mac\Home\Documents\Studium\6. Semester\Bachelorarbeit\Code\PerformanceTests\Enclave\PerformanceTests_t.c:198.2
$LN65:
        je        .B1.11        ; Prob 50%                      ;\\Mac\Home\Documents\Studium\6. Semester\Bachelorarbeit\Code\PerformanceTests\Enclave\PerformanceTests_t.c:198.2
$LN66:
                                ; LOE rbx rbp rsp r12 r13 r14 r15 rip zmm6 zmm7 zmm8 zmm9 zmm10 zmm11 zmm12 zmm13 zmm14 zmm15
.B1.10::                        ; Preds .B1.9 .B1.7
                                ; Execution count [0.00e+000]
$LN67:
        mov       eax, 0                                        ;\\Mac\Home\Documents\Studium\6. Semester\Bachelorarbeit\Code\PerformanceTests\Enclave\PerformanceTests_t.c:198.2
$LN68:
        test      eax, eax                                      ;\\Mac\Home\Documents\Studium\6. Semester\Bachelorarbeit\Code\PerformanceTests\Enclave\PerformanceTests_t.c:198.2
$LN69:
        jne       .B1.7         ; Prob 0%                       ;\\Mac\Home\Documents\Studium\6. Semester\Bachelorarbeit\Code\PerformanceTests\Enclave\PerformanceTests_t.c:198.2
$LN70:
        jmp       .B1.12        ; Prob 100%                     ;\\Mac\Home\Documents\Studium\6. Semester\Bachelorarbeit\Code\PerformanceTests\Enclave\PerformanceTests_t.c:198.2
$LN71:
                                ; LOE rbx rbp rsp r12 r13 r14 r15 rip zmm6 zmm7 zmm8 zmm9 zmm10 zmm11 zmm12 zmm13 zmm14 zmm15
.B1.11::                        ; Preds .B1.9
                                ; Execution count [0.00e+000]
$LN72:
        mov       eax, 2                                        ;\\Mac\Home\Documents\Studium\6. Semester\Bachelorarbeit\Code\PerformanceTests\Enclave\PerformanceTests_t.c:198.2
$LN73:
        mov       rsi, QWORD PTR [144+rbp]                      ;\\Mac\Home\Documents\Studium\6. Semester\Bachelorarbeit\Code\PerformanceTests\Enclave\PerformanceTests_t.c:198.2[spill]
$LN74:
        mov       rdi, QWORD PTR [152+rbp]                      ;\\Mac\Home\Documents\Studium\6. Semester\Bachelorarbeit\Code\PerformanceTests\Enclave\PerformanceTests_t.c:198.2[spill]
$LN75:
        lea       rsp, QWORD PTR [160+rbp]                      ;\\Mac\Home\Documents\Studium\6. Semester\Bachelorarbeit\Code\PerformanceTests\Enclave\PerformanceTests_t.c:198.2
$LN76:
        pop       rbp                                           ;\\Mac\Home\Documents\Studium\6. Semester\Bachelorarbeit\Code\PerformanceTests\Enclave\PerformanceTests_t.c:198.2
$LN77:
        ret                                                     ;\\Mac\Home\Documents\Studium\6. Semester\Bachelorarbeit\Code\PerformanceTests\Enclave\PerformanceTests_t.c:198.2
$LN78:
                                ; LOE
.B1.12::                        ; Preds .B1.15 .B1.10
                                ; Execution count [0.00e+000]
$LN79:

;;; 	CHECK_UNIQUE_POINTER(_tmp_out, _len_out);

        mov       rax, QWORD PTR [56+rbp]                       ;\\Mac\Home\Documents\Studium\6. Semester\Bachelorarbeit\Code\PerformanceTests\Enclave\PerformanceTests_t.c:199.2
$LN80:
        test      rax, rax                                      ;\\Mac\Home\Documents\Studium\6. Semester\Bachelorarbeit\Code\PerformanceTests\Enclave\PerformanceTests_t.c:199.2
$LN81:
        je        .B1.15        ; Prob 50%                      ;\\Mac\Home\Documents\Studium\6. Semester\Bachelorarbeit\Code\PerformanceTests\Enclave\PerformanceTests_t.c:199.2
$LN82:
                                ; LOE rbx rbp rsp r12 r13 r14 r15 rip zmm6 zmm7 zmm8 zmm9 zmm10 zmm11 zmm12 zmm13 zmm14 zmm15
.B1.13::                        ; Preds .B1.12
                                ; Execution count [0.00e+000]
$LN83:
        mov       rax, QWORD PTR [56+rbp]                       ;\\Mac\Home\Documents\Studium\6. Semester\Bachelorarbeit\Code\PerformanceTests\Enclave\PerformanceTests_t.c:199.2
$LN84:
        mov       rdx, QWORD PTR [64+rbp]                       ;\\Mac\Home\Documents\Studium\6. Semester\Bachelorarbeit\Code\PerformanceTests\Enclave\PerformanceTests_t.c:199.2
$LN85:
        mov       rcx, rax                                      ;\\Mac\Home\Documents\Studium\6. Semester\Bachelorarbeit\Code\PerformanceTests\Enclave\PerformanceTests_t.c:199.2
$LN86:
;       sgx_is_outside_enclave(const void *, size_t)
        call      sgx_is_outside_enclave                        ;\\Mac\Home\Documents\Studium\6. Semester\Bachelorarbeit\Code\PerformanceTests\Enclave\PerformanceTests_t.c:199.2
$LN87:
                                ; LOE rbx rbp rsp r12 r13 r14 r15 rip eax zmm6 zmm7 zmm8 zmm9 zmm10 zmm11 zmm12 zmm13 zmm14 zmm15
.B1.39::                        ; Preds .B1.13
                                ; Execution count [0.00e+000]
$LN88:
        mov       DWORD PTR [12+rbp], eax                       ;\\Mac\Home\Documents\Studium\6. Semester\Bachelorarbeit\Code\PerformanceTests\Enclave\PerformanceTests_t.c:199.2
$LN89:
                                ; LOE rbx rbp rsp r12 r13 r14 r15 rip zmm6 zmm7 zmm8 zmm9 zmm10 zmm11 zmm12 zmm13 zmm14 zmm15
.B1.14::                        ; Preds .B1.39
                                ; Execution count [0.00e+000]
$LN90:
        mov       eax, DWORD PTR [12+rbp]                       ;\\Mac\Home\Documents\Studium\6. Semester\Bachelorarbeit\Code\PerformanceTests\Enclave\PerformanceTests_t.c:199.2
$LN91:
        test      eax, eax                                      ;\\Mac\Home\Documents\Studium\6. Semester\Bachelorarbeit\Code\PerformanceTests\Enclave\PerformanceTests_t.c:199.2
$LN92:
        je        .B1.16        ; Prob 50%                      ;\\Mac\Home\Documents\Studium\6. Semester\Bachelorarbeit\Code\PerformanceTests\Enclave\PerformanceTests_t.c:199.2
$LN93:
                                ; LOE rbx rbp rsp r12 r13 r14 r15 rip zmm6 zmm7 zmm8 zmm9 zmm10 zmm11 zmm12 zmm13 zmm14 zmm15
.B1.15::                        ; Preds .B1.14 .B1.12
                                ; Execution count [0.00e+000]
$LN94:
        mov       eax, 0                                        ;\\Mac\Home\Documents\Studium\6. Semester\Bachelorarbeit\Code\PerformanceTests\Enclave\PerformanceTests_t.c:199.2
$LN95:
        test      eax, eax                                      ;\\Mac\Home\Documents\Studium\6. Semester\Bachelorarbeit\Code\PerformanceTests\Enclave\PerformanceTests_t.c:199.2
$LN96:
        jne       .B1.12        ; Prob 0%                       ;\\Mac\Home\Documents\Studium\6. Semester\Bachelorarbeit\Code\PerformanceTests\Enclave\PerformanceTests_t.c:199.2
$LN97:
        jmp       .B1.17        ; Prob 100%                     ;\\Mac\Home\Documents\Studium\6. Semester\Bachelorarbeit\Code\PerformanceTests\Enclave\PerformanceTests_t.c:199.2
$LN98:
                                ; LOE rbx rbp rsp r12 r13 r14 r15 rip zmm6 zmm7 zmm8 zmm9 zmm10 zmm11 zmm12 zmm13 zmm14 zmm15
.B1.16::                        ; Preds .B1.14
                                ; Execution count [0.00e+000]
$LN99:
        mov       eax, 2                                        ;\\Mac\Home\Documents\Studium\6. Semester\Bachelorarbeit\Code\PerformanceTests\Enclave\PerformanceTests_t.c:199.2
$LN100:
        mov       rsi, QWORD PTR [144+rbp]                      ;\\Mac\Home\Documents\Studium\6. Semester\Bachelorarbeit\Code\PerformanceTests\Enclave\PerformanceTests_t.c:199.2[spill]
$LN101:
        mov       rdi, QWORD PTR [152+rbp]                      ;\\Mac\Home\Documents\Studium\6. Semester\Bachelorarbeit\Code\PerformanceTests\Enclave\PerformanceTests_t.c:199.2[spill]
$LN102:
        lea       rsp, QWORD PTR [160+rbp]                      ;\\Mac\Home\Documents\Studium\6. Semester\Bachelorarbeit\Code\PerformanceTests\Enclave\PerformanceTests_t.c:199.2
$LN103:
        pop       rbp                                           ;\\Mac\Home\Documents\Studium\6. Semester\Bachelorarbeit\Code\PerformanceTests\Enclave\PerformanceTests_t.c:199.2
$LN104:
        ret                                                     ;\\Mac\Home\Documents\Studium\6. Semester\Bachelorarbeit\Code\PerformanceTests\Enclave\PerformanceTests_t.c:199.2
$LN105:
                                ; LOE
.B1.17::                        ; Preds .B1.15
                                ; Execution count [0.00e+000]
$LN106:

;;; 
;;; 	if (_tmp_in != NULL) {

        mov       rax, QWORD PTR [24+rbp]                       ;\\Mac\Home\Documents\Studium\6. Semester\Bachelorarbeit\Code\PerformanceTests\Enclave\PerformanceTests_t.c:201.2
$LN107:
        test      rax, rax                                      ;\\Mac\Home\Documents\Studium\6. Semester\Bachelorarbeit\Code\PerformanceTests\Enclave\PerformanceTests_t.c:201.2
$LN108:
        je        .B1.22        ; Prob 50%                      ;\\Mac\Home\Documents\Studium\6. Semester\Bachelorarbeit\Code\PerformanceTests\Enclave\PerformanceTests_t.c:201.2
$LN109:
                                ; LOE rbx rbp rsp r12 r13 r14 r15 rip zmm6 zmm7 zmm8 zmm9 zmm10 zmm11 zmm12 zmm13 zmm14 zmm15
.B1.18::                        ; Preds .B1.17
                                ; Execution count [0.00e+000]
$LN110:

;;; 		_in_in = (uint8_t*)malloc(_len_in);

        mov       rax, QWORD PTR [40+rbp]                       ;\\Mac\Home\Documents\Studium\6. Semester\Bachelorarbeit\Code\PerformanceTests\Enclave\PerformanceTests_t.c:202.3
$LN111:
        mov       rcx, rax                                      ;\\Mac\Home\Documents\Studium\6. Semester\Bachelorarbeit\Code\PerformanceTests\Enclave\PerformanceTests_t.c:202.3
$LN112:
;       malloc(size_t)
        call      malloc                                        ;\\Mac\Home\Documents\Studium\6. Semester\Bachelorarbeit\Code\PerformanceTests\Enclave\PerformanceTests_t.c:202.3
$LN113:
                                ; LOE rax rbx rbp rsp r12 r13 r14 r15 rip zmm6 zmm7 zmm8 zmm9 zmm10 zmm11 zmm12 zmm13 zmm14 zmm15
.B1.40::                        ; Preds .B1.18
                                ; Execution count [0.00e+000]
$LN114:
        mov       QWORD PTR [80+rbp], rax                       ;\\Mac\Home\Documents\Studium\6. Semester\Bachelorarbeit\Code\PerformanceTests\Enclave\PerformanceTests_t.c:202.3
$LN115:
                                ; LOE rbx rbp rsp r12 r13 r14 r15 rip zmm6 zmm7 zmm8 zmm9 zmm10 zmm11 zmm12 zmm13 zmm14 zmm15
.B1.19::                        ; Preds .B1.40
                                ; Execution count [0.00e+000]
$LN116:
        mov       rax, QWORD PTR [80+rbp]                       ;\\Mac\Home\Documents\Studium\6. Semester\Bachelorarbeit\Code\PerformanceTests\Enclave\PerformanceTests_t.c:202.3
$LN117:
        mov       QWORD PTR [48+rbp], rax                       ;\\Mac\Home\Documents\Studium\6. Semester\Bachelorarbeit\Code\PerformanceTests\Enclave\PerformanceTests_t.c:202.3
$LN118:

;;; 		if (_in_in == NULL) {

        mov       rax, QWORD PTR [48+rbp]                       ;\\Mac\Home\Documents\Studium\6. Semester\Bachelorarbeit\Code\PerformanceTests\Enclave\PerformanceTests_t.c:203.3
$LN119:
        test      rax, rax                                      ;\\Mac\Home\Documents\Studium\6. Semester\Bachelorarbeit\Code\PerformanceTests\Enclave\PerformanceTests_t.c:203.3
$LN120:
        jne       .B1.21        ; Prob 50%                      ;\\Mac\Home\Documents\Studium\6. Semester\Bachelorarbeit\Code\PerformanceTests\Enclave\PerformanceTests_t.c:203.3
$LN121:
                                ; LOE rbx rbp rsp r12 r13 r14 r15 rip zmm6 zmm7 zmm8 zmm9 zmm10 zmm11 zmm12 zmm13 zmm14 zmm15
.B1.20::                        ; Preds .B1.19
                                ; Execution count [0.00e+000]
$LN122:

;;; 			status = SGX_ERROR_OUT_OF_MEMORY;

        mov       DWORD PTR [rbp], 3                            ;\\Mac\Home\Documents\Studium\6. Semester\Bachelorarbeit\Code\PerformanceTests\Enclave\PerformanceTests_t.c:204.4
$LN123:
        jmp       .B1.29        ; Prob 100%                     ;\\Mac\Home\Documents\Studium\6. Semester\Bachelorarbeit\Code\PerformanceTests\Enclave\PerformanceTests_t.c:204.4
$LN124:
                                ; LOE rbx rbp rsp r12 r13 r14 r15 rip zmm6 zmm7 zmm8 zmm9 zmm10 zmm11 zmm12 zmm13 zmm14 zmm15
.B1.21::                        ; Preds .B1.19
                                ; Execution count [0.00e+000]
$LN125:

;;; 			goto err;
;;; 		}
;;; 
;;; 		memcpy(_in_in, _tmp_in, _len_in);

        mov       rax, QWORD PTR [48+rbp]                       ;\\Mac\Home\Documents\Studium\6. Semester\Bachelorarbeit\Code\PerformanceTests\Enclave\PerformanceTests_t.c:208.3
$LN126:
        mov       rdx, QWORD PTR [24+rbp]                       ;\\Mac\Home\Documents\Studium\6. Semester\Bachelorarbeit\Code\PerformanceTests\Enclave\PerformanceTests_t.c:208.3
$LN127:
        mov       rcx, QWORD PTR [40+rbp]                       ;\\Mac\Home\Documents\Studium\6. Semester\Bachelorarbeit\Code\PerformanceTests\Enclave\PerformanceTests_t.c:208.3
$LN128:
        mov       rdi, rax                                      ;\\Mac\Home\Documents\Studium\6. Semester\Bachelorarbeit\Code\PerformanceTests\Enclave\PerformanceTests_t.c:208.3
$LN129:
        mov       rsi, rdx                                      ;\\Mac\Home\Documents\Studium\6. Semester\Bachelorarbeit\Code\PerformanceTests\Enclave\PerformanceTests_t.c:208.3
$LN130:
        mov       rdx, rdi                                      ;\\Mac\Home\Documents\Studium\6. Semester\Bachelorarbeit\Code\PerformanceTests\Enclave\PerformanceTests_t.c:208.3
$LN131:
        mov       eax, ecx                                      ;\\Mac\Home\Documents\Studium\6. Semester\Bachelorarbeit\Code\PerformanceTests\Enclave\PerformanceTests_t.c:208.3
$LN132:
        shr       rcx, 2                                        ;\\Mac\Home\Documents\Studium\6. Semester\Bachelorarbeit\Code\PerformanceTests\Enclave\PerformanceTests_t.c:208.3
$LN133:
        rep   movsd                                             ;\\Mac\Home\Documents\Studium\6. Semester\Bachelorarbeit\Code\PerformanceTests\Enclave\PerformanceTests_t.c:208.3
$LN134:
        mov       ecx, eax                                      ;\\Mac\Home\Documents\Studium\6. Semester\Bachelorarbeit\Code\PerformanceTests\Enclave\PerformanceTests_t.c:208.3
$LN135:
        and       ecx, 3                                        ;\\Mac\Home\Documents\Studium\6. Semester\Bachelorarbeit\Code\PerformanceTests\Enclave\PerformanceTests_t.c:208.3
$LN136:
        rep   movsb                                             ;\\Mac\Home\Documents\Studium\6. Semester\Bachelorarbeit\Code\PerformanceTests\Enclave\PerformanceTests_t.c:208.3
$LN137:
        mov       rax, rdx                                      ;\\Mac\Home\Documents\Studium\6. Semester\Bachelorarbeit\Code\PerformanceTests\Enclave\PerformanceTests_t.c:208.3
$LN138:
                                ; LOE rax rbx rbp rsp r12 r13 r14 r15 rip zmm6 zmm7 zmm8 zmm9 zmm10 zmm11 zmm12 zmm13 zmm14 zmm15
.B1.41::                        ; Preds .B1.21
                                ; Execution count [0.00e+000]
$LN139:
        mov       QWORD PTR [104+rbp], rax                      ;\\Mac\Home\Documents\Studium\6. Semester\Bachelorarbeit\Code\PerformanceTests\Enclave\PerformanceTests_t.c:208.3
$LN140:
                                ; LOE rbx rbp rsp r12 r13 r14 r15 rip zmm6 zmm7 zmm8 zmm9 zmm10 zmm11 zmm12 zmm13 zmm14 zmm15
.B1.22::                        ; Preds .B1.41 .B1.17
                                ; Execution count [0.00e+000]
$LN141:

;;; 	}
;;; 	if (_tmp_out != NULL) {

        mov       rax, QWORD PTR [56+rbp]                       ;\\Mac\Home\Documents\Studium\6. Semester\Bachelorarbeit\Code\PerformanceTests\Enclave\PerformanceTests_t.c:210.2
$LN142:
        test      rax, rax                                      ;\\Mac\Home\Documents\Studium\6. Semester\Bachelorarbeit\Code\PerformanceTests\Enclave\PerformanceTests_t.c:210.2
$LN143:
        je        .B1.27        ; Prob 50%                      ;\\Mac\Home\Documents\Studium\6. Semester\Bachelorarbeit\Code\PerformanceTests\Enclave\PerformanceTests_t.c:210.2
$LN144:
                                ; LOE rbx rbp rsp r12 r13 r14 r15 rip zmm6 zmm7 zmm8 zmm9 zmm10 zmm11 zmm12 zmm13 zmm14 zmm15
.B1.23::                        ; Preds .B1.22
                                ; Execution count [0.00e+000]
$LN145:

;;; 		if ((_in_out = (uint8_t*)malloc(_len_out)) == NULL) {

        mov       rax, QWORD PTR [64+rbp]                       ;\\Mac\Home\Documents\Studium\6. Semester\Bachelorarbeit\Code\PerformanceTests\Enclave\PerformanceTests_t.c:211.3
$LN146:
        mov       rcx, rax                                      ;\\Mac\Home\Documents\Studium\6. Semester\Bachelorarbeit\Code\PerformanceTests\Enclave\PerformanceTests_t.c:211.3
$LN147:
;       malloc(size_t)
        call      malloc                                        ;\\Mac\Home\Documents\Studium\6. Semester\Bachelorarbeit\Code\PerformanceTests\Enclave\PerformanceTests_t.c:211.3
$LN148:
                                ; LOE rax rbx rbp rsp r12 r13 r14 r15 rip zmm6 zmm7 zmm8 zmm9 zmm10 zmm11 zmm12 zmm13 zmm14 zmm15
.B1.42::                        ; Preds .B1.23
                                ; Execution count [0.00e+000]
$LN149:
        mov       QWORD PTR [88+rbp], rax                       ;\\Mac\Home\Documents\Studium\6. Semester\Bachelorarbeit\Code\PerformanceTests\Enclave\PerformanceTests_t.c:211.3
$LN150:
                                ; LOE rbx rbp rsp r12 r13 r14 r15 rip zmm6 zmm7 zmm8 zmm9 zmm10 zmm11 zmm12 zmm13 zmm14 zmm15
.B1.24::                        ; Preds .B1.42
                                ; Execution count [0.00e+000]
$LN151:
        mov       rax, QWORD PTR [88+rbp]                       ;\\Mac\Home\Documents\Studium\6. Semester\Bachelorarbeit\Code\PerformanceTests\Enclave\PerformanceTests_t.c:211.3
$LN152:
        mov       QWORD PTR [112+rbp], rax                      ;\\Mac\Home\Documents\Studium\6. Semester\Bachelorarbeit\Code\PerformanceTests\Enclave\PerformanceTests_t.c:211.3
$LN153:
        mov       rax, QWORD PTR [112+rbp]                      ;\\Mac\Home\Documents\Studium\6. Semester\Bachelorarbeit\Code\PerformanceTests\Enclave\PerformanceTests_t.c:211.3
$LN154:
        mov       QWORD PTR [72+rbp], rax                       ;\\Mac\Home\Documents\Studium\6. Semester\Bachelorarbeit\Code\PerformanceTests\Enclave\PerformanceTests_t.c:211.3
$LN155:
        mov       rax, QWORD PTR [112+rbp]                      ;\\Mac\Home\Documents\Studium\6. Semester\Bachelorarbeit\Code\PerformanceTests\Enclave\PerformanceTests_t.c:211.3
$LN156:
        test      rax, rax                                      ;\\Mac\Home\Documents\Studium\6. Semester\Bachelorarbeit\Code\PerformanceTests\Enclave\PerformanceTests_t.c:211.3
$LN157:
        jne       .B1.26        ; Prob 50%                      ;\\Mac\Home\Documents\Studium\6. Semester\Bachelorarbeit\Code\PerformanceTests\Enclave\PerformanceTests_t.c:211.3
$LN158:
                                ; LOE rbx rbp rsp r12 r13 r14 r15 rip zmm6 zmm7 zmm8 zmm9 zmm10 zmm11 zmm12 zmm13 zmm14 zmm15
.B1.25::                        ; Preds .B1.24
                                ; Execution count [0.00e+000]
$LN159:

;;; 			status = SGX_ERROR_OUT_OF_MEMORY;

        mov       DWORD PTR [rbp], 3                            ;\\Mac\Home\Documents\Studium\6. Semester\Bachelorarbeit\Code\PerformanceTests\Enclave\PerformanceTests_t.c:212.4
$LN160:
        jmp       .B1.29        ; Prob 100%                     ;\\Mac\Home\Documents\Studium\6. Semester\Bachelorarbeit\Code\PerformanceTests\Enclave\PerformanceTests_t.c:212.4
$LN161:
                                ; LOE rbx rbp rsp r12 r13 r14 r15 rip zmm6 zmm7 zmm8 zmm9 zmm10 zmm11 zmm12 zmm13 zmm14 zmm15
.B1.26::                        ; Preds .B1.24
                                ; Execution count [0.00e+000]
$LN162:

;;; 			goto err;
;;; 		}
;;; 
;;; 		memset((void*)_in_out, 0, _len_out);

        mov       rax, QWORD PTR [72+rbp]                       ;\\Mac\Home\Documents\Studium\6. Semester\Bachelorarbeit\Code\PerformanceTests\Enclave\PerformanceTests_t.c:216.3
$LN163:
        mov       edx, 0                                        ;\\Mac\Home\Documents\Studium\6. Semester\Bachelorarbeit\Code\PerformanceTests\Enclave\PerformanceTests_t.c:216.3
$LN164:
        mov       rcx, QWORD PTR [64+rbp]                       ;\\Mac\Home\Documents\Studium\6. Semester\Bachelorarbeit\Code\PerformanceTests\Enclave\PerformanceTests_t.c:216.3
$LN165:
        mov       rdi, rax                                      ;\\Mac\Home\Documents\Studium\6. Semester\Bachelorarbeit\Code\PerformanceTests\Enclave\PerformanceTests_t.c:216.3
$LN166:
        mov       eax, edx                                      ;\\Mac\Home\Documents\Studium\6. Semester\Bachelorarbeit\Code\PerformanceTests\Enclave\PerformanceTests_t.c:216.3
$LN167:
        and       eax, 65535                                    ;\\Mac\Home\Documents\Studium\6. Semester\Bachelorarbeit\Code\PerformanceTests\Enclave\PerformanceTests_t.c:216.3
$LN168:
        mov       ah, al                                        ;\\Mac\Home\Documents\Studium\6. Semester\Bachelorarbeit\Code\PerformanceTests\Enclave\PerformanceTests_t.c:216.3
$LN169:
        mov       edx, eax                                      ;\\Mac\Home\Documents\Studium\6. Semester\Bachelorarbeit\Code\PerformanceTests\Enclave\PerformanceTests_t.c:216.3
$LN170:
        shl       eax, 16                                       ;\\Mac\Home\Documents\Studium\6. Semester\Bachelorarbeit\Code\PerformanceTests\Enclave\PerformanceTests_t.c:216.3
$LN171:
        or        eax, edx                                      ;\\Mac\Home\Documents\Studium\6. Semester\Bachelorarbeit\Code\PerformanceTests\Enclave\PerformanceTests_t.c:216.3
$LN172:
        mov       esi, ecx                                      ;\\Mac\Home\Documents\Studium\6. Semester\Bachelorarbeit\Code\PerformanceTests\Enclave\PerformanceTests_t.c:216.3
$LN173:
        shr       rcx, 2                                        ;\\Mac\Home\Documents\Studium\6. Semester\Bachelorarbeit\Code\PerformanceTests\Enclave\PerformanceTests_t.c:216.3
$LN174:
        mov       rdx, rdi                                      ;\\Mac\Home\Documents\Studium\6. Semester\Bachelorarbeit\Code\PerformanceTests\Enclave\PerformanceTests_t.c:216.3
$LN175:
        rep   stosd                                             ;\\Mac\Home\Documents\Studium\6. Semester\Bachelorarbeit\Code\PerformanceTests\Enclave\PerformanceTests_t.c:216.3
$LN176:
        mov       ecx, esi                                      ;\\Mac\Home\Documents\Studium\6. Semester\Bachelorarbeit\Code\PerformanceTests\Enclave\PerformanceTests_t.c:216.3
$LN177:
        and       ecx, 3                                        ;\\Mac\Home\Documents\Studium\6. Semester\Bachelorarbeit\Code\PerformanceTests\Enclave\PerformanceTests_t.c:216.3
$LN178:
        rep   stosb                                             ;\\Mac\Home\Documents\Studium\6. Semester\Bachelorarbeit\Code\PerformanceTests\Enclave\PerformanceTests_t.c:216.3
$LN179:
        mov       rax, rdx                                      ;\\Mac\Home\Documents\Studium\6. Semester\Bachelorarbeit\Code\PerformanceTests\Enclave\PerformanceTests_t.c:216.3
$LN180:
                                ; LOE rax rbx rbp rsp r12 r13 r14 r15 rip zmm6 zmm7 zmm8 zmm9 zmm10 zmm11 zmm12 zmm13 zmm14 zmm15
.B1.43::                        ; Preds .B1.26
                                ; Execution count [0.00e+000]
$LN181:
        mov       QWORD PTR [120+rbp], rax                      ;\\Mac\Home\Documents\Studium\6. Semester\Bachelorarbeit\Code\PerformanceTests\Enclave\PerformanceTests_t.c:216.3
$LN182:
                                ; LOE rbx rbp rsp r12 r13 r14 r15 rip zmm6 zmm7 zmm8 zmm9 zmm10 zmm11 zmm12 zmm13 zmm14 zmm15
.B1.27::                        ; Preds .B1.43 .B1.22
                                ; Execution count [0.00e+000]
$LN183:

;;; 	}
;;; 	ms->ms_retval = enclaveJustCopy(_in_in, _tmp_length, _in_out);

        mov       rax, QWORD PTR [48+rbp]                       ;\\Mac\Home\Documents\Studium\6. Semester\Bachelorarbeit\Code\PerformanceTests\Enclave\PerformanceTests_t.c:218.2
$LN184:
        mov       rdx, QWORD PTR [32+rbp]                       ;\\Mac\Home\Documents\Studium\6. Semester\Bachelorarbeit\Code\PerformanceTests\Enclave\PerformanceTests_t.c:218.2
$LN185:
        mov       rcx, QWORD PTR [72+rbp]                       ;\\Mac\Home\Documents\Studium\6. Semester\Bachelorarbeit\Code\PerformanceTests\Enclave\PerformanceTests_t.c:218.2
$LN186:
        mov       QWORD PTR [136+rbp], rcx                      ;\\Mac\Home\Documents\Studium\6. Semester\Bachelorarbeit\Code\PerformanceTests\Enclave\PerformanceTests_t.c:218.2[spill]
$LN187:
        mov       rcx, rax                                      ;\\Mac\Home\Documents\Studium\6. Semester\Bachelorarbeit\Code\PerformanceTests\Enclave\PerformanceTests_t.c:218.2
$LN188:
        mov       rax, QWORD PTR [136+rbp]                      ;\\Mac\Home\Documents\Studium\6. Semester\Bachelorarbeit\Code\PerformanceTests\Enclave\PerformanceTests_t.c:218.2[spill]
$LN189:
        mov       r8, rax                                       ;\\Mac\Home\Documents\Studium\6. Semester\Bachelorarbeit\Code\PerformanceTests\Enclave\PerformanceTests_t.c:218.2
$LN190:
;       enclaveJustCopy(uint8_t *, size_t, uint8_t *)
        call      enclaveJustCopy                               ;\\Mac\Home\Documents\Studium\6. Semester\Bachelorarbeit\Code\PerformanceTests\Enclave\PerformanceTests_t.c:218.2
$LN191:
                                ; LOE rax rbx rbp rsp r12 r13 r14 r15 rip zmm6 zmm7 zmm8 zmm9 zmm10 zmm11 zmm12 zmm13 zmm14 zmm15
.B1.44::                        ; Preds .B1.27
                                ; Execution count [0.00e+000]
$LN192:
        mov       QWORD PTR [96+rbp], rax                       ;\\Mac\Home\Documents\Studium\6. Semester\Bachelorarbeit\Code\PerformanceTests\Enclave\PerformanceTests_t.c:218.2
$LN193:
                                ; LOE rbx rbp rsp r12 r13 r14 r15 rip zmm6 zmm7 zmm8 zmm9 zmm10 zmm11 zmm12 zmm13 zmm14 zmm15
.B1.28::                        ; Preds .B1.44
                                ; Execution count [0.00e+000]
$LN194:
        mov       rax, QWORD PTR [16+rbp]                       ;\\Mac\Home\Documents\Studium\6. Semester\Bachelorarbeit\Code\PerformanceTests\Enclave\PerformanceTests_t.c:218.2
$LN195:
        mov       rdx, QWORD PTR [96+rbp]                       ;\\Mac\Home\Documents\Studium\6. Semester\Bachelorarbeit\Code\PerformanceTests\Enclave\PerformanceTests_t.c:218.2
$LN196:
        mov       QWORD PTR [rax], rdx                          ;\\Mac\Home\Documents\Studium\6. Semester\Bachelorarbeit\Code\PerformanceTests\Enclave\PerformanceTests_t.c:218.2
$LN197:
                                ; LOE rbx rbp rsp r12 r13 r14 r15 rip zmm6 zmm7 zmm8 zmm9 zmm10 zmm11 zmm12 zmm13 zmm14 zmm15
.B1.29::                        ; Preds .B1.28 .B1.25 .B1.20
                                ; Execution count [0.00e+000]
$LN198:

;;; err:
;;; 	if (_in_in) free(_in_in);

        mov       rax, QWORD PTR [48+rbp]                       ;\\Mac\Home\Documents\Studium\6. Semester\Bachelorarbeit\Code\PerformanceTests\Enclave\PerformanceTests_t.c:220.2
$LN199:
        test      rax, rax                                      ;\\Mac\Home\Documents\Studium\6. Semester\Bachelorarbeit\Code\PerformanceTests\Enclave\PerformanceTests_t.c:220.2
$LN200:
        je        .B1.31        ; Prob 50%                      ;\\Mac\Home\Documents\Studium\6. Semester\Bachelorarbeit\Code\PerformanceTests\Enclave\PerformanceTests_t.c:220.2
$LN201:
                                ; LOE rbx rbp rsp r12 r13 r14 r15 rip zmm6 zmm7 zmm8 zmm9 zmm10 zmm11 zmm12 zmm13 zmm14 zmm15
.B1.30::                        ; Preds .B1.29
                                ; Execution count [0.00e+000]
$LN202:
        mov       rax, QWORD PTR [48+rbp]                       ;\\Mac\Home\Documents\Studium\6. Semester\Bachelorarbeit\Code\PerformanceTests\Enclave\PerformanceTests_t.c:220.14
$LN203:
        mov       rcx, rax                                      ;\\Mac\Home\Documents\Studium\6. Semester\Bachelorarbeit\Code\PerformanceTests\Enclave\PerformanceTests_t.c:220.14
$LN204:
;       free(void *)
        call      free                                          ;\\Mac\Home\Documents\Studium\6. Semester\Bachelorarbeit\Code\PerformanceTests\Enclave\PerformanceTests_t.c:220.14
$LN205:
                                ; LOE rbx rbp rsp r12 r13 r14 r15 rip zmm6 zmm7 zmm8 zmm9 zmm10 zmm11 zmm12 zmm13 zmm14 zmm15
.B1.45::                        ; Preds .B1.30
                                ; Execution count [0.00e+000]
$LN206:
                                ; LOE rbx rbp rsp r12 r13 r14 r15 rip zmm6 zmm7 zmm8 zmm9 zmm10 zmm11 zmm12 zmm13 zmm14 zmm15
.B1.31::                        ; Preds .B1.45 .B1.29
                                ; Execution count [0.00e+000]
$LN207:

;;; 	if (_in_out) {

        mov       rax, QWORD PTR [72+rbp]                       ;\\Mac\Home\Documents\Studium\6. Semester\Bachelorarbeit\Code\PerformanceTests\Enclave\PerformanceTests_t.c:221.2
$LN208:
        test      rax, rax                                      ;\\Mac\Home\Documents\Studium\6. Semester\Bachelorarbeit\Code\PerformanceTests\Enclave\PerformanceTests_t.c:221.2
$LN209:
        je        .B1.34        ; Prob 50%                      ;\\Mac\Home\Documents\Studium\6. Semester\Bachelorarbeit\Code\PerformanceTests\Enclave\PerformanceTests_t.c:221.2
$LN210:
                                ; LOE rbx rbp rsp r12 r13 r14 r15 rip zmm6 zmm7 zmm8 zmm9 zmm10 zmm11 zmm12 zmm13 zmm14 zmm15
.B1.32::                        ; Preds .B1.31
                                ; Execution count [0.00e+000]
$LN211:

;;; 		memcpy(_tmp_out, _in_out, _len_out);

        mov       rax, QWORD PTR [56+rbp]                       ;\\Mac\Home\Documents\Studium\6. Semester\Bachelorarbeit\Code\PerformanceTests\Enclave\PerformanceTests_t.c:222.3
$LN212:
        mov       rdx, QWORD PTR [72+rbp]                       ;\\Mac\Home\Documents\Studium\6. Semester\Bachelorarbeit\Code\PerformanceTests\Enclave\PerformanceTests_t.c:222.3
$LN213:
        mov       rcx, QWORD PTR [64+rbp]                       ;\\Mac\Home\Documents\Studium\6. Semester\Bachelorarbeit\Code\PerformanceTests\Enclave\PerformanceTests_t.c:222.3
$LN214:
        mov       rdi, rax                                      ;\\Mac\Home\Documents\Studium\6. Semester\Bachelorarbeit\Code\PerformanceTests\Enclave\PerformanceTests_t.c:222.3
$LN215:
        mov       rsi, rdx                                      ;\\Mac\Home\Documents\Studium\6. Semester\Bachelorarbeit\Code\PerformanceTests\Enclave\PerformanceTests_t.c:222.3
$LN216:
        mov       rdx, rdi                                      ;\\Mac\Home\Documents\Studium\6. Semester\Bachelorarbeit\Code\PerformanceTests\Enclave\PerformanceTests_t.c:222.3
$LN217:
        mov       eax, ecx                                      ;\\Mac\Home\Documents\Studium\6. Semester\Bachelorarbeit\Code\PerformanceTests\Enclave\PerformanceTests_t.c:222.3
$LN218:
        shr       rcx, 2                                        ;\\Mac\Home\Documents\Studium\6. Semester\Bachelorarbeit\Code\PerformanceTests\Enclave\PerformanceTests_t.c:222.3
$LN219:
        rep   movsd                                             ;\\Mac\Home\Documents\Studium\6. Semester\Bachelorarbeit\Code\PerformanceTests\Enclave\PerformanceTests_t.c:222.3
$LN220:
        mov       ecx, eax                                      ;\\Mac\Home\Documents\Studium\6. Semester\Bachelorarbeit\Code\PerformanceTests\Enclave\PerformanceTests_t.c:222.3
$LN221:
        and       ecx, 3                                        ;\\Mac\Home\Documents\Studium\6. Semester\Bachelorarbeit\Code\PerformanceTests\Enclave\PerformanceTests_t.c:222.3
$LN222:
        rep   movsb                                             ;\\Mac\Home\Documents\Studium\6. Semester\Bachelorarbeit\Code\PerformanceTests\Enclave\PerformanceTests_t.c:222.3
$LN223:
        mov       rax, rdx                                      ;\\Mac\Home\Documents\Studium\6. Semester\Bachelorarbeit\Code\PerformanceTests\Enclave\PerformanceTests_t.c:222.3
$LN224:
                                ; LOE rax rbx rbp rsp r12 r13 r14 r15 rip zmm6 zmm7 zmm8 zmm9 zmm10 zmm11 zmm12 zmm13 zmm14 zmm15
.B1.46::                        ; Preds .B1.32
                                ; Execution count [0.00e+000]
$LN225:
        mov       QWORD PTR [128+rbp], rax                      ;\\Mac\Home\Documents\Studium\6. Semester\Bachelorarbeit\Code\PerformanceTests\Enclave\PerformanceTests_t.c:222.3
$LN226:
                                ; LOE rbx rbp rsp r12 r13 r14 r15 rip zmm6 zmm7 zmm8 zmm9 zmm10 zmm11 zmm12 zmm13 zmm14 zmm15
.B1.33::                        ; Preds .B1.46
                                ; Execution count [0.00e+000]
$LN227:

;;; 		free(_in_out);

        mov       rax, QWORD PTR [72+rbp]                       ;\\Mac\Home\Documents\Studium\6. Semester\Bachelorarbeit\Code\PerformanceTests\Enclave\PerformanceTests_t.c:223.3
$LN228:
        mov       rcx, rax                                      ;\\Mac\Home\Documents\Studium\6. Semester\Bachelorarbeit\Code\PerformanceTests\Enclave\PerformanceTests_t.c:223.3
$LN229:
;       free(void *)
        call      free                                          ;\\Mac\Home\Documents\Studium\6. Semester\Bachelorarbeit\Code\PerformanceTests\Enclave\PerformanceTests_t.c:223.3
$LN230:
                                ; LOE rbx rbp rsp r12 r13 r14 r15 rip zmm6 zmm7 zmm8 zmm9 zmm10 zmm11 zmm12 zmm13 zmm14 zmm15
.B1.47::                        ; Preds .B1.33
                                ; Execution count [0.00e+000]
$LN231:
                                ; LOE rbx rbp rsp r12 r13 r14 r15 rip zmm6 zmm7 zmm8 zmm9 zmm10 zmm11 zmm12 zmm13 zmm14 zmm15
.B1.34::                        ; Preds .B1.47 .B1.31
                                ; Execution count [0.00e+000]
$LN232:

;;; 	}
;;; 
;;; 	return status;

        mov       eax, DWORD PTR [rbp]                          ;\\Mac\Home\Documents\Studium\6. Semester\Bachelorarbeit\Code\PerformanceTests\Enclave\PerformanceTests_t.c:226.2
$LN233:
        mov       rsi, QWORD PTR [144+rbp]                      ;\\Mac\Home\Documents\Studium\6. Semester\Bachelorarbeit\Code\PerformanceTests\Enclave\PerformanceTests_t.c:226.2[spill]
$LN234:
        mov       rdi, QWORD PTR [152+rbp]                      ;\\Mac\Home\Documents\Studium\6. Semester\Bachelorarbeit\Code\PerformanceTests\Enclave\PerformanceTests_t.c:226.2[spill]
$LN235:
        lea       rsp, QWORD PTR [160+rbp]                      ;\\Mac\Home\Documents\Studium\6. Semester\Bachelorarbeit\Code\PerformanceTests\Enclave\PerformanceTests_t.c:226.2
$LN236:
        pop       rbp                                           ;\\Mac\Home\Documents\Studium\6. Semester\Bachelorarbeit\Code\PerformanceTests\Enclave\PerformanceTests_t.c:226.2
$LN237:
        ret                                                     ;\\Mac\Home\Documents\Studium\6. Semester\Bachelorarbeit\Code\PerformanceTests\Enclave\PerformanceTests_t.c:226.2
$LN238:
                                ; LOE
.B1.35::
$LN239:
; mark_end;
sgx_enclaveJustCopy ENDP
$LNsgx_enclaveJustCopy$240:
_TEXT	ENDS
.xdata	SEGMENT  DWORD   READ  ''
	ALIGN 004H
.unwind.sgx_enclaveJustCopy.B1_B34	DD	621288193
	DD	1467419
	DD	1537044
	DD	17302285
	DD	1342242840
.xdata	ENDS
.pdata	SEGMENT  DWORD   READ  ''
	ALIGN 004H
.pdata.sgx_enclaveJustCopy.B1_B34	DD	imagerel .B1.1
	DD	imagerel .B1.35
	DD	imagerel .unwind.sgx_enclaveJustCopy.B1_B34
.pdata	ENDS
_DATA	SEGMENT      'DATA'
_DATA	ENDS
; -- End  sgx_enclaveJustCopy
_TEXT	SEGMENT      'CODE'
_2__routine_start_sgx_enclaveNoCopy_1:
; -- Begin  sgx_enclaveNoCopy
_TEXT	ENDS
_TEXT	SEGMENT      'CODE'
; mark_begin;

; --- sgx_enclaveNoCopy(void *)
sgx_enclaveNoCopy	PROC PRIVATE
; parameter 1(pms): rcx
.B2.1::                         ; Preds .B2.0
                                ; Execution count [0.00e+000]

;;; {

L11::
                                                          ;\\Mac\Home\Documents\Studium\6. Semester\Bachelorarbeit\Code\PerformanceTests\Enclave\PerformanceTests_t.c:230.1
$LN241:
        push      rbp                                           ;\\Mac\Home\Documents\Studium\6. Semester\Bachelorarbeit\Code\PerformanceTests\Enclave\PerformanceTests_t.c:230.1
$LN242:
        sub       rsp, 80                                       ;\\Mac\Home\Documents\Studium\6. Semester\Bachelorarbeit\Code\PerformanceTests\Enclave\PerformanceTests_t.c:230.1
$LN243:
        lea       rbp, QWORD PTR [32+rsp]                       ;\\Mac\Home\Documents\Studium\6. Semester\Bachelorarbeit\Code\PerformanceTests\Enclave\PerformanceTests_t.c:230.1
$LN244:
        mov       QWORD PTR [64+rbp], rcx                       ;\\Mac\Home\Documents\Studium\6. Semester\Bachelorarbeit\Code\PerformanceTests\Enclave\PerformanceTests_t.c:230.1
$LN245:

;;; 	ms_enclaveNoCopy_t* ms = SGX_CAST(ms_enclaveNoCopy_t*, pms);

        mov       rax, QWORD PTR [64+rbp]                       ;\\Mac\Home\Documents\Studium\6. Semester\Bachelorarbeit\Code\PerformanceTests\Enclave\PerformanceTests_t.c:231.25
$LN246:
        mov       QWORD PTR [8+rbp], rax                        ;\\Mac\Home\Documents\Studium\6. Semester\Bachelorarbeit\Code\PerformanceTests\Enclave\PerformanceTests_t.c:231.25
$LN247:

;;; 	sgx_status_t status = SGX_SUCCESS;

        mov       DWORD PTR [rbp], 0                            ;\\Mac\Home\Documents\Studium\6. Semester\Bachelorarbeit\Code\PerformanceTests\Enclave\PerformanceTests_t.c:232.22
$LN248:

;;; 	uint8_t* _tmp_in = ms->ms_in;

        mov       rax, QWORD PTR [8+rbp]                        ;\\Mac\Home\Documents\Studium\6. Semester\Bachelorarbeit\Code\PerformanceTests\Enclave\PerformanceTests_t.c:233.19
$LN249:
        mov       rax, QWORD PTR [8+rax]                        ;\\Mac\Home\Documents\Studium\6. Semester\Bachelorarbeit\Code\PerformanceTests\Enclave\PerformanceTests_t.c:233.19
$LN250:
        mov       QWORD PTR [16+rbp], rax                       ;\\Mac\Home\Documents\Studium\6. Semester\Bachelorarbeit\Code\PerformanceTests\Enclave\PerformanceTests_t.c:233.19
$LN251:

;;; 	uint8_t* _tmp_out = ms->ms_out;

        mov       rax, QWORD PTR [8+rbp]                        ;\\Mac\Home\Documents\Studium\6. Semester\Bachelorarbeit\Code\PerformanceTests\Enclave\PerformanceTests_t.c:234.20
$LN252:
        mov       rax, QWORD PTR [24+rax]                       ;\\Mac\Home\Documents\Studium\6. Semester\Bachelorarbeit\Code\PerformanceTests\Enclave\PerformanceTests_t.c:234.20
$LN253:
        mov       QWORD PTR [24+rbp], rax                       ;\\Mac\Home\Documents\Studium\6. Semester\Bachelorarbeit\Code\PerformanceTests\Enclave\PerformanceTests_t.c:234.20
$LN254:
                                ; LOE rbx rbp rsi rdi rsp r12 r13 r14 r15 rip zmm6 zmm7 zmm8 zmm9 zmm10 zmm11 zmm12 zmm13 zmm14 zmm15
.B2.2::                         ; Preds .B2.5 .B2.1
                                ; Execution count [0.00e+000]
$LN255:

;;; 
;;; 	CHECK_REF_POINTER(pms, sizeof(ms_enclaveNoCopy_t));

        mov       rax, QWORD PTR [64+rbp]                       ;\\Mac\Home\Documents\Studium\6. Semester\Bachelorarbeit\Code\PerformanceTests\Enclave\PerformanceTests_t.c:236.2
$LN256:
        test      rax, rax                                      ;\\Mac\Home\Documents\Studium\6. Semester\Bachelorarbeit\Code\PerformanceTests\Enclave\PerformanceTests_t.c:236.2
$LN257:
        je        .B2.6         ; Prob 50%                      ;\\Mac\Home\Documents\Studium\6. Semester\Bachelorarbeit\Code\PerformanceTests\Enclave\PerformanceTests_t.c:236.2
$LN258:
                                ; LOE rbx rbp rsi rdi rsp r12 r13 r14 r15 rip zmm6 zmm7 zmm8 zmm9 zmm10 zmm11 zmm12 zmm13 zmm14 zmm15
.B2.3::                         ; Preds .B2.2
                                ; Execution count [0.00e+000]
$LN259:
        mov       rax, QWORD PTR [64+rbp]                       ;\\Mac\Home\Documents\Studium\6. Semester\Bachelorarbeit\Code\PerformanceTests\Enclave\PerformanceTests_t.c:236.2
$LN260:
        mov       edx, 32                                       ;\\Mac\Home\Documents\Studium\6. Semester\Bachelorarbeit\Code\PerformanceTests\Enclave\PerformanceTests_t.c:236.2
$LN261:
        mov       rcx, rax                                      ;\\Mac\Home\Documents\Studium\6. Semester\Bachelorarbeit\Code\PerformanceTests\Enclave\PerformanceTests_t.c:236.2
$LN262:
;       sgx_is_outside_enclave(const void *, size_t)
        call      sgx_is_outside_enclave                        ;\\Mac\Home\Documents\Studium\6. Semester\Bachelorarbeit\Code\PerformanceTests\Enclave\PerformanceTests_t.c:236.2
$LN263:
                                ; LOE rbx rbp rsi rdi rsp r12 r13 r14 r15 rip eax zmm6 zmm7 zmm8 zmm9 zmm10 zmm11 zmm12 zmm13 zmm14 zmm15
.B2.11::                        ; Preds .B2.3
                                ; Execution count [0.00e+000]
$LN264:
        mov       DWORD PTR [4+rbp], eax                        ;\\Mac\Home\Documents\Studium\6. Semester\Bachelorarbeit\Code\PerformanceTests\Enclave\PerformanceTests_t.c:236.2
$LN265:
                                ; LOE rbx rbp rsi rdi rsp r12 r13 r14 r15 rip zmm6 zmm7 zmm8 zmm9 zmm10 zmm11 zmm12 zmm13 zmm14 zmm15
.B2.4::                         ; Preds .B2.11
                                ; Execution count [0.00e+000]
$LN266:
        mov       eax, DWORD PTR [4+rbp]                        ;\\Mac\Home\Documents\Studium\6. Semester\Bachelorarbeit\Code\PerformanceTests\Enclave\PerformanceTests_t.c:236.2
$LN267:
        test      eax, eax                                      ;\\Mac\Home\Documents\Studium\6. Semester\Bachelorarbeit\Code\PerformanceTests\Enclave\PerformanceTests_t.c:236.2
$LN268:
        je        .B2.6         ; Prob 50%                      ;\\Mac\Home\Documents\Studium\6. Semester\Bachelorarbeit\Code\PerformanceTests\Enclave\PerformanceTests_t.c:236.2
$LN269:
                                ; LOE rbx rbp rsi rdi rsp r12 r13 r14 r15 rip zmm6 zmm7 zmm8 zmm9 zmm10 zmm11 zmm12 zmm13 zmm14 zmm15
.B2.5::                         ; Preds .B2.4
                                ; Execution count [0.00e+000]
$LN270:
        mov       eax, 0                                        ;\\Mac\Home\Documents\Studium\6. Semester\Bachelorarbeit\Code\PerformanceTests\Enclave\PerformanceTests_t.c:236.2
$LN271:
        test      eax, eax                                      ;\\Mac\Home\Documents\Studium\6. Semester\Bachelorarbeit\Code\PerformanceTests\Enclave\PerformanceTests_t.c:236.2
$LN272:
        jne       .B2.2         ; Prob 0%                       ;\\Mac\Home\Documents\Studium\6. Semester\Bachelorarbeit\Code\PerformanceTests\Enclave\PerformanceTests_t.c:236.2
$LN273:
        jmp       .B2.7         ; Prob 100%                     ;\\Mac\Home\Documents\Studium\6. Semester\Bachelorarbeit\Code\PerformanceTests\Enclave\PerformanceTests_t.c:236.2
$LN274:
                                ; LOE rbx rbp rsi rdi rsp r12 r13 r14 r15 rip zmm6 zmm7 zmm8 zmm9 zmm10 zmm11 zmm12 zmm13 zmm14 zmm15
.B2.6::                         ; Preds .B2.2 .B2.4
                                ; Execution count [0.00e+000]
$LN275:
        mov       eax, 2                                        ;\\Mac\Home\Documents\Studium\6. Semester\Bachelorarbeit\Code\PerformanceTests\Enclave\PerformanceTests_t.c:236.2
$LN276:
        lea       rsp, QWORD PTR [48+rbp]                       ;\\Mac\Home\Documents\Studium\6. Semester\Bachelorarbeit\Code\PerformanceTests\Enclave\PerformanceTests_t.c:236.2
$LN277:
        pop       rbp                                           ;\\Mac\Home\Documents\Studium\6. Semester\Bachelorarbeit\Code\PerformanceTests\Enclave\PerformanceTests_t.c:236.2
$LN278:
        ret                                                     ;\\Mac\Home\Documents\Studium\6. Semester\Bachelorarbeit\Code\PerformanceTests\Enclave\PerformanceTests_t.c:236.2
$LN279:
                                ; LOE
.B2.7::                         ; Preds .B2.5
                                ; Execution count [0.00e+000]
$LN280:

;;; 
;;; 	ms->ms_retval = enclaveNoCopy(_tmp_in, ms->ms_length, _tmp_out);

        mov       rax, QWORD PTR [16+rbp]                       ;\\Mac\Home\Documents\Studium\6. Semester\Bachelorarbeit\Code\PerformanceTests\Enclave\PerformanceTests_t.c:238.2
$LN281:
        mov       rdx, QWORD PTR [8+rbp]                        ;\\Mac\Home\Documents\Studium\6. Semester\Bachelorarbeit\Code\PerformanceTests\Enclave\PerformanceTests_t.c:238.2
$LN282:
        mov       rdx, QWORD PTR [16+rdx]                       ;\\Mac\Home\Documents\Studium\6. Semester\Bachelorarbeit\Code\PerformanceTests\Enclave\PerformanceTests_t.c:238.2
$LN283:
        mov       rcx, QWORD PTR [24+rbp]                       ;\\Mac\Home\Documents\Studium\6. Semester\Bachelorarbeit\Code\PerformanceTests\Enclave\PerformanceTests_t.c:238.2
$LN284:
        mov       QWORD PTR [40+rbp], rcx                       ;\\Mac\Home\Documents\Studium\6. Semester\Bachelorarbeit\Code\PerformanceTests\Enclave\PerformanceTests_t.c:238.2[spill]
$LN285:
        mov       rcx, rax                                      ;\\Mac\Home\Documents\Studium\6. Semester\Bachelorarbeit\Code\PerformanceTests\Enclave\PerformanceTests_t.c:238.2
$LN286:
        mov       rax, QWORD PTR [40+rbp]                       ;\\Mac\Home\Documents\Studium\6. Semester\Bachelorarbeit\Code\PerformanceTests\Enclave\PerformanceTests_t.c:238.2[spill]
$LN287:
        mov       r8, rax                                       ;\\Mac\Home\Documents\Studium\6. Semester\Bachelorarbeit\Code\PerformanceTests\Enclave\PerformanceTests_t.c:238.2
$LN288:
;       enclaveNoCopy(uint8_t *, size_t, uint8_t *)
        call      enclaveNoCopy                                 ;\\Mac\Home\Documents\Studium\6. Semester\Bachelorarbeit\Code\PerformanceTests\Enclave\PerformanceTests_t.c:238.2
$LN289:
                                ; LOE rax rbx rbp rsi rdi rsp r12 r13 r14 r15 rip zmm6 zmm7 zmm8 zmm9 zmm10 zmm11 zmm12 zmm13 zmm14 zmm15
.B2.12::                        ; Preds .B2.7
                                ; Execution count [0.00e+000]
$LN290:
        mov       QWORD PTR [32+rbp], rax                       ;\\Mac\Home\Documents\Studium\6. Semester\Bachelorarbeit\Code\PerformanceTests\Enclave\PerformanceTests_t.c:238.2
$LN291:
                                ; LOE rbx rbp rsi rdi rsp r12 r13 r14 r15 rip zmm6 zmm7 zmm8 zmm9 zmm10 zmm11 zmm12 zmm13 zmm14 zmm15
.B2.8::                         ; Preds .B2.12
                                ; Execution count [0.00e+000]
$LN292:
        mov       rax, QWORD PTR [8+rbp]                        ;\\Mac\Home\Documents\Studium\6. Semester\Bachelorarbeit\Code\PerformanceTests\Enclave\PerformanceTests_t.c:238.2
$LN293:
        mov       rdx, QWORD PTR [32+rbp]                       ;\\Mac\Home\Documents\Studium\6. Semester\Bachelorarbeit\Code\PerformanceTests\Enclave\PerformanceTests_t.c:238.2
$LN294:
        mov       QWORD PTR [rax], rdx                          ;\\Mac\Home\Documents\Studium\6. Semester\Bachelorarbeit\Code\PerformanceTests\Enclave\PerformanceTests_t.c:238.2
$LN295:

;;; 
;;; 
;;; 	return status;

        mov       eax, DWORD PTR [rbp]                          ;\\Mac\Home\Documents\Studium\6. Semester\Bachelorarbeit\Code\PerformanceTests\Enclave\PerformanceTests_t.c:241.2
$LN296:
        lea       rsp, QWORD PTR [48+rbp]                       ;\\Mac\Home\Documents\Studium\6. Semester\Bachelorarbeit\Code\PerformanceTests\Enclave\PerformanceTests_t.c:241.2
$LN297:
        pop       rbp                                           ;\\Mac\Home\Documents\Studium\6. Semester\Bachelorarbeit\Code\PerformanceTests\Enclave\PerformanceTests_t.c:241.2
$LN298:
        ret                                                     ;\\Mac\Home\Documents\Studium\6. Semester\Bachelorarbeit\Code\PerformanceTests\Enclave\PerformanceTests_t.c:241.2
$LN299:
                                ; LOE
.B2.9::
$LN300:
; mark_end;
sgx_enclaveNoCopy ENDP
$LNsgx_enclaveNoCopy$301:
_TEXT	ENDS
.xdata	SEGMENT  DWORD   READ  ''
	ALIGN 004H
.unwind.sgx_enclaveNoCopy.B1_B8	DD	620956161
	DD	2449801994
	DD	20481
.xdata	ENDS
.pdata	SEGMENT  DWORD   READ  ''
	ALIGN 004H
.pdata.sgx_enclaveNoCopy.B1_B8	DD	imagerel .B2.1
	DD	imagerel .B2.9
	DD	imagerel .unwind.sgx_enclaveNoCopy.B1_B8
.pdata	ENDS
_DATA	SEGMENT      'DATA'
_DATA	ENDS
; -- End  sgx_enclaveNoCopy
_TEXT	SEGMENT      'CODE'
_2__routine_start_sgx_enclaveCryptoNoCopy_2:
; -- Begin  sgx_enclaveCryptoNoCopy
_TEXT	ENDS
_TEXT	SEGMENT      'CODE'
; mark_begin;

; --- sgx_enclaveCryptoNoCopy(void *)
sgx_enclaveCryptoNoCopy	PROC PRIVATE
; parameter 1(pms): rcx
.B3.1::                         ; Preds .B3.0
                                ; Execution count [0.00e+000]

;;; {

L18::
                                                          ;\\Mac\Home\Documents\Studium\6. Semester\Bachelorarbeit\Code\PerformanceTests\Enclave\PerformanceTests_t.c:245.1
$LN302:
        push      rbp                                           ;\\Mac\Home\Documents\Studium\6. Semester\Bachelorarbeit\Code\PerformanceTests\Enclave\PerformanceTests_t.c:245.1
$LN303:
        sub       rsp, 80                                       ;\\Mac\Home\Documents\Studium\6. Semester\Bachelorarbeit\Code\PerformanceTests\Enclave\PerformanceTests_t.c:245.1
$LN304:
        lea       rbp, QWORD PTR [32+rsp]                       ;\\Mac\Home\Documents\Studium\6. Semester\Bachelorarbeit\Code\PerformanceTests\Enclave\PerformanceTests_t.c:245.1
$LN305:
        mov       QWORD PTR [64+rbp], rcx                       ;\\Mac\Home\Documents\Studium\6. Semester\Bachelorarbeit\Code\PerformanceTests\Enclave\PerformanceTests_t.c:245.1
$LN306:

;;; 	ms_enclaveCryptoNoCopy_t* ms = SGX_CAST(ms_enclaveCryptoNoCopy_t*, pms);

        mov       rax, QWORD PTR [64+rbp]                       ;\\Mac\Home\Documents\Studium\6. Semester\Bachelorarbeit\Code\PerformanceTests\Enclave\PerformanceTests_t.c:246.31
$LN307:
        mov       QWORD PTR [8+rbp], rax                        ;\\Mac\Home\Documents\Studium\6. Semester\Bachelorarbeit\Code\PerformanceTests\Enclave\PerformanceTests_t.c:246.31
$LN308:

;;; 	sgx_status_t status = SGX_SUCCESS;

        mov       DWORD PTR [rbp], 0                            ;\\Mac\Home\Documents\Studium\6. Semester\Bachelorarbeit\Code\PerformanceTests\Enclave\PerformanceTests_t.c:247.22
$LN309:

;;; 	uint8_t* _tmp_in = ms->ms_in;

        mov       rax, QWORD PTR [8+rbp]                        ;\\Mac\Home\Documents\Studium\6. Semester\Bachelorarbeit\Code\PerformanceTests\Enclave\PerformanceTests_t.c:248.19
$LN310:
        mov       rax, QWORD PTR [8+rax]                        ;\\Mac\Home\Documents\Studium\6. Semester\Bachelorarbeit\Code\PerformanceTests\Enclave\PerformanceTests_t.c:248.19
$LN311:
        mov       QWORD PTR [16+rbp], rax                       ;\\Mac\Home\Documents\Studium\6. Semester\Bachelorarbeit\Code\PerformanceTests\Enclave\PerformanceTests_t.c:248.19
$LN312:

;;; 	uint8_t* _tmp_out = ms->ms_out;

        mov       rax, QWORD PTR [8+rbp]                        ;\\Mac\Home\Documents\Studium\6. Semester\Bachelorarbeit\Code\PerformanceTests\Enclave\PerformanceTests_t.c:249.20
$LN313:
        mov       rax, QWORD PTR [24+rax]                       ;\\Mac\Home\Documents\Studium\6. Semester\Bachelorarbeit\Code\PerformanceTests\Enclave\PerformanceTests_t.c:249.20
$LN314:
        mov       QWORD PTR [24+rbp], rax                       ;\\Mac\Home\Documents\Studium\6. Semester\Bachelorarbeit\Code\PerformanceTests\Enclave\PerformanceTests_t.c:249.20
$LN315:
                                ; LOE rbx rbp rsi rdi rsp r12 r13 r14 r15 rip zmm6 zmm7 zmm8 zmm9 zmm10 zmm11 zmm12 zmm13 zmm14 zmm15
.B3.2::                         ; Preds .B3.5 .B3.1
                                ; Execution count [0.00e+000]
$LN316:

;;; 
;;; 	CHECK_REF_POINTER(pms, sizeof(ms_enclaveCryptoNoCopy_t));

        mov       rax, QWORD PTR [64+rbp]                       ;\\Mac\Home\Documents\Studium\6. Semester\Bachelorarbeit\Code\PerformanceTests\Enclave\PerformanceTests_t.c:251.2
$LN317:
        test      rax, rax                                      ;\\Mac\Home\Documents\Studium\6. Semester\Bachelorarbeit\Code\PerformanceTests\Enclave\PerformanceTests_t.c:251.2
$LN318:
        je        .B3.6         ; Prob 50%                      ;\\Mac\Home\Documents\Studium\6. Semester\Bachelorarbeit\Code\PerformanceTests\Enclave\PerformanceTests_t.c:251.2
$LN319:
                                ; LOE rbx rbp rsi rdi rsp r12 r13 r14 r15 rip zmm6 zmm7 zmm8 zmm9 zmm10 zmm11 zmm12 zmm13 zmm14 zmm15
.B3.3::                         ; Preds .B3.2
                                ; Execution count [0.00e+000]
$LN320:
        mov       rax, QWORD PTR [64+rbp]                       ;\\Mac\Home\Documents\Studium\6. Semester\Bachelorarbeit\Code\PerformanceTests\Enclave\PerformanceTests_t.c:251.2
$LN321:
        mov       edx, 32                                       ;\\Mac\Home\Documents\Studium\6. Semester\Bachelorarbeit\Code\PerformanceTests\Enclave\PerformanceTests_t.c:251.2
$LN322:
        mov       rcx, rax                                      ;\\Mac\Home\Documents\Studium\6. Semester\Bachelorarbeit\Code\PerformanceTests\Enclave\PerformanceTests_t.c:251.2
$LN323:
;       sgx_is_outside_enclave(const void *, size_t)
        call      sgx_is_outside_enclave                        ;\\Mac\Home\Documents\Studium\6. Semester\Bachelorarbeit\Code\PerformanceTests\Enclave\PerformanceTests_t.c:251.2
$LN324:
                                ; LOE rbx rbp rsi rdi rsp r12 r13 r14 r15 rip eax zmm6 zmm7 zmm8 zmm9 zmm10 zmm11 zmm12 zmm13 zmm14 zmm15
.B3.11::                        ; Preds .B3.3
                                ; Execution count [0.00e+000]
$LN325:
        mov       DWORD PTR [4+rbp], eax                        ;\\Mac\Home\Documents\Studium\6. Semester\Bachelorarbeit\Code\PerformanceTests\Enclave\PerformanceTests_t.c:251.2
$LN326:
                                ; LOE rbx rbp rsi rdi rsp r12 r13 r14 r15 rip zmm6 zmm7 zmm8 zmm9 zmm10 zmm11 zmm12 zmm13 zmm14 zmm15
.B3.4::                         ; Preds .B3.11
                                ; Execution count [0.00e+000]
$LN327:
        mov       eax, DWORD PTR [4+rbp]                        ;\\Mac\Home\Documents\Studium\6. Semester\Bachelorarbeit\Code\PerformanceTests\Enclave\PerformanceTests_t.c:251.2
$LN328:
        test      eax, eax                                      ;\\Mac\Home\Documents\Studium\6. Semester\Bachelorarbeit\Code\PerformanceTests\Enclave\PerformanceTests_t.c:251.2
$LN329:
        je        .B3.6         ; Prob 50%                      ;\\Mac\Home\Documents\Studium\6. Semester\Bachelorarbeit\Code\PerformanceTests\Enclave\PerformanceTests_t.c:251.2
$LN330:
                                ; LOE rbx rbp rsi rdi rsp r12 r13 r14 r15 rip zmm6 zmm7 zmm8 zmm9 zmm10 zmm11 zmm12 zmm13 zmm14 zmm15
.B3.5::                         ; Preds .B3.4
                                ; Execution count [0.00e+000]
$LN331:
        mov       eax, 0                                        ;\\Mac\Home\Documents\Studium\6. Semester\Bachelorarbeit\Code\PerformanceTests\Enclave\PerformanceTests_t.c:251.2
$LN332:
        test      eax, eax                                      ;\\Mac\Home\Documents\Studium\6. Semester\Bachelorarbeit\Code\PerformanceTests\Enclave\PerformanceTests_t.c:251.2
$LN333:
        jne       .B3.2         ; Prob 0%                       ;\\Mac\Home\Documents\Studium\6. Semester\Bachelorarbeit\Code\PerformanceTests\Enclave\PerformanceTests_t.c:251.2
$LN334:
        jmp       .B3.7         ; Prob 100%                     ;\\Mac\Home\Documents\Studium\6. Semester\Bachelorarbeit\Code\PerformanceTests\Enclave\PerformanceTests_t.c:251.2
$LN335:
                                ; LOE rbx rbp rsi rdi rsp r12 r13 r14 r15 rip zmm6 zmm7 zmm8 zmm9 zmm10 zmm11 zmm12 zmm13 zmm14 zmm15
.B3.6::                         ; Preds .B3.2 .B3.4
                                ; Execution count [0.00e+000]
$LN336:
        mov       eax, 2                                        ;\\Mac\Home\Documents\Studium\6. Semester\Bachelorarbeit\Code\PerformanceTests\Enclave\PerformanceTests_t.c:251.2
$LN337:
        lea       rsp, QWORD PTR [48+rbp]                       ;\\Mac\Home\Documents\Studium\6. Semester\Bachelorarbeit\Code\PerformanceTests\Enclave\PerformanceTests_t.c:251.2
$LN338:
        pop       rbp                                           ;\\Mac\Home\Documents\Studium\6. Semester\Bachelorarbeit\Code\PerformanceTests\Enclave\PerformanceTests_t.c:251.2
$LN339:
        ret                                                     ;\\Mac\Home\Documents\Studium\6. Semester\Bachelorarbeit\Code\PerformanceTests\Enclave\PerformanceTests_t.c:251.2
$LN340:
                                ; LOE
.B3.7::                         ; Preds .B3.5
                                ; Execution count [0.00e+000]
$LN341:

;;; 
;;; 	ms->ms_retval = enclaveCryptoNoCopy(_tmp_in, ms->ms_length, _tmp_out);

        mov       rax, QWORD PTR [16+rbp]                       ;\\Mac\Home\Documents\Studium\6. Semester\Bachelorarbeit\Code\PerformanceTests\Enclave\PerformanceTests_t.c:253.2
$LN342:
        mov       rdx, QWORD PTR [8+rbp]                        ;\\Mac\Home\Documents\Studium\6. Semester\Bachelorarbeit\Code\PerformanceTests\Enclave\PerformanceTests_t.c:253.2
$LN343:
        mov       rdx, QWORD PTR [16+rdx]                       ;\\Mac\Home\Documents\Studium\6. Semester\Bachelorarbeit\Code\PerformanceTests\Enclave\PerformanceTests_t.c:253.2
$LN344:
        mov       rcx, QWORD PTR [24+rbp]                       ;\\Mac\Home\Documents\Studium\6. Semester\Bachelorarbeit\Code\PerformanceTests\Enclave\PerformanceTests_t.c:253.2
$LN345:
        mov       QWORD PTR [40+rbp], rcx                       ;\\Mac\Home\Documents\Studium\6. Semester\Bachelorarbeit\Code\PerformanceTests\Enclave\PerformanceTests_t.c:253.2[spill]
$LN346:
        mov       rcx, rax                                      ;\\Mac\Home\Documents\Studium\6. Semester\Bachelorarbeit\Code\PerformanceTests\Enclave\PerformanceTests_t.c:253.2
$LN347:
        mov       rax, QWORD PTR [40+rbp]                       ;\\Mac\Home\Documents\Studium\6. Semester\Bachelorarbeit\Code\PerformanceTests\Enclave\PerformanceTests_t.c:253.2[spill]
$LN348:
        mov       r8, rax                                       ;\\Mac\Home\Documents\Studium\6. Semester\Bachelorarbeit\Code\PerformanceTests\Enclave\PerformanceTests_t.c:253.2
$LN349:
;       enclaveCryptoNoCopy(uint8_t *, size_t, uint8_t *)
        call      enclaveCryptoNoCopy                           ;\\Mac\Home\Documents\Studium\6. Semester\Bachelorarbeit\Code\PerformanceTests\Enclave\PerformanceTests_t.c:253.2
$LN350:
                                ; LOE rax rbx rbp rsi rdi rsp r12 r13 r14 r15 rip zmm6 zmm7 zmm8 zmm9 zmm10 zmm11 zmm12 zmm13 zmm14 zmm15
.B3.12::                        ; Preds .B3.7
                                ; Execution count [0.00e+000]
$LN351:
        mov       QWORD PTR [32+rbp], rax                       ;\\Mac\Home\Documents\Studium\6. Semester\Bachelorarbeit\Code\PerformanceTests\Enclave\PerformanceTests_t.c:253.2
$LN352:
                                ; LOE rbx rbp rsi rdi rsp r12 r13 r14 r15 rip zmm6 zmm7 zmm8 zmm9 zmm10 zmm11 zmm12 zmm13 zmm14 zmm15
.B3.8::                         ; Preds .B3.12
                                ; Execution count [0.00e+000]
$LN353:
        mov       rax, QWORD PTR [8+rbp]                        ;\\Mac\Home\Documents\Studium\6. Semester\Bachelorarbeit\Code\PerformanceTests\Enclave\PerformanceTests_t.c:253.2
$LN354:
        mov       rdx, QWORD PTR [32+rbp]                       ;\\Mac\Home\Documents\Studium\6. Semester\Bachelorarbeit\Code\PerformanceTests\Enclave\PerformanceTests_t.c:253.2
$LN355:
        mov       QWORD PTR [rax], rdx                          ;\\Mac\Home\Documents\Studium\6. Semester\Bachelorarbeit\Code\PerformanceTests\Enclave\PerformanceTests_t.c:253.2
$LN356:

;;; 
;;; 
;;; 	return status;

        mov       eax, DWORD PTR [rbp]                          ;\\Mac\Home\Documents\Studium\6. Semester\Bachelorarbeit\Code\PerformanceTests\Enclave\PerformanceTests_t.c:256.2
$LN357:
        lea       rsp, QWORD PTR [48+rbp]                       ;\\Mac\Home\Documents\Studium\6. Semester\Bachelorarbeit\Code\PerformanceTests\Enclave\PerformanceTests_t.c:256.2
$LN358:
        pop       rbp                                           ;\\Mac\Home\Documents\Studium\6. Semester\Bachelorarbeit\Code\PerformanceTests\Enclave\PerformanceTests_t.c:256.2
$LN359:
        ret                                                     ;\\Mac\Home\Documents\Studium\6. Semester\Bachelorarbeit\Code\PerformanceTests\Enclave\PerformanceTests_t.c:256.2
$LN360:
                                ; LOE
.B3.9::
$LN361:
; mark_end;
sgx_enclaveCryptoNoCopy ENDP
$LNsgx_enclaveCryptoNoCopy$362:
_TEXT	ENDS
.xdata	SEGMENT  DWORD   READ  ''
	ALIGN 004H
.unwind.sgx_enclaveCryptoNoCopy.B1_B8	DD	620956161
	DD	2449801994
	DD	20481
.xdata	ENDS
.pdata	SEGMENT  DWORD   READ  ''
	ALIGN 004H
.pdata.sgx_enclaveCryptoNoCopy.B1_B8	DD	imagerel .B3.1
	DD	imagerel .B3.9
	DD	imagerel .unwind.sgx_enclaveCryptoNoCopy.B1_B8
.pdata	ENDS
_DATA	SEGMENT      'DATA'
_DATA	ENDS
; -- End  sgx_enclaveCryptoNoCopy
_TEXT	SEGMENT      'CODE'
_2__routine_start_sgx_enclaveIterate_3:
; -- Begin  sgx_enclaveIterate
_TEXT	ENDS
_TEXT	SEGMENT      'CODE'
; mark_begin;

; --- sgx_enclaveIterate(void *)
sgx_enclaveIterate	PROC PRIVATE
; parameter 1(pms): rcx
.B4.1::                         ; Preds .B4.0
                                ; Execution count [0.00e+000]

;;; {

L25::
                                                          ;\\Mac\Home\Documents\Studium\6. Semester\Bachelorarbeit\Code\PerformanceTests\Enclave\PerformanceTests_t.c:260.1
$LN363:
        push      rbp                                           ;\\Mac\Home\Documents\Studium\6. Semester\Bachelorarbeit\Code\PerformanceTests\Enclave\PerformanceTests_t.c:260.1
$LN364:
        sub       rsp, 192                                      ;\\Mac\Home\Documents\Studium\6. Semester\Bachelorarbeit\Code\PerformanceTests\Enclave\PerformanceTests_t.c:260.1
$LN365:
        lea       rbp, QWORD PTR [32+rsp]                       ;\\Mac\Home\Documents\Studium\6. Semester\Bachelorarbeit\Code\PerformanceTests\Enclave\PerformanceTests_t.c:260.1
$LN366:
        mov       QWORD PTR [152+rbp], rdi                      ;\\Mac\Home\Documents\Studium\6. Semester\Bachelorarbeit\Code\PerformanceTests\Enclave\PerformanceTests_t.c:260.1[spill]
$LN367:
        mov       QWORD PTR [144+rbp], rsi                      ;\\Mac\Home\Documents\Studium\6. Semester\Bachelorarbeit\Code\PerformanceTests\Enclave\PerformanceTests_t.c:260.1[spill]
$LN368:
        mov       QWORD PTR [176+rbp], rcx                      ;\\Mac\Home\Documents\Studium\6. Semester\Bachelorarbeit\Code\PerformanceTests\Enclave\PerformanceTests_t.c:260.1
$LN369:

;;; 	ms_enclaveIterate_t* ms = SGX_CAST(ms_enclaveIterate_t*, pms);

        mov       rax, QWORD PTR [176+rbp]                      ;\\Mac\Home\Documents\Studium\6. Semester\Bachelorarbeit\Code\PerformanceTests\Enclave\PerformanceTests_t.c:261.26
$LN370:
        mov       QWORD PTR [16+rbp], rax                       ;\\Mac\Home\Documents\Studium\6. Semester\Bachelorarbeit\Code\PerformanceTests\Enclave\PerformanceTests_t.c:261.26
$LN371:

;;; 	sgx_status_t status = SGX_SUCCESS;

        mov       DWORD PTR [rbp], 0                            ;\\Mac\Home\Documents\Studium\6. Semester\Bachelorarbeit\Code\PerformanceTests\Enclave\PerformanceTests_t.c:262.22
$LN372:

;;; 	uint8_t* _tmp_in = ms->ms_in;

        mov       rax, QWORD PTR [16+rbp]                       ;\\Mac\Home\Documents\Studium\6. Semester\Bachelorarbeit\Code\PerformanceTests\Enclave\PerformanceTests_t.c:263.19
$LN373:
        mov       rax, QWORD PTR [8+rax]                        ;\\Mac\Home\Documents\Studium\6. Semester\Bachelorarbeit\Code\PerformanceTests\Enclave\PerformanceTests_t.c:263.19
$LN374:
        mov       QWORD PTR [24+rbp], rax                       ;\\Mac\Home\Documents\Studium\6. Semester\Bachelorarbeit\Code\PerformanceTests\Enclave\PerformanceTests_t.c:263.19
$LN375:

;;; 	size_t _tmp_length = ms->ms_length;

        mov       rax, QWORD PTR [16+rbp]                       ;\\Mac\Home\Documents\Studium\6. Semester\Bachelorarbeit\Code\PerformanceTests\Enclave\PerformanceTests_t.c:264.21
$LN376:
        mov       rax, QWORD PTR [16+rax]                       ;\\Mac\Home\Documents\Studium\6. Semester\Bachelorarbeit\Code\PerformanceTests\Enclave\PerformanceTests_t.c:264.21
$LN377:
        mov       QWORD PTR [32+rbp], rax                       ;\\Mac\Home\Documents\Studium\6. Semester\Bachelorarbeit\Code\PerformanceTests\Enclave\PerformanceTests_t.c:264.21
$LN378:

;;; 	size_t _len_in = _tmp_length;

        mov       rax, QWORD PTR [32+rbp]                       ;\\Mac\Home\Documents\Studium\6. Semester\Bachelorarbeit\Code\PerformanceTests\Enclave\PerformanceTests_t.c:265.17
$LN379:
        mov       QWORD PTR [40+rbp], rax                       ;\\Mac\Home\Documents\Studium\6. Semester\Bachelorarbeit\Code\PerformanceTests\Enclave\PerformanceTests_t.c:265.17
$LN380:

;;; 	uint8_t* _in_in = NULL;

        mov       QWORD PTR [48+rbp], 0                         ;\\Mac\Home\Documents\Studium\6. Semester\Bachelorarbeit\Code\PerformanceTests\Enclave\PerformanceTests_t.c:266.18
$LN381:

;;; 	uint8_t* _tmp_out = ms->ms_out;

        mov       rax, QWORD PTR [16+rbp]                       ;\\Mac\Home\Documents\Studium\6. Semester\Bachelorarbeit\Code\PerformanceTests\Enclave\PerformanceTests_t.c:267.20
$LN382:
        mov       rax, QWORD PTR [24+rax]                       ;\\Mac\Home\Documents\Studium\6. Semester\Bachelorarbeit\Code\PerformanceTests\Enclave\PerformanceTests_t.c:267.20
$LN383:
        mov       QWORD PTR [56+rbp], rax                       ;\\Mac\Home\Documents\Studium\6. Semester\Bachelorarbeit\Code\PerformanceTests\Enclave\PerformanceTests_t.c:267.20
$LN384:

;;; 	size_t _len_out = _tmp_length;

        mov       rax, QWORD PTR [32+rbp]                       ;\\Mac\Home\Documents\Studium\6. Semester\Bachelorarbeit\Code\PerformanceTests\Enclave\PerformanceTests_t.c:268.18
$LN385:
        mov       QWORD PTR [64+rbp], rax                       ;\\Mac\Home\Documents\Studium\6. Semester\Bachelorarbeit\Code\PerformanceTests\Enclave\PerformanceTests_t.c:268.18
$LN386:

;;; 	uint8_t* _in_out = NULL;

        mov       QWORD PTR [72+rbp], 0                         ;\\Mac\Home\Documents\Studium\6. Semester\Bachelorarbeit\Code\PerformanceTests\Enclave\PerformanceTests_t.c:269.19
$LN387:
                                ; LOE rbx rbp rsp r12 r13 r14 r15 rip zmm6 zmm7 zmm8 zmm9 zmm10 zmm11 zmm12 zmm13 zmm14 zmm15
.B4.2::                         ; Preds .B4.5 .B4.1
                                ; Execution count [0.00e+000]
$LN388:

;;; 
;;; 	CHECK_REF_POINTER(pms, sizeof(ms_enclaveIterate_t));

        mov       rax, QWORD PTR [176+rbp]                      ;\\Mac\Home\Documents\Studium\6. Semester\Bachelorarbeit\Code\PerformanceTests\Enclave\PerformanceTests_t.c:271.2
$LN389:
        test      rax, rax                                      ;\\Mac\Home\Documents\Studium\6. Semester\Bachelorarbeit\Code\PerformanceTests\Enclave\PerformanceTests_t.c:271.2
$LN390:
        je        .B4.6         ; Prob 50%                      ;\\Mac\Home\Documents\Studium\6. Semester\Bachelorarbeit\Code\PerformanceTests\Enclave\PerformanceTests_t.c:271.2
$LN391:
                                ; LOE rbx rbp rsp r12 r13 r14 r15 rip zmm6 zmm7 zmm8 zmm9 zmm10 zmm11 zmm12 zmm13 zmm14 zmm15
.B4.3::                         ; Preds .B4.2
                                ; Execution count [0.00e+000]
$LN392:
        mov       rax, QWORD PTR [176+rbp]                      ;\\Mac\Home\Documents\Studium\6. Semester\Bachelorarbeit\Code\PerformanceTests\Enclave\PerformanceTests_t.c:271.2
$LN393:
        mov       edx, 32                                       ;\\Mac\Home\Documents\Studium\6. Semester\Bachelorarbeit\Code\PerformanceTests\Enclave\PerformanceTests_t.c:271.2
$LN394:
        mov       rcx, rax                                      ;\\Mac\Home\Documents\Studium\6. Semester\Bachelorarbeit\Code\PerformanceTests\Enclave\PerformanceTests_t.c:271.2
$LN395:
;       sgx_is_outside_enclave(const void *, size_t)
        call      sgx_is_outside_enclave                        ;\\Mac\Home\Documents\Studium\6. Semester\Bachelorarbeit\Code\PerformanceTests\Enclave\PerformanceTests_t.c:271.2
$LN396:
                                ; LOE rbx rbp rsp r12 r13 r14 r15 rip eax zmm6 zmm7 zmm8 zmm9 zmm10 zmm11 zmm12 zmm13 zmm14 zmm15
.B4.37::                        ; Preds .B4.3
                                ; Execution count [0.00e+000]
$LN397:
        mov       DWORD PTR [4+rbp], eax                        ;\\Mac\Home\Documents\Studium\6. Semester\Bachelorarbeit\Code\PerformanceTests\Enclave\PerformanceTests_t.c:271.2
$LN398:
                                ; LOE rbx rbp rsp r12 r13 r14 r15 rip zmm6 zmm7 zmm8 zmm9 zmm10 zmm11 zmm12 zmm13 zmm14 zmm15
.B4.4::                         ; Preds .B4.37
                                ; Execution count [0.00e+000]
$LN399:
        mov       eax, DWORD PTR [4+rbp]                        ;\\Mac\Home\Documents\Studium\6. Semester\Bachelorarbeit\Code\PerformanceTests\Enclave\PerformanceTests_t.c:271.2
$LN400:
        test      eax, eax                                      ;\\Mac\Home\Documents\Studium\6. Semester\Bachelorarbeit\Code\PerformanceTests\Enclave\PerformanceTests_t.c:271.2
$LN401:
        je        .B4.6         ; Prob 50%                      ;\\Mac\Home\Documents\Studium\6. Semester\Bachelorarbeit\Code\PerformanceTests\Enclave\PerformanceTests_t.c:271.2
$LN402:
                                ; LOE rbx rbp rsp r12 r13 r14 r15 rip zmm6 zmm7 zmm8 zmm9 zmm10 zmm11 zmm12 zmm13 zmm14 zmm15
.B4.5::                         ; Preds .B4.4
                                ; Execution count [0.00e+000]
$LN403:
        mov       eax, 0                                        ;\\Mac\Home\Documents\Studium\6. Semester\Bachelorarbeit\Code\PerformanceTests\Enclave\PerformanceTests_t.c:271.2
$LN404:
        test      eax, eax                                      ;\\Mac\Home\Documents\Studium\6. Semester\Bachelorarbeit\Code\PerformanceTests\Enclave\PerformanceTests_t.c:271.2
$LN405:
        jne       .B4.2         ; Prob 0%                       ;\\Mac\Home\Documents\Studium\6. Semester\Bachelorarbeit\Code\PerformanceTests\Enclave\PerformanceTests_t.c:271.2
$LN406:
        jmp       .B4.7         ; Prob 100%                     ;\\Mac\Home\Documents\Studium\6. Semester\Bachelorarbeit\Code\PerformanceTests\Enclave\PerformanceTests_t.c:271.2
$LN407:
                                ; LOE rbx rbp rsp r12 r13 r14 r15 rip zmm6 zmm7 zmm8 zmm9 zmm10 zmm11 zmm12 zmm13 zmm14 zmm15
.B4.6::                         ; Preds .B4.2 .B4.4
                                ; Execution count [0.00e+000]
$LN408:
        mov       eax, 2                                        ;\\Mac\Home\Documents\Studium\6. Semester\Bachelorarbeit\Code\PerformanceTests\Enclave\PerformanceTests_t.c:271.2
$LN409:
        mov       rsi, QWORD PTR [144+rbp]                      ;\\Mac\Home\Documents\Studium\6. Semester\Bachelorarbeit\Code\PerformanceTests\Enclave\PerformanceTests_t.c:271.2[spill]
$LN410:
        mov       rdi, QWORD PTR [152+rbp]                      ;\\Mac\Home\Documents\Studium\6. Semester\Bachelorarbeit\Code\PerformanceTests\Enclave\PerformanceTests_t.c:271.2[spill]
$LN411:
        lea       rsp, QWORD PTR [160+rbp]                      ;\\Mac\Home\Documents\Studium\6. Semester\Bachelorarbeit\Code\PerformanceTests\Enclave\PerformanceTests_t.c:271.2
$LN412:
        pop       rbp                                           ;\\Mac\Home\Documents\Studium\6. Semester\Bachelorarbeit\Code\PerformanceTests\Enclave\PerformanceTests_t.c:271.2
$LN413:
        ret                                                     ;\\Mac\Home\Documents\Studium\6. Semester\Bachelorarbeit\Code\PerformanceTests\Enclave\PerformanceTests_t.c:271.2
$LN414:
                                ; LOE
.B4.7::                         ; Preds .B4.10 .B4.5
                                ; Execution count [0.00e+000]
$LN415:

;;; 	CHECK_UNIQUE_POINTER(_tmp_in, _len_in);

        mov       rax, QWORD PTR [24+rbp]                       ;\\Mac\Home\Documents\Studium\6. Semester\Bachelorarbeit\Code\PerformanceTests\Enclave\PerformanceTests_t.c:272.2
$LN416:
        test      rax, rax                                      ;\\Mac\Home\Documents\Studium\6. Semester\Bachelorarbeit\Code\PerformanceTests\Enclave\PerformanceTests_t.c:272.2
$LN417:
        je        .B4.10        ; Prob 50%                      ;\\Mac\Home\Documents\Studium\6. Semester\Bachelorarbeit\Code\PerformanceTests\Enclave\PerformanceTests_t.c:272.2
$LN418:
                                ; LOE rbx rbp rsp r12 r13 r14 r15 rip zmm6 zmm7 zmm8 zmm9 zmm10 zmm11 zmm12 zmm13 zmm14 zmm15
.B4.8::                         ; Preds .B4.7
                                ; Execution count [0.00e+000]
$LN419:
        mov       rax, QWORD PTR [24+rbp]                       ;\\Mac\Home\Documents\Studium\6. Semester\Bachelorarbeit\Code\PerformanceTests\Enclave\PerformanceTests_t.c:272.2
$LN420:
        mov       rdx, QWORD PTR [40+rbp]                       ;\\Mac\Home\Documents\Studium\6. Semester\Bachelorarbeit\Code\PerformanceTests\Enclave\PerformanceTests_t.c:272.2
$LN421:
        mov       rcx, rax                                      ;\\Mac\Home\Documents\Studium\6. Semester\Bachelorarbeit\Code\PerformanceTests\Enclave\PerformanceTests_t.c:272.2
$LN422:
;       sgx_is_outside_enclave(const void *, size_t)
        call      sgx_is_outside_enclave                        ;\\Mac\Home\Documents\Studium\6. Semester\Bachelorarbeit\Code\PerformanceTests\Enclave\PerformanceTests_t.c:272.2
$LN423:
                                ; LOE rbx rbp rsp r12 r13 r14 r15 rip eax zmm6 zmm7 zmm8 zmm9 zmm10 zmm11 zmm12 zmm13 zmm14 zmm15
.B4.38::                        ; Preds .B4.8
                                ; Execution count [0.00e+000]
$LN424:
        mov       DWORD PTR [8+rbp], eax                        ;\\Mac\Home\Documents\Studium\6. Semester\Bachelorarbeit\Code\PerformanceTests\Enclave\PerformanceTests_t.c:272.2
$LN425:
                                ; LOE rbx rbp rsp r12 r13 r14 r15 rip zmm6 zmm7 zmm8 zmm9 zmm10 zmm11 zmm12 zmm13 zmm14 zmm15
.B4.9::                         ; Preds .B4.38
                                ; Execution count [0.00e+000]
$LN426:
        mov       eax, DWORD PTR [8+rbp]                        ;\\Mac\Home\Documents\Studium\6. Semester\Bachelorarbeit\Code\PerformanceTests\Enclave\PerformanceTests_t.c:272.2
$LN427:
        test      eax, eax                                      ;\\Mac\Home\Documents\Studium\6. Semester\Bachelorarbeit\Code\PerformanceTests\Enclave\PerformanceTests_t.c:272.2
$LN428:
        je        .B4.11        ; Prob 50%                      ;\\Mac\Home\Documents\Studium\6. Semester\Bachelorarbeit\Code\PerformanceTests\Enclave\PerformanceTests_t.c:272.2
$LN429:
                                ; LOE rbx rbp rsp r12 r13 r14 r15 rip zmm6 zmm7 zmm8 zmm9 zmm10 zmm11 zmm12 zmm13 zmm14 zmm15
.B4.10::                        ; Preds .B4.9 .B4.7
                                ; Execution count [0.00e+000]
$LN430:
        mov       eax, 0                                        ;\\Mac\Home\Documents\Studium\6. Semester\Bachelorarbeit\Code\PerformanceTests\Enclave\PerformanceTests_t.c:272.2
$LN431:
        test      eax, eax                                      ;\\Mac\Home\Documents\Studium\6. Semester\Bachelorarbeit\Code\PerformanceTests\Enclave\PerformanceTests_t.c:272.2
$LN432:
        jne       .B4.7         ; Prob 0%                       ;\\Mac\Home\Documents\Studium\6. Semester\Bachelorarbeit\Code\PerformanceTests\Enclave\PerformanceTests_t.c:272.2
$LN433:
        jmp       .B4.12        ; Prob 100%                     ;\\Mac\Home\Documents\Studium\6. Semester\Bachelorarbeit\Code\PerformanceTests\Enclave\PerformanceTests_t.c:272.2
$LN434:
                                ; LOE rbx rbp rsp r12 r13 r14 r15 rip zmm6 zmm7 zmm8 zmm9 zmm10 zmm11 zmm12 zmm13 zmm14 zmm15
.B4.11::                        ; Preds .B4.9
                                ; Execution count [0.00e+000]
$LN435:
        mov       eax, 2                                        ;\\Mac\Home\Documents\Studium\6. Semester\Bachelorarbeit\Code\PerformanceTests\Enclave\PerformanceTests_t.c:272.2
$LN436:
        mov       rsi, QWORD PTR [144+rbp]                      ;\\Mac\Home\Documents\Studium\6. Semester\Bachelorarbeit\Code\PerformanceTests\Enclave\PerformanceTests_t.c:272.2[spill]
$LN437:
        mov       rdi, QWORD PTR [152+rbp]                      ;\\Mac\Home\Documents\Studium\6. Semester\Bachelorarbeit\Code\PerformanceTests\Enclave\PerformanceTests_t.c:272.2[spill]
$LN438:
        lea       rsp, QWORD PTR [160+rbp]                      ;\\Mac\Home\Documents\Studium\6. Semester\Bachelorarbeit\Code\PerformanceTests\Enclave\PerformanceTests_t.c:272.2
$LN439:
        pop       rbp                                           ;\\Mac\Home\Documents\Studium\6. Semester\Bachelorarbeit\Code\PerformanceTests\Enclave\PerformanceTests_t.c:272.2
$LN440:
        ret                                                     ;\\Mac\Home\Documents\Studium\6. Semester\Bachelorarbeit\Code\PerformanceTests\Enclave\PerformanceTests_t.c:272.2
$LN441:
                                ; LOE
.B4.12::                        ; Preds .B4.15 .B4.10
                                ; Execution count [0.00e+000]
$LN442:

;;; 	CHECK_UNIQUE_POINTER(_tmp_out, _len_out);

        mov       rax, QWORD PTR [56+rbp]                       ;\\Mac\Home\Documents\Studium\6. Semester\Bachelorarbeit\Code\PerformanceTests\Enclave\PerformanceTests_t.c:273.2
$LN443:
        test      rax, rax                                      ;\\Mac\Home\Documents\Studium\6. Semester\Bachelorarbeit\Code\PerformanceTests\Enclave\PerformanceTests_t.c:273.2
$LN444:
        je        .B4.15        ; Prob 50%                      ;\\Mac\Home\Documents\Studium\6. Semester\Bachelorarbeit\Code\PerformanceTests\Enclave\PerformanceTests_t.c:273.2
$LN445:
                                ; LOE rbx rbp rsp r12 r13 r14 r15 rip zmm6 zmm7 zmm8 zmm9 zmm10 zmm11 zmm12 zmm13 zmm14 zmm15
.B4.13::                        ; Preds .B4.12
                                ; Execution count [0.00e+000]
$LN446:
        mov       rax, QWORD PTR [56+rbp]                       ;\\Mac\Home\Documents\Studium\6. Semester\Bachelorarbeit\Code\PerformanceTests\Enclave\PerformanceTests_t.c:273.2
$LN447:
        mov       rdx, QWORD PTR [64+rbp]                       ;\\Mac\Home\Documents\Studium\6. Semester\Bachelorarbeit\Code\PerformanceTests\Enclave\PerformanceTests_t.c:273.2
$LN448:
        mov       rcx, rax                                      ;\\Mac\Home\Documents\Studium\6. Semester\Bachelorarbeit\Code\PerformanceTests\Enclave\PerformanceTests_t.c:273.2
$LN449:
;       sgx_is_outside_enclave(const void *, size_t)
        call      sgx_is_outside_enclave                        ;\\Mac\Home\Documents\Studium\6. Semester\Bachelorarbeit\Code\PerformanceTests\Enclave\PerformanceTests_t.c:273.2
$LN450:
                                ; LOE rbx rbp rsp r12 r13 r14 r15 rip eax zmm6 zmm7 zmm8 zmm9 zmm10 zmm11 zmm12 zmm13 zmm14 zmm15
.B4.39::                        ; Preds .B4.13
                                ; Execution count [0.00e+000]
$LN451:
        mov       DWORD PTR [12+rbp], eax                       ;\\Mac\Home\Documents\Studium\6. Semester\Bachelorarbeit\Code\PerformanceTests\Enclave\PerformanceTests_t.c:273.2
$LN452:
                                ; LOE rbx rbp rsp r12 r13 r14 r15 rip zmm6 zmm7 zmm8 zmm9 zmm10 zmm11 zmm12 zmm13 zmm14 zmm15
.B4.14::                        ; Preds .B4.39
                                ; Execution count [0.00e+000]
$LN453:
        mov       eax, DWORD PTR [12+rbp]                       ;\\Mac\Home\Documents\Studium\6. Semester\Bachelorarbeit\Code\PerformanceTests\Enclave\PerformanceTests_t.c:273.2
$LN454:
        test      eax, eax                                      ;\\Mac\Home\Documents\Studium\6. Semester\Bachelorarbeit\Code\PerformanceTests\Enclave\PerformanceTests_t.c:273.2
$LN455:
        je        .B4.16        ; Prob 50%                      ;\\Mac\Home\Documents\Studium\6. Semester\Bachelorarbeit\Code\PerformanceTests\Enclave\PerformanceTests_t.c:273.2
$LN456:
                                ; LOE rbx rbp rsp r12 r13 r14 r15 rip zmm6 zmm7 zmm8 zmm9 zmm10 zmm11 zmm12 zmm13 zmm14 zmm15
.B4.15::                        ; Preds .B4.14 .B4.12
                                ; Execution count [0.00e+000]
$LN457:
        mov       eax, 0                                        ;\\Mac\Home\Documents\Studium\6. Semester\Bachelorarbeit\Code\PerformanceTests\Enclave\PerformanceTests_t.c:273.2
$LN458:
        test      eax, eax                                      ;\\Mac\Home\Documents\Studium\6. Semester\Bachelorarbeit\Code\PerformanceTests\Enclave\PerformanceTests_t.c:273.2
$LN459:
        jne       .B4.12        ; Prob 0%                       ;\\Mac\Home\Documents\Studium\6. Semester\Bachelorarbeit\Code\PerformanceTests\Enclave\PerformanceTests_t.c:273.2
$LN460:
        jmp       .B4.17        ; Prob 100%                     ;\\Mac\Home\Documents\Studium\6. Semester\Bachelorarbeit\Code\PerformanceTests\Enclave\PerformanceTests_t.c:273.2
$LN461:
                                ; LOE rbx rbp rsp r12 r13 r14 r15 rip zmm6 zmm7 zmm8 zmm9 zmm10 zmm11 zmm12 zmm13 zmm14 zmm15
.B4.16::                        ; Preds .B4.14
                                ; Execution count [0.00e+000]
$LN462:
        mov       eax, 2                                        ;\\Mac\Home\Documents\Studium\6. Semester\Bachelorarbeit\Code\PerformanceTests\Enclave\PerformanceTests_t.c:273.2
$LN463:
        mov       rsi, QWORD PTR [144+rbp]                      ;\\Mac\Home\Documents\Studium\6. Semester\Bachelorarbeit\Code\PerformanceTests\Enclave\PerformanceTests_t.c:273.2[spill]
$LN464:
        mov       rdi, QWORD PTR [152+rbp]                      ;\\Mac\Home\Documents\Studium\6. Semester\Bachelorarbeit\Code\PerformanceTests\Enclave\PerformanceTests_t.c:273.2[spill]
$LN465:
        lea       rsp, QWORD PTR [160+rbp]                      ;\\Mac\Home\Documents\Studium\6. Semester\Bachelorarbeit\Code\PerformanceTests\Enclave\PerformanceTests_t.c:273.2
$LN466:
        pop       rbp                                           ;\\Mac\Home\Documents\Studium\6. Semester\Bachelorarbeit\Code\PerformanceTests\Enclave\PerformanceTests_t.c:273.2
$LN467:
        ret                                                     ;\\Mac\Home\Documents\Studium\6. Semester\Bachelorarbeit\Code\PerformanceTests\Enclave\PerformanceTests_t.c:273.2
$LN468:
                                ; LOE
.B4.17::                        ; Preds .B4.15
                                ; Execution count [0.00e+000]
$LN469:

;;; 
;;; 	if (_tmp_in != NULL) {

        mov       rax, QWORD PTR [24+rbp]                       ;\\Mac\Home\Documents\Studium\6. Semester\Bachelorarbeit\Code\PerformanceTests\Enclave\PerformanceTests_t.c:275.2
$LN470:
        test      rax, rax                                      ;\\Mac\Home\Documents\Studium\6. Semester\Bachelorarbeit\Code\PerformanceTests\Enclave\PerformanceTests_t.c:275.2
$LN471:
        je        .B4.22        ; Prob 50%                      ;\\Mac\Home\Documents\Studium\6. Semester\Bachelorarbeit\Code\PerformanceTests\Enclave\PerformanceTests_t.c:275.2
$LN472:
                                ; LOE rbx rbp rsp r12 r13 r14 r15 rip zmm6 zmm7 zmm8 zmm9 zmm10 zmm11 zmm12 zmm13 zmm14 zmm15
.B4.18::                        ; Preds .B4.17
                                ; Execution count [0.00e+000]
$LN473:

;;; 		_in_in = (uint8_t*)malloc(_len_in);

        mov       rax, QWORD PTR [40+rbp]                       ;\\Mac\Home\Documents\Studium\6. Semester\Bachelorarbeit\Code\PerformanceTests\Enclave\PerformanceTests_t.c:276.3
$LN474:
        mov       rcx, rax                                      ;\\Mac\Home\Documents\Studium\6. Semester\Bachelorarbeit\Code\PerformanceTests\Enclave\PerformanceTests_t.c:276.3
$LN475:
;       malloc(size_t)
        call      malloc                                        ;\\Mac\Home\Documents\Studium\6. Semester\Bachelorarbeit\Code\PerformanceTests\Enclave\PerformanceTests_t.c:276.3
$LN476:
                                ; LOE rax rbx rbp rsp r12 r13 r14 r15 rip zmm6 zmm7 zmm8 zmm9 zmm10 zmm11 zmm12 zmm13 zmm14 zmm15
.B4.40::                        ; Preds .B4.18
                                ; Execution count [0.00e+000]
$LN477:
        mov       QWORD PTR [80+rbp], rax                       ;\\Mac\Home\Documents\Studium\6. Semester\Bachelorarbeit\Code\PerformanceTests\Enclave\PerformanceTests_t.c:276.3
$LN478:
                                ; LOE rbx rbp rsp r12 r13 r14 r15 rip zmm6 zmm7 zmm8 zmm9 zmm10 zmm11 zmm12 zmm13 zmm14 zmm15
.B4.19::                        ; Preds .B4.40
                                ; Execution count [0.00e+000]
$LN479:
        mov       rax, QWORD PTR [80+rbp]                       ;\\Mac\Home\Documents\Studium\6. Semester\Bachelorarbeit\Code\PerformanceTests\Enclave\PerformanceTests_t.c:276.3
$LN480:
        mov       QWORD PTR [48+rbp], rax                       ;\\Mac\Home\Documents\Studium\6. Semester\Bachelorarbeit\Code\PerformanceTests\Enclave\PerformanceTests_t.c:276.3
$LN481:

;;; 		if (_in_in == NULL) {

        mov       rax, QWORD PTR [48+rbp]                       ;\\Mac\Home\Documents\Studium\6. Semester\Bachelorarbeit\Code\PerformanceTests\Enclave\PerformanceTests_t.c:277.3
$LN482:
        test      rax, rax                                      ;\\Mac\Home\Documents\Studium\6. Semester\Bachelorarbeit\Code\PerformanceTests\Enclave\PerformanceTests_t.c:277.3
$LN483:
        jne       .B4.21        ; Prob 50%                      ;\\Mac\Home\Documents\Studium\6. Semester\Bachelorarbeit\Code\PerformanceTests\Enclave\PerformanceTests_t.c:277.3
$LN484:
                                ; LOE rbx rbp rsp r12 r13 r14 r15 rip zmm6 zmm7 zmm8 zmm9 zmm10 zmm11 zmm12 zmm13 zmm14 zmm15
.B4.20::                        ; Preds .B4.19
                                ; Execution count [0.00e+000]
$LN485:

;;; 			status = SGX_ERROR_OUT_OF_MEMORY;

        mov       DWORD PTR [rbp], 3                            ;\\Mac\Home\Documents\Studium\6. Semester\Bachelorarbeit\Code\PerformanceTests\Enclave\PerformanceTests_t.c:278.4
$LN486:
        jmp       .B4.29        ; Prob 100%                     ;\\Mac\Home\Documents\Studium\6. Semester\Bachelorarbeit\Code\PerformanceTests\Enclave\PerformanceTests_t.c:278.4
$LN487:
                                ; LOE rbx rbp rsp r12 r13 r14 r15 rip zmm6 zmm7 zmm8 zmm9 zmm10 zmm11 zmm12 zmm13 zmm14 zmm15
.B4.21::                        ; Preds .B4.19
                                ; Execution count [0.00e+000]
$LN488:

;;; 			goto err;
;;; 		}
;;; 
;;; 		memcpy(_in_in, _tmp_in, _len_in);

        mov       rax, QWORD PTR [48+rbp]                       ;\\Mac\Home\Documents\Studium\6. Semester\Bachelorarbeit\Code\PerformanceTests\Enclave\PerformanceTests_t.c:282.3
$LN489:
        mov       rdx, QWORD PTR [24+rbp]                       ;\\Mac\Home\Documents\Studium\6. Semester\Bachelorarbeit\Code\PerformanceTests\Enclave\PerformanceTests_t.c:282.3
$LN490:
        mov       rcx, QWORD PTR [40+rbp]                       ;\\Mac\Home\Documents\Studium\6. Semester\Bachelorarbeit\Code\PerformanceTests\Enclave\PerformanceTests_t.c:282.3
$LN491:
        mov       rdi, rax                                      ;\\Mac\Home\Documents\Studium\6. Semester\Bachelorarbeit\Code\PerformanceTests\Enclave\PerformanceTests_t.c:282.3
$LN492:
        mov       rsi, rdx                                      ;\\Mac\Home\Documents\Studium\6. Semester\Bachelorarbeit\Code\PerformanceTests\Enclave\PerformanceTests_t.c:282.3
$LN493:
        mov       rdx, rdi                                      ;\\Mac\Home\Documents\Studium\6. Semester\Bachelorarbeit\Code\PerformanceTests\Enclave\PerformanceTests_t.c:282.3
$LN494:
        mov       eax, ecx                                      ;\\Mac\Home\Documents\Studium\6. Semester\Bachelorarbeit\Code\PerformanceTests\Enclave\PerformanceTests_t.c:282.3
$LN495:
        shr       rcx, 2                                        ;\\Mac\Home\Documents\Studium\6. Semester\Bachelorarbeit\Code\PerformanceTests\Enclave\PerformanceTests_t.c:282.3
$LN496:
        rep   movsd                                             ;\\Mac\Home\Documents\Studium\6. Semester\Bachelorarbeit\Code\PerformanceTests\Enclave\PerformanceTests_t.c:282.3
$LN497:
        mov       ecx, eax                                      ;\\Mac\Home\Documents\Studium\6. Semester\Bachelorarbeit\Code\PerformanceTests\Enclave\PerformanceTests_t.c:282.3
$LN498:
        and       ecx, 3                                        ;\\Mac\Home\Documents\Studium\6. Semester\Bachelorarbeit\Code\PerformanceTests\Enclave\PerformanceTests_t.c:282.3
$LN499:
        rep   movsb                                             ;\\Mac\Home\Documents\Studium\6. Semester\Bachelorarbeit\Code\PerformanceTests\Enclave\PerformanceTests_t.c:282.3
$LN500:
        mov       rax, rdx                                      ;\\Mac\Home\Documents\Studium\6. Semester\Bachelorarbeit\Code\PerformanceTests\Enclave\PerformanceTests_t.c:282.3
$LN501:
                                ; LOE rax rbx rbp rsp r12 r13 r14 r15 rip zmm6 zmm7 zmm8 zmm9 zmm10 zmm11 zmm12 zmm13 zmm14 zmm15
.B4.41::                        ; Preds .B4.21
                                ; Execution count [0.00e+000]
$LN502:
        mov       QWORD PTR [104+rbp], rax                      ;\\Mac\Home\Documents\Studium\6. Semester\Bachelorarbeit\Code\PerformanceTests\Enclave\PerformanceTests_t.c:282.3
$LN503:
                                ; LOE rbx rbp rsp r12 r13 r14 r15 rip zmm6 zmm7 zmm8 zmm9 zmm10 zmm11 zmm12 zmm13 zmm14 zmm15
.B4.22::                        ; Preds .B4.41 .B4.17
                                ; Execution count [0.00e+000]
$LN504:

;;; 	}
;;; 	if (_tmp_out != NULL) {

        mov       rax, QWORD PTR [56+rbp]                       ;\\Mac\Home\Documents\Studium\6. Semester\Bachelorarbeit\Code\PerformanceTests\Enclave\PerformanceTests_t.c:284.2
$LN505:
        test      rax, rax                                      ;\\Mac\Home\Documents\Studium\6. Semester\Bachelorarbeit\Code\PerformanceTests\Enclave\PerformanceTests_t.c:284.2
$LN506:
        je        .B4.27        ; Prob 50%                      ;\\Mac\Home\Documents\Studium\6. Semester\Bachelorarbeit\Code\PerformanceTests\Enclave\PerformanceTests_t.c:284.2
$LN507:
                                ; LOE rbx rbp rsp r12 r13 r14 r15 rip zmm6 zmm7 zmm8 zmm9 zmm10 zmm11 zmm12 zmm13 zmm14 zmm15
.B4.23::                        ; Preds .B4.22
                                ; Execution count [0.00e+000]
$LN508:

;;; 		if ((_in_out = (uint8_t*)malloc(_len_out)) == NULL) {

        mov       rax, QWORD PTR [64+rbp]                       ;\\Mac\Home\Documents\Studium\6. Semester\Bachelorarbeit\Code\PerformanceTests\Enclave\PerformanceTests_t.c:285.3
$LN509:
        mov       rcx, rax                                      ;\\Mac\Home\Documents\Studium\6. Semester\Bachelorarbeit\Code\PerformanceTests\Enclave\PerformanceTests_t.c:285.3
$LN510:
;       malloc(size_t)
        call      malloc                                        ;\\Mac\Home\Documents\Studium\6. Semester\Bachelorarbeit\Code\PerformanceTests\Enclave\PerformanceTests_t.c:285.3
$LN511:
                                ; LOE rax rbx rbp rsp r12 r13 r14 r15 rip zmm6 zmm7 zmm8 zmm9 zmm10 zmm11 zmm12 zmm13 zmm14 zmm15
.B4.42::                        ; Preds .B4.23
                                ; Execution count [0.00e+000]
$LN512:
        mov       QWORD PTR [88+rbp], rax                       ;\\Mac\Home\Documents\Studium\6. Semester\Bachelorarbeit\Code\PerformanceTests\Enclave\PerformanceTests_t.c:285.3
$LN513:
                                ; LOE rbx rbp rsp r12 r13 r14 r15 rip zmm6 zmm7 zmm8 zmm9 zmm10 zmm11 zmm12 zmm13 zmm14 zmm15
.B4.24::                        ; Preds .B4.42
                                ; Execution count [0.00e+000]
$LN514:
        mov       rax, QWORD PTR [88+rbp]                       ;\\Mac\Home\Documents\Studium\6. Semester\Bachelorarbeit\Code\PerformanceTests\Enclave\PerformanceTests_t.c:285.3
$LN515:
        mov       QWORD PTR [112+rbp], rax                      ;\\Mac\Home\Documents\Studium\6. Semester\Bachelorarbeit\Code\PerformanceTests\Enclave\PerformanceTests_t.c:285.3
$LN516:
        mov       rax, QWORD PTR [112+rbp]                      ;\\Mac\Home\Documents\Studium\6. Semester\Bachelorarbeit\Code\PerformanceTests\Enclave\PerformanceTests_t.c:285.3
$LN517:
        mov       QWORD PTR [72+rbp], rax                       ;\\Mac\Home\Documents\Studium\6. Semester\Bachelorarbeit\Code\PerformanceTests\Enclave\PerformanceTests_t.c:285.3
$LN518:
        mov       rax, QWORD PTR [112+rbp]                      ;\\Mac\Home\Documents\Studium\6. Semester\Bachelorarbeit\Code\PerformanceTests\Enclave\PerformanceTests_t.c:285.3
$LN519:
        test      rax, rax                                      ;\\Mac\Home\Documents\Studium\6. Semester\Bachelorarbeit\Code\PerformanceTests\Enclave\PerformanceTests_t.c:285.3
$LN520:
        jne       .B4.26        ; Prob 50%                      ;\\Mac\Home\Documents\Studium\6. Semester\Bachelorarbeit\Code\PerformanceTests\Enclave\PerformanceTests_t.c:285.3
$LN521:
                                ; LOE rbx rbp rsp r12 r13 r14 r15 rip zmm6 zmm7 zmm8 zmm9 zmm10 zmm11 zmm12 zmm13 zmm14 zmm15
.B4.25::                        ; Preds .B4.24
                                ; Execution count [0.00e+000]
$LN522:

;;; 			status = SGX_ERROR_OUT_OF_MEMORY;

        mov       DWORD PTR [rbp], 3                            ;\\Mac\Home\Documents\Studium\6. Semester\Bachelorarbeit\Code\PerformanceTests\Enclave\PerformanceTests_t.c:286.4
$LN523:
        jmp       .B4.29        ; Prob 100%                     ;\\Mac\Home\Documents\Studium\6. Semester\Bachelorarbeit\Code\PerformanceTests\Enclave\PerformanceTests_t.c:286.4
$LN524:
                                ; LOE rbx rbp rsp r12 r13 r14 r15 rip zmm6 zmm7 zmm8 zmm9 zmm10 zmm11 zmm12 zmm13 zmm14 zmm15
.B4.26::                        ; Preds .B4.24
                                ; Execution count [0.00e+000]
$LN525:

;;; 			goto err;
;;; 		}
;;; 
;;; 		memset((void*)_in_out, 0, _len_out);

        mov       rax, QWORD PTR [72+rbp]                       ;\\Mac\Home\Documents\Studium\6. Semester\Bachelorarbeit\Code\PerformanceTests\Enclave\PerformanceTests_t.c:290.3
$LN526:
        mov       edx, 0                                        ;\\Mac\Home\Documents\Studium\6. Semester\Bachelorarbeit\Code\PerformanceTests\Enclave\PerformanceTests_t.c:290.3
$LN527:
        mov       rcx, QWORD PTR [64+rbp]                       ;\\Mac\Home\Documents\Studium\6. Semester\Bachelorarbeit\Code\PerformanceTests\Enclave\PerformanceTests_t.c:290.3
$LN528:
        mov       rdi, rax                                      ;\\Mac\Home\Documents\Studium\6. Semester\Bachelorarbeit\Code\PerformanceTests\Enclave\PerformanceTests_t.c:290.3
$LN529:
        mov       eax, edx                                      ;\\Mac\Home\Documents\Studium\6. Semester\Bachelorarbeit\Code\PerformanceTests\Enclave\PerformanceTests_t.c:290.3
$LN530:
        and       eax, 65535                                    ;\\Mac\Home\Documents\Studium\6. Semester\Bachelorarbeit\Code\PerformanceTests\Enclave\PerformanceTests_t.c:290.3
$LN531:
        mov       ah, al                                        ;\\Mac\Home\Documents\Studium\6. Semester\Bachelorarbeit\Code\PerformanceTests\Enclave\PerformanceTests_t.c:290.3
$LN532:
        mov       edx, eax                                      ;\\Mac\Home\Documents\Studium\6. Semester\Bachelorarbeit\Code\PerformanceTests\Enclave\PerformanceTests_t.c:290.3
$LN533:
        shl       eax, 16                                       ;\\Mac\Home\Documents\Studium\6. Semester\Bachelorarbeit\Code\PerformanceTests\Enclave\PerformanceTests_t.c:290.3
$LN534:
        or        eax, edx                                      ;\\Mac\Home\Documents\Studium\6. Semester\Bachelorarbeit\Code\PerformanceTests\Enclave\PerformanceTests_t.c:290.3
$LN535:
        mov       esi, ecx                                      ;\\Mac\Home\Documents\Studium\6. Semester\Bachelorarbeit\Code\PerformanceTests\Enclave\PerformanceTests_t.c:290.3
$LN536:
        shr       rcx, 2                                        ;\\Mac\Home\Documents\Studium\6. Semester\Bachelorarbeit\Code\PerformanceTests\Enclave\PerformanceTests_t.c:290.3
$LN537:
        mov       rdx, rdi                                      ;\\Mac\Home\Documents\Studium\6. Semester\Bachelorarbeit\Code\PerformanceTests\Enclave\PerformanceTests_t.c:290.3
$LN538:
        rep   stosd                                             ;\\Mac\Home\Documents\Studium\6. Semester\Bachelorarbeit\Code\PerformanceTests\Enclave\PerformanceTests_t.c:290.3
$LN539:
        mov       ecx, esi                                      ;\\Mac\Home\Documents\Studium\6. Semester\Bachelorarbeit\Code\PerformanceTests\Enclave\PerformanceTests_t.c:290.3
$LN540:
        and       ecx, 3                                        ;\\Mac\Home\Documents\Studium\6. Semester\Bachelorarbeit\Code\PerformanceTests\Enclave\PerformanceTests_t.c:290.3
$LN541:
        rep   stosb                                             ;\\Mac\Home\Documents\Studium\6. Semester\Bachelorarbeit\Code\PerformanceTests\Enclave\PerformanceTests_t.c:290.3
$LN542:
        mov       rax, rdx                                      ;\\Mac\Home\Documents\Studium\6. Semester\Bachelorarbeit\Code\PerformanceTests\Enclave\PerformanceTests_t.c:290.3
$LN543:
                                ; LOE rax rbx rbp rsp r12 r13 r14 r15 rip zmm6 zmm7 zmm8 zmm9 zmm10 zmm11 zmm12 zmm13 zmm14 zmm15
.B4.43::                        ; Preds .B4.26
                                ; Execution count [0.00e+000]
$LN544:
        mov       QWORD PTR [120+rbp], rax                      ;\\Mac\Home\Documents\Studium\6. Semester\Bachelorarbeit\Code\PerformanceTests\Enclave\PerformanceTests_t.c:290.3
$LN545:
                                ; LOE rbx rbp rsp r12 r13 r14 r15 rip zmm6 zmm7 zmm8 zmm9 zmm10 zmm11 zmm12 zmm13 zmm14 zmm15
.B4.27::                        ; Preds .B4.43 .B4.22
                                ; Execution count [0.00e+000]
$LN546:

;;; 	}
;;; 	ms->ms_retval = enclaveIterate(_in_in, _tmp_length, _in_out);

        mov       rax, QWORD PTR [48+rbp]                       ;\\Mac\Home\Documents\Studium\6. Semester\Bachelorarbeit\Code\PerformanceTests\Enclave\PerformanceTests_t.c:292.2
$LN547:
        mov       rdx, QWORD PTR [32+rbp]                       ;\\Mac\Home\Documents\Studium\6. Semester\Bachelorarbeit\Code\PerformanceTests\Enclave\PerformanceTests_t.c:292.2
$LN548:
        mov       rcx, QWORD PTR [72+rbp]                       ;\\Mac\Home\Documents\Studium\6. Semester\Bachelorarbeit\Code\PerformanceTests\Enclave\PerformanceTests_t.c:292.2
$LN549:
        mov       QWORD PTR [136+rbp], rcx                      ;\\Mac\Home\Documents\Studium\6. Semester\Bachelorarbeit\Code\PerformanceTests\Enclave\PerformanceTests_t.c:292.2[spill]
$LN550:
        mov       rcx, rax                                      ;\\Mac\Home\Documents\Studium\6. Semester\Bachelorarbeit\Code\PerformanceTests\Enclave\PerformanceTests_t.c:292.2
$LN551:
        mov       rax, QWORD PTR [136+rbp]                      ;\\Mac\Home\Documents\Studium\6. Semester\Bachelorarbeit\Code\PerformanceTests\Enclave\PerformanceTests_t.c:292.2[spill]
$LN552:
        mov       r8, rax                                       ;\\Mac\Home\Documents\Studium\6. Semester\Bachelorarbeit\Code\PerformanceTests\Enclave\PerformanceTests_t.c:292.2
$LN553:
;       enclaveIterate(uint8_t *, size_t, uint8_t *)
        call      enclaveIterate                                ;\\Mac\Home\Documents\Studium\6. Semester\Bachelorarbeit\Code\PerformanceTests\Enclave\PerformanceTests_t.c:292.2
$LN554:
                                ; LOE rax rbx rbp rsp r12 r13 r14 r15 rip zmm6 zmm7 zmm8 zmm9 zmm10 zmm11 zmm12 zmm13 zmm14 zmm15
.B4.44::                        ; Preds .B4.27
                                ; Execution count [0.00e+000]
$LN555:
        mov       QWORD PTR [96+rbp], rax                       ;\\Mac\Home\Documents\Studium\6. Semester\Bachelorarbeit\Code\PerformanceTests\Enclave\PerformanceTests_t.c:292.2
$LN556:
                                ; LOE rbx rbp rsp r12 r13 r14 r15 rip zmm6 zmm7 zmm8 zmm9 zmm10 zmm11 zmm12 zmm13 zmm14 zmm15
.B4.28::                        ; Preds .B4.44
                                ; Execution count [0.00e+000]
$LN557:
        mov       rax, QWORD PTR [16+rbp]                       ;\\Mac\Home\Documents\Studium\6. Semester\Bachelorarbeit\Code\PerformanceTests\Enclave\PerformanceTests_t.c:292.2
$LN558:
        mov       rdx, QWORD PTR [96+rbp]                       ;\\Mac\Home\Documents\Studium\6. Semester\Bachelorarbeit\Code\PerformanceTests\Enclave\PerformanceTests_t.c:292.2
$LN559:
        mov       QWORD PTR [rax], rdx                          ;\\Mac\Home\Documents\Studium\6. Semester\Bachelorarbeit\Code\PerformanceTests\Enclave\PerformanceTests_t.c:292.2
$LN560:
                                ; LOE rbx rbp rsp r12 r13 r14 r15 rip zmm6 zmm7 zmm8 zmm9 zmm10 zmm11 zmm12 zmm13 zmm14 zmm15
.B4.29::                        ; Preds .B4.28 .B4.25 .B4.20
                                ; Execution count [0.00e+000]
$LN561:

;;; err:
;;; 	if (_in_in) free(_in_in);

        mov       rax, QWORD PTR [48+rbp]                       ;\\Mac\Home\Documents\Studium\6. Semester\Bachelorarbeit\Code\PerformanceTests\Enclave\PerformanceTests_t.c:294.2
$LN562:
        test      rax, rax                                      ;\\Mac\Home\Documents\Studium\6. Semester\Bachelorarbeit\Code\PerformanceTests\Enclave\PerformanceTests_t.c:294.2
$LN563:
        je        .B4.31        ; Prob 50%                      ;\\Mac\Home\Documents\Studium\6. Semester\Bachelorarbeit\Code\PerformanceTests\Enclave\PerformanceTests_t.c:294.2
$LN564:
                                ; LOE rbx rbp rsp r12 r13 r14 r15 rip zmm6 zmm7 zmm8 zmm9 zmm10 zmm11 zmm12 zmm13 zmm14 zmm15
.B4.30::                        ; Preds .B4.29
                                ; Execution count [0.00e+000]
$LN565:
        mov       rax, QWORD PTR [48+rbp]                       ;\\Mac\Home\Documents\Studium\6. Semester\Bachelorarbeit\Code\PerformanceTests\Enclave\PerformanceTests_t.c:294.14
$LN566:
        mov       rcx, rax                                      ;\\Mac\Home\Documents\Studium\6. Semester\Bachelorarbeit\Code\PerformanceTests\Enclave\PerformanceTests_t.c:294.14
$LN567:
;       free(void *)
        call      free                                          ;\\Mac\Home\Documents\Studium\6. Semester\Bachelorarbeit\Code\PerformanceTests\Enclave\PerformanceTests_t.c:294.14
$LN568:
                                ; LOE rbx rbp rsp r12 r13 r14 r15 rip zmm6 zmm7 zmm8 zmm9 zmm10 zmm11 zmm12 zmm13 zmm14 zmm15
.B4.45::                        ; Preds .B4.30
                                ; Execution count [0.00e+000]
$LN569:
                                ; LOE rbx rbp rsp r12 r13 r14 r15 rip zmm6 zmm7 zmm8 zmm9 zmm10 zmm11 zmm12 zmm13 zmm14 zmm15
.B4.31::                        ; Preds .B4.45 .B4.29
                                ; Execution count [0.00e+000]
$LN570:

;;; 	if (_in_out) {

        mov       rax, QWORD PTR [72+rbp]                       ;\\Mac\Home\Documents\Studium\6. Semester\Bachelorarbeit\Code\PerformanceTests\Enclave\PerformanceTests_t.c:295.2
$LN571:
        test      rax, rax                                      ;\\Mac\Home\Documents\Studium\6. Semester\Bachelorarbeit\Code\PerformanceTests\Enclave\PerformanceTests_t.c:295.2
$LN572:
        je        .B4.34        ; Prob 50%                      ;\\Mac\Home\Documents\Studium\6. Semester\Bachelorarbeit\Code\PerformanceTests\Enclave\PerformanceTests_t.c:295.2
$LN573:
                                ; LOE rbx rbp rsp r12 r13 r14 r15 rip zmm6 zmm7 zmm8 zmm9 zmm10 zmm11 zmm12 zmm13 zmm14 zmm15
.B4.32::                        ; Preds .B4.31
                                ; Execution count [0.00e+000]
$LN574:

;;; 		memcpy(_tmp_out, _in_out, _len_out);

        mov       rax, QWORD PTR [56+rbp]                       ;\\Mac\Home\Documents\Studium\6. Semester\Bachelorarbeit\Code\PerformanceTests\Enclave\PerformanceTests_t.c:296.3
$LN575:
        mov       rdx, QWORD PTR [72+rbp]                       ;\\Mac\Home\Documents\Studium\6. Semester\Bachelorarbeit\Code\PerformanceTests\Enclave\PerformanceTests_t.c:296.3
$LN576:
        mov       rcx, QWORD PTR [64+rbp]                       ;\\Mac\Home\Documents\Studium\6. Semester\Bachelorarbeit\Code\PerformanceTests\Enclave\PerformanceTests_t.c:296.3
$LN577:
        mov       rdi, rax                                      ;\\Mac\Home\Documents\Studium\6. Semester\Bachelorarbeit\Code\PerformanceTests\Enclave\PerformanceTests_t.c:296.3
$LN578:
        mov       rsi, rdx                                      ;\\Mac\Home\Documents\Studium\6. Semester\Bachelorarbeit\Code\PerformanceTests\Enclave\PerformanceTests_t.c:296.3
$LN579:
        mov       rdx, rdi                                      ;\\Mac\Home\Documents\Studium\6. Semester\Bachelorarbeit\Code\PerformanceTests\Enclave\PerformanceTests_t.c:296.3
$LN580:
        mov       eax, ecx                                      ;\\Mac\Home\Documents\Studium\6. Semester\Bachelorarbeit\Code\PerformanceTests\Enclave\PerformanceTests_t.c:296.3
$LN581:
        shr       rcx, 2                                        ;\\Mac\Home\Documents\Studium\6. Semester\Bachelorarbeit\Code\PerformanceTests\Enclave\PerformanceTests_t.c:296.3
$LN582:
        rep   movsd                                             ;\\Mac\Home\Documents\Studium\6. Semester\Bachelorarbeit\Code\PerformanceTests\Enclave\PerformanceTests_t.c:296.3
$LN583:
        mov       ecx, eax                                      ;\\Mac\Home\Documents\Studium\6. Semester\Bachelorarbeit\Code\PerformanceTests\Enclave\PerformanceTests_t.c:296.3
$LN584:
        and       ecx, 3                                        ;\\Mac\Home\Documents\Studium\6. Semester\Bachelorarbeit\Code\PerformanceTests\Enclave\PerformanceTests_t.c:296.3
$LN585:
        rep   movsb                                             ;\\Mac\Home\Documents\Studium\6. Semester\Bachelorarbeit\Code\PerformanceTests\Enclave\PerformanceTests_t.c:296.3
$LN586:
        mov       rax, rdx                                      ;\\Mac\Home\Documents\Studium\6. Semester\Bachelorarbeit\Code\PerformanceTests\Enclave\PerformanceTests_t.c:296.3
$LN587:
                                ; LOE rax rbx rbp rsp r12 r13 r14 r15 rip zmm6 zmm7 zmm8 zmm9 zmm10 zmm11 zmm12 zmm13 zmm14 zmm15
.B4.46::                        ; Preds .B4.32
                                ; Execution count [0.00e+000]
$LN588:
        mov       QWORD PTR [128+rbp], rax                      ;\\Mac\Home\Documents\Studium\6. Semester\Bachelorarbeit\Code\PerformanceTests\Enclave\PerformanceTests_t.c:296.3
$LN589:
                                ; LOE rbx rbp rsp r12 r13 r14 r15 rip zmm6 zmm7 zmm8 zmm9 zmm10 zmm11 zmm12 zmm13 zmm14 zmm15
.B4.33::                        ; Preds .B4.46
                                ; Execution count [0.00e+000]
$LN590:

;;; 		free(_in_out);

        mov       rax, QWORD PTR [72+rbp]                       ;\\Mac\Home\Documents\Studium\6. Semester\Bachelorarbeit\Code\PerformanceTests\Enclave\PerformanceTests_t.c:297.3
$LN591:
        mov       rcx, rax                                      ;\\Mac\Home\Documents\Studium\6. Semester\Bachelorarbeit\Code\PerformanceTests\Enclave\PerformanceTests_t.c:297.3
$LN592:
;       free(void *)
        call      free                                          ;\\Mac\Home\Documents\Studium\6. Semester\Bachelorarbeit\Code\PerformanceTests\Enclave\PerformanceTests_t.c:297.3
$LN593:
                                ; LOE rbx rbp rsp r12 r13 r14 r15 rip zmm6 zmm7 zmm8 zmm9 zmm10 zmm11 zmm12 zmm13 zmm14 zmm15
.B4.47::                        ; Preds .B4.33
                                ; Execution count [0.00e+000]
$LN594:
                                ; LOE rbx rbp rsp r12 r13 r14 r15 rip zmm6 zmm7 zmm8 zmm9 zmm10 zmm11 zmm12 zmm13 zmm14 zmm15
.B4.34::                        ; Preds .B4.47 .B4.31
                                ; Execution count [0.00e+000]
$LN595:

;;; 	}
;;; 
;;; 	return status;

        mov       eax, DWORD PTR [rbp]                          ;\\Mac\Home\Documents\Studium\6. Semester\Bachelorarbeit\Code\PerformanceTests\Enclave\PerformanceTests_t.c:300.2
$LN596:
        mov       rsi, QWORD PTR [144+rbp]                      ;\\Mac\Home\Documents\Studium\6. Semester\Bachelorarbeit\Code\PerformanceTests\Enclave\PerformanceTests_t.c:300.2[spill]
$LN597:
        mov       rdi, QWORD PTR [152+rbp]                      ;\\Mac\Home\Documents\Studium\6. Semester\Bachelorarbeit\Code\PerformanceTests\Enclave\PerformanceTests_t.c:300.2[spill]
$LN598:
        lea       rsp, QWORD PTR [160+rbp]                      ;\\Mac\Home\Documents\Studium\6. Semester\Bachelorarbeit\Code\PerformanceTests\Enclave\PerformanceTests_t.c:300.2
$LN599:
        pop       rbp                                           ;\\Mac\Home\Documents\Studium\6. Semester\Bachelorarbeit\Code\PerformanceTests\Enclave\PerformanceTests_t.c:300.2
$LN600:
        ret                                                     ;\\Mac\Home\Documents\Studium\6. Semester\Bachelorarbeit\Code\PerformanceTests\Enclave\PerformanceTests_t.c:300.2
$LN601:
                                ; LOE
.B4.35::
$LN602:
; mark_end;
sgx_enclaveIterate ENDP
$LNsgx_enclaveIterate$603:
_TEXT	ENDS
.xdata	SEGMENT  DWORD   READ  ''
	ALIGN 004H
.unwind.sgx_enclaveIterate.B1_B34	DD	621288193
	DD	1467419
	DD	1537044
	DD	17302285
	DD	1342242840
.xdata	ENDS
.pdata	SEGMENT  DWORD   READ  ''
	ALIGN 004H
.pdata.sgx_enclaveIterate.B1_B34	DD	imagerel .B4.1
	DD	imagerel .B4.35
	DD	imagerel .unwind.sgx_enclaveIterate.B1_B34
.pdata	ENDS
_DATA	SEGMENT      'DATA'
_DATA	ENDS
; -- End  sgx_enclaveIterate
_TEXT	SEGMENT      'CODE'
_2__routine_start_sgx_enclaveVByteEncode_4:
; -- Begin  sgx_enclaveVByteEncode
_TEXT	ENDS
_TEXT	SEGMENT      'CODE'
; mark_begin;

; --- sgx_enclaveVByteEncode(void *)
sgx_enclaveVByteEncode	PROC PRIVATE
; parameter 1(pms): rcx
.B5.1::                         ; Preds .B5.0
                                ; Execution count [0.00e+000]

;;; {

L34::
                                                          ;\\Mac\Home\Documents\Studium\6. Semester\Bachelorarbeit\Code\PerformanceTests\Enclave\PerformanceTests_t.c:304.1
$LN604:
        push      rbp                                           ;\\Mac\Home\Documents\Studium\6. Semester\Bachelorarbeit\Code\PerformanceTests\Enclave\PerformanceTests_t.c:304.1
$LN605:
        sub       rsp, 208                                      ;\\Mac\Home\Documents\Studium\6. Semester\Bachelorarbeit\Code\PerformanceTests\Enclave\PerformanceTests_t.c:304.1
$LN606:
        lea       rbp, QWORD PTR [32+rsp]                       ;\\Mac\Home\Documents\Studium\6. Semester\Bachelorarbeit\Code\PerformanceTests\Enclave\PerformanceTests_t.c:304.1
$LN607:
        mov       QWORD PTR [168+rbp], rdi                      ;\\Mac\Home\Documents\Studium\6. Semester\Bachelorarbeit\Code\PerformanceTests\Enclave\PerformanceTests_t.c:304.1[spill]
$LN608:
        mov       QWORD PTR [160+rbp], rsi                      ;\\Mac\Home\Documents\Studium\6. Semester\Bachelorarbeit\Code\PerformanceTests\Enclave\PerformanceTests_t.c:304.1[spill]
$LN609:
        mov       QWORD PTR [152+rbp], rbx                      ;\\Mac\Home\Documents\Studium\6. Semester\Bachelorarbeit\Code\PerformanceTests\Enclave\PerformanceTests_t.c:304.1[spill]
$LN610:
        mov       QWORD PTR [192+rbp], rcx                      ;\\Mac\Home\Documents\Studium\6. Semester\Bachelorarbeit\Code\PerformanceTests\Enclave\PerformanceTests_t.c:304.1
$LN611:

;;; 	ms_enclaveVByteEncode_t* ms = SGX_CAST(ms_enclaveVByteEncode_t*, pms);

        mov       rax, QWORD PTR [192+rbp]                      ;\\Mac\Home\Documents\Studium\6. Semester\Bachelorarbeit\Code\PerformanceTests\Enclave\PerformanceTests_t.c:305.30
$LN612:
        mov       QWORD PTR [16+rbp], rax                       ;\\Mac\Home\Documents\Studium\6. Semester\Bachelorarbeit\Code\PerformanceTests\Enclave\PerformanceTests_t.c:305.30
$LN613:

;;; 	sgx_status_t status = SGX_SUCCESS;

        mov       DWORD PTR [rbp], 0                            ;\\Mac\Home\Documents\Studium\6. Semester\Bachelorarbeit\Code\PerformanceTests\Enclave\PerformanceTests_t.c:306.22
$LN614:

;;; 	uint8_t* _tmp_in = ms->ms_in;

        mov       rax, QWORD PTR [16+rbp]                       ;\\Mac\Home\Documents\Studium\6. Semester\Bachelorarbeit\Code\PerformanceTests\Enclave\PerformanceTests_t.c:307.19
$LN615:
        mov       rax, QWORD PTR [8+rax]                        ;\\Mac\Home\Documents\Studium\6. Semester\Bachelorarbeit\Code\PerformanceTests\Enclave\PerformanceTests_t.c:307.19
$LN616:
        mov       QWORD PTR [24+rbp], rax                       ;\\Mac\Home\Documents\Studium\6. Semester\Bachelorarbeit\Code\PerformanceTests\Enclave\PerformanceTests_t.c:307.19
$LN617:

;;; 	size_t _tmp_inLength = ms->ms_inLength;

        mov       rax, QWORD PTR [16+rbp]                       ;\\Mac\Home\Documents\Studium\6. Semester\Bachelorarbeit\Code\PerformanceTests\Enclave\PerformanceTests_t.c:308.23
$LN618:
        mov       rax, QWORD PTR [16+rax]                       ;\\Mac\Home\Documents\Studium\6. Semester\Bachelorarbeit\Code\PerformanceTests\Enclave\PerformanceTests_t.c:308.23
$LN619:
        mov       QWORD PTR [32+rbp], rax                       ;\\Mac\Home\Documents\Studium\6. Semester\Bachelorarbeit\Code\PerformanceTests\Enclave\PerformanceTests_t.c:308.23
$LN620:

;;; 	size_t _len_in = _tmp_inLength;

        mov       rax, QWORD PTR [32+rbp]                       ;\\Mac\Home\Documents\Studium\6. Semester\Bachelorarbeit\Code\PerformanceTests\Enclave\PerformanceTests_t.c:309.17
$LN621:
        mov       QWORD PTR [40+rbp], rax                       ;\\Mac\Home\Documents\Studium\6. Semester\Bachelorarbeit\Code\PerformanceTests\Enclave\PerformanceTests_t.c:309.17
$LN622:

;;; 	uint8_t* _in_in = NULL;

        mov       QWORD PTR [48+rbp], 0                         ;\\Mac\Home\Documents\Studium\6. Semester\Bachelorarbeit\Code\PerformanceTests\Enclave\PerformanceTests_t.c:310.18
$LN623:

;;; 	uint8_t* _tmp_out = ms->ms_out;

        mov       rax, QWORD PTR [16+rbp]                       ;\\Mac\Home\Documents\Studium\6. Semester\Bachelorarbeit\Code\PerformanceTests\Enclave\PerformanceTests_t.c:311.20
$LN624:
        mov       rax, QWORD PTR [24+rax]                       ;\\Mac\Home\Documents\Studium\6. Semester\Bachelorarbeit\Code\PerformanceTests\Enclave\PerformanceTests_t.c:311.20
$LN625:
        mov       QWORD PTR [56+rbp], rax                       ;\\Mac\Home\Documents\Studium\6. Semester\Bachelorarbeit\Code\PerformanceTests\Enclave\PerformanceTests_t.c:311.20
$LN626:

;;; 	size_t _tmp_outLength = ms->ms_outLength;

        mov       rax, QWORD PTR [16+rbp]                       ;\\Mac\Home\Documents\Studium\6. Semester\Bachelorarbeit\Code\PerformanceTests\Enclave\PerformanceTests_t.c:312.24
$LN627:
        mov       rax, QWORD PTR [32+rax]                       ;\\Mac\Home\Documents\Studium\6. Semester\Bachelorarbeit\Code\PerformanceTests\Enclave\PerformanceTests_t.c:312.24
$LN628:
        mov       QWORD PTR [64+rbp], rax                       ;\\Mac\Home\Documents\Studium\6. Semester\Bachelorarbeit\Code\PerformanceTests\Enclave\PerformanceTests_t.c:312.24
$LN629:

;;; 	size_t _len_out = _tmp_outLength;

        mov       rax, QWORD PTR [64+rbp]                       ;\\Mac\Home\Documents\Studium\6. Semester\Bachelorarbeit\Code\PerformanceTests\Enclave\PerformanceTests_t.c:313.18
$LN630:
        mov       QWORD PTR [72+rbp], rax                       ;\\Mac\Home\Documents\Studium\6. Semester\Bachelorarbeit\Code\PerformanceTests\Enclave\PerformanceTests_t.c:313.18
$LN631:

;;; 	uint8_t* _in_out = NULL;

        mov       QWORD PTR [80+rbp], 0                         ;\\Mac\Home\Documents\Studium\6. Semester\Bachelorarbeit\Code\PerformanceTests\Enclave\PerformanceTests_t.c:314.19
$LN632:
                                ; LOE rbp rsp r12 r13 r14 r15 rip zmm6 zmm7 zmm8 zmm9 zmm10 zmm11 zmm12 zmm13 zmm14 zmm15
.B5.2::                         ; Preds .B5.5 .B5.1
                                ; Execution count [0.00e+000]
$LN633:

;;; 
;;; 	CHECK_REF_POINTER(pms, sizeof(ms_enclaveVByteEncode_t));

        mov       rax, QWORD PTR [192+rbp]                      ;\\Mac\Home\Documents\Studium\6. Semester\Bachelorarbeit\Code\PerformanceTests\Enclave\PerformanceTests_t.c:316.2
$LN634:
        test      rax, rax                                      ;\\Mac\Home\Documents\Studium\6. Semester\Bachelorarbeit\Code\PerformanceTests\Enclave\PerformanceTests_t.c:316.2
$LN635:
        je        .B5.6         ; Prob 50%                      ;\\Mac\Home\Documents\Studium\6. Semester\Bachelorarbeit\Code\PerformanceTests\Enclave\PerformanceTests_t.c:316.2
$LN636:
                                ; LOE rbp rsp r12 r13 r14 r15 rip zmm6 zmm7 zmm8 zmm9 zmm10 zmm11 zmm12 zmm13 zmm14 zmm15
.B5.3::                         ; Preds .B5.2
                                ; Execution count [0.00e+000]
$LN637:
        mov       rax, QWORD PTR [192+rbp]                      ;\\Mac\Home\Documents\Studium\6. Semester\Bachelorarbeit\Code\PerformanceTests\Enclave\PerformanceTests_t.c:316.2
$LN638:
        mov       edx, 40                                       ;\\Mac\Home\Documents\Studium\6. Semester\Bachelorarbeit\Code\PerformanceTests\Enclave\PerformanceTests_t.c:316.2
$LN639:
        mov       rcx, rax                                      ;\\Mac\Home\Documents\Studium\6. Semester\Bachelorarbeit\Code\PerformanceTests\Enclave\PerformanceTests_t.c:316.2
$LN640:
;       sgx_is_outside_enclave(const void *, size_t)
        call      sgx_is_outside_enclave                        ;\\Mac\Home\Documents\Studium\6. Semester\Bachelorarbeit\Code\PerformanceTests\Enclave\PerformanceTests_t.c:316.2
$LN641:
                                ; LOE rbp rsp r12 r13 r14 r15 rip eax zmm6 zmm7 zmm8 zmm9 zmm10 zmm11 zmm12 zmm13 zmm14 zmm15
.B5.37::                        ; Preds .B5.3
                                ; Execution count [0.00e+000]
$LN642:
        mov       DWORD PTR [4+rbp], eax                        ;\\Mac\Home\Documents\Studium\6. Semester\Bachelorarbeit\Code\PerformanceTests\Enclave\PerformanceTests_t.c:316.2
$LN643:
                                ; LOE rbp rsp r12 r13 r14 r15 rip zmm6 zmm7 zmm8 zmm9 zmm10 zmm11 zmm12 zmm13 zmm14 zmm15
.B5.4::                         ; Preds .B5.37
                                ; Execution count [0.00e+000]
$LN644:
        mov       eax, DWORD PTR [4+rbp]                        ;\\Mac\Home\Documents\Studium\6. Semester\Bachelorarbeit\Code\PerformanceTests\Enclave\PerformanceTests_t.c:316.2
$LN645:
        test      eax, eax                                      ;\\Mac\Home\Documents\Studium\6. Semester\Bachelorarbeit\Code\PerformanceTests\Enclave\PerformanceTests_t.c:316.2
$LN646:
        je        .B5.6         ; Prob 50%                      ;\\Mac\Home\Documents\Studium\6. Semester\Bachelorarbeit\Code\PerformanceTests\Enclave\PerformanceTests_t.c:316.2
$LN647:
                                ; LOE rbp rsp r12 r13 r14 r15 rip zmm6 zmm7 zmm8 zmm9 zmm10 zmm11 zmm12 zmm13 zmm14 zmm15
.B5.5::                         ; Preds .B5.4
                                ; Execution count [0.00e+000]
$LN648:
        mov       eax, 0                                        ;\\Mac\Home\Documents\Studium\6. Semester\Bachelorarbeit\Code\PerformanceTests\Enclave\PerformanceTests_t.c:316.2
$LN649:
        test      eax, eax                                      ;\\Mac\Home\Documents\Studium\6. Semester\Bachelorarbeit\Code\PerformanceTests\Enclave\PerformanceTests_t.c:316.2
$LN650:
        jne       .B5.2         ; Prob 0%                       ;\\Mac\Home\Documents\Studium\6. Semester\Bachelorarbeit\Code\PerformanceTests\Enclave\PerformanceTests_t.c:316.2
$LN651:
        jmp       .B5.7         ; Prob 100%                     ;\\Mac\Home\Documents\Studium\6. Semester\Bachelorarbeit\Code\PerformanceTests\Enclave\PerformanceTests_t.c:316.2
$LN652:
                                ; LOE rbp rsp r12 r13 r14 r15 rip zmm6 zmm7 zmm8 zmm9 zmm10 zmm11 zmm12 zmm13 zmm14 zmm15
.B5.6::                         ; Preds .B5.2 .B5.4
                                ; Execution count [0.00e+000]
$LN653:
        mov       eax, 2                                        ;\\Mac\Home\Documents\Studium\6. Semester\Bachelorarbeit\Code\PerformanceTests\Enclave\PerformanceTests_t.c:316.2
$LN654:
        mov       rbx, QWORD PTR [152+rbp]                      ;\\Mac\Home\Documents\Studium\6. Semester\Bachelorarbeit\Code\PerformanceTests\Enclave\PerformanceTests_t.c:316.2[spill]
$LN655:
        mov       rsi, QWORD PTR [160+rbp]                      ;\\Mac\Home\Documents\Studium\6. Semester\Bachelorarbeit\Code\PerformanceTests\Enclave\PerformanceTests_t.c:316.2[spill]
$LN656:
        mov       rdi, QWORD PTR [168+rbp]                      ;\\Mac\Home\Documents\Studium\6. Semester\Bachelorarbeit\Code\PerformanceTests\Enclave\PerformanceTests_t.c:316.2[spill]
$LN657:
        lea       rsp, QWORD PTR [176+rbp]                      ;\\Mac\Home\Documents\Studium\6. Semester\Bachelorarbeit\Code\PerformanceTests\Enclave\PerformanceTests_t.c:316.2
$LN658:
        pop       rbp                                           ;\\Mac\Home\Documents\Studium\6. Semester\Bachelorarbeit\Code\PerformanceTests\Enclave\PerformanceTests_t.c:316.2
$LN659:
        ret                                                     ;\\Mac\Home\Documents\Studium\6. Semester\Bachelorarbeit\Code\PerformanceTests\Enclave\PerformanceTests_t.c:316.2
$LN660:
                                ; LOE
.B5.7::                         ; Preds .B5.10 .B5.5
                                ; Execution count [0.00e+000]
$LN661:

;;; 	CHECK_UNIQUE_POINTER(_tmp_in, _len_in);

        mov       rax, QWORD PTR [24+rbp]                       ;\\Mac\Home\Documents\Studium\6. Semester\Bachelorarbeit\Code\PerformanceTests\Enclave\PerformanceTests_t.c:317.2
$LN662:
        test      rax, rax                                      ;\\Mac\Home\Documents\Studium\6. Semester\Bachelorarbeit\Code\PerformanceTests\Enclave\PerformanceTests_t.c:317.2
$LN663:
        je        .B5.10        ; Prob 50%                      ;\\Mac\Home\Documents\Studium\6. Semester\Bachelorarbeit\Code\PerformanceTests\Enclave\PerformanceTests_t.c:317.2
$LN664:
                                ; LOE rbp rsp r12 r13 r14 r15 rip zmm6 zmm7 zmm8 zmm9 zmm10 zmm11 zmm12 zmm13 zmm14 zmm15
.B5.8::                         ; Preds .B5.7
                                ; Execution count [0.00e+000]
$LN665:
        mov       rax, QWORD PTR [24+rbp]                       ;\\Mac\Home\Documents\Studium\6. Semester\Bachelorarbeit\Code\PerformanceTests\Enclave\PerformanceTests_t.c:317.2
$LN666:
        mov       rdx, QWORD PTR [40+rbp]                       ;\\Mac\Home\Documents\Studium\6. Semester\Bachelorarbeit\Code\PerformanceTests\Enclave\PerformanceTests_t.c:317.2
$LN667:
        mov       rcx, rax                                      ;\\Mac\Home\Documents\Studium\6. Semester\Bachelorarbeit\Code\PerformanceTests\Enclave\PerformanceTests_t.c:317.2
$LN668:
;       sgx_is_outside_enclave(const void *, size_t)
        call      sgx_is_outside_enclave                        ;\\Mac\Home\Documents\Studium\6. Semester\Bachelorarbeit\Code\PerformanceTests\Enclave\PerformanceTests_t.c:317.2
$LN669:
                                ; LOE rbp rsp r12 r13 r14 r15 rip eax zmm6 zmm7 zmm8 zmm9 zmm10 zmm11 zmm12 zmm13 zmm14 zmm15
.B5.38::                        ; Preds .B5.8
                                ; Execution count [0.00e+000]
$LN670:
        mov       DWORD PTR [8+rbp], eax                        ;\\Mac\Home\Documents\Studium\6. Semester\Bachelorarbeit\Code\PerformanceTests\Enclave\PerformanceTests_t.c:317.2
$LN671:
                                ; LOE rbp rsp r12 r13 r14 r15 rip zmm6 zmm7 zmm8 zmm9 zmm10 zmm11 zmm12 zmm13 zmm14 zmm15
.B5.9::                         ; Preds .B5.38
                                ; Execution count [0.00e+000]
$LN672:
        mov       eax, DWORD PTR [8+rbp]                        ;\\Mac\Home\Documents\Studium\6. Semester\Bachelorarbeit\Code\PerformanceTests\Enclave\PerformanceTests_t.c:317.2
$LN673:
        test      eax, eax                                      ;\\Mac\Home\Documents\Studium\6. Semester\Bachelorarbeit\Code\PerformanceTests\Enclave\PerformanceTests_t.c:317.2
$LN674:
        je        .B5.11        ; Prob 50%                      ;\\Mac\Home\Documents\Studium\6. Semester\Bachelorarbeit\Code\PerformanceTests\Enclave\PerformanceTests_t.c:317.2
$LN675:
                                ; LOE rbp rsp r12 r13 r14 r15 rip zmm6 zmm7 zmm8 zmm9 zmm10 zmm11 zmm12 zmm13 zmm14 zmm15
.B5.10::                        ; Preds .B5.9 .B5.7
                                ; Execution count [0.00e+000]
$LN676:
        mov       eax, 0                                        ;\\Mac\Home\Documents\Studium\6. Semester\Bachelorarbeit\Code\PerformanceTests\Enclave\PerformanceTests_t.c:317.2
$LN677:
        test      eax, eax                                      ;\\Mac\Home\Documents\Studium\6. Semester\Bachelorarbeit\Code\PerformanceTests\Enclave\PerformanceTests_t.c:317.2
$LN678:
        jne       .B5.7         ; Prob 0%                       ;\\Mac\Home\Documents\Studium\6. Semester\Bachelorarbeit\Code\PerformanceTests\Enclave\PerformanceTests_t.c:317.2
$LN679:
        jmp       .B5.12        ; Prob 100%                     ;\\Mac\Home\Documents\Studium\6. Semester\Bachelorarbeit\Code\PerformanceTests\Enclave\PerformanceTests_t.c:317.2
$LN680:
                                ; LOE rbp rsp r12 r13 r14 r15 rip zmm6 zmm7 zmm8 zmm9 zmm10 zmm11 zmm12 zmm13 zmm14 zmm15
.B5.11::                        ; Preds .B5.9
                                ; Execution count [0.00e+000]
$LN681:
        mov       eax, 2                                        ;\\Mac\Home\Documents\Studium\6. Semester\Bachelorarbeit\Code\PerformanceTests\Enclave\PerformanceTests_t.c:317.2
$LN682:
        mov       rbx, QWORD PTR [152+rbp]                      ;\\Mac\Home\Documents\Studium\6. Semester\Bachelorarbeit\Code\PerformanceTests\Enclave\PerformanceTests_t.c:317.2[spill]
$LN683:
        mov       rsi, QWORD PTR [160+rbp]                      ;\\Mac\Home\Documents\Studium\6. Semester\Bachelorarbeit\Code\PerformanceTests\Enclave\PerformanceTests_t.c:317.2[spill]
$LN684:
        mov       rdi, QWORD PTR [168+rbp]                      ;\\Mac\Home\Documents\Studium\6. Semester\Bachelorarbeit\Code\PerformanceTests\Enclave\PerformanceTests_t.c:317.2[spill]
$LN685:
        lea       rsp, QWORD PTR [176+rbp]                      ;\\Mac\Home\Documents\Studium\6. Semester\Bachelorarbeit\Code\PerformanceTests\Enclave\PerformanceTests_t.c:317.2
$LN686:
        pop       rbp                                           ;\\Mac\Home\Documents\Studium\6. Semester\Bachelorarbeit\Code\PerformanceTests\Enclave\PerformanceTests_t.c:317.2
$LN687:
        ret                                                     ;\\Mac\Home\Documents\Studium\6. Semester\Bachelorarbeit\Code\PerformanceTests\Enclave\PerformanceTests_t.c:317.2
$LN688:
                                ; LOE
.B5.12::                        ; Preds .B5.15 .B5.10
                                ; Execution count [0.00e+000]
$LN689:

;;; 	CHECK_UNIQUE_POINTER(_tmp_out, _len_out);

        mov       rax, QWORD PTR [56+rbp]                       ;\\Mac\Home\Documents\Studium\6. Semester\Bachelorarbeit\Code\PerformanceTests\Enclave\PerformanceTests_t.c:318.2
$LN690:
        test      rax, rax                                      ;\\Mac\Home\Documents\Studium\6. Semester\Bachelorarbeit\Code\PerformanceTests\Enclave\PerformanceTests_t.c:318.2
$LN691:
        je        .B5.15        ; Prob 50%                      ;\\Mac\Home\Documents\Studium\6. Semester\Bachelorarbeit\Code\PerformanceTests\Enclave\PerformanceTests_t.c:318.2
$LN692:
                                ; LOE rbp rsp r12 r13 r14 r15 rip zmm6 zmm7 zmm8 zmm9 zmm10 zmm11 zmm12 zmm13 zmm14 zmm15
.B5.13::                        ; Preds .B5.12
                                ; Execution count [0.00e+000]
$LN693:
        mov       rax, QWORD PTR [56+rbp]                       ;\\Mac\Home\Documents\Studium\6. Semester\Bachelorarbeit\Code\PerformanceTests\Enclave\PerformanceTests_t.c:318.2
$LN694:
        mov       rdx, QWORD PTR [72+rbp]                       ;\\Mac\Home\Documents\Studium\6. Semester\Bachelorarbeit\Code\PerformanceTests\Enclave\PerformanceTests_t.c:318.2
$LN695:
        mov       rcx, rax                                      ;\\Mac\Home\Documents\Studium\6. Semester\Bachelorarbeit\Code\PerformanceTests\Enclave\PerformanceTests_t.c:318.2
$LN696:
;       sgx_is_outside_enclave(const void *, size_t)
        call      sgx_is_outside_enclave                        ;\\Mac\Home\Documents\Studium\6. Semester\Bachelorarbeit\Code\PerformanceTests\Enclave\PerformanceTests_t.c:318.2
$LN697:
                                ; LOE rbp rsp r12 r13 r14 r15 rip eax zmm6 zmm7 zmm8 zmm9 zmm10 zmm11 zmm12 zmm13 zmm14 zmm15
.B5.39::                        ; Preds .B5.13
                                ; Execution count [0.00e+000]
$LN698:
        mov       DWORD PTR [12+rbp], eax                       ;\\Mac\Home\Documents\Studium\6. Semester\Bachelorarbeit\Code\PerformanceTests\Enclave\PerformanceTests_t.c:318.2
$LN699:
                                ; LOE rbp rsp r12 r13 r14 r15 rip zmm6 zmm7 zmm8 zmm9 zmm10 zmm11 zmm12 zmm13 zmm14 zmm15
.B5.14::                        ; Preds .B5.39
                                ; Execution count [0.00e+000]
$LN700:
        mov       eax, DWORD PTR [12+rbp]                       ;\\Mac\Home\Documents\Studium\6. Semester\Bachelorarbeit\Code\PerformanceTests\Enclave\PerformanceTests_t.c:318.2
$LN701:
        test      eax, eax                                      ;\\Mac\Home\Documents\Studium\6. Semester\Bachelorarbeit\Code\PerformanceTests\Enclave\PerformanceTests_t.c:318.2
$LN702:
        je        .B5.16        ; Prob 50%                      ;\\Mac\Home\Documents\Studium\6. Semester\Bachelorarbeit\Code\PerformanceTests\Enclave\PerformanceTests_t.c:318.2
$LN703:
                                ; LOE rbp rsp r12 r13 r14 r15 rip zmm6 zmm7 zmm8 zmm9 zmm10 zmm11 zmm12 zmm13 zmm14 zmm15
.B5.15::                        ; Preds .B5.14 .B5.12
                                ; Execution count [0.00e+000]
$LN704:
        mov       eax, 0                                        ;\\Mac\Home\Documents\Studium\6. Semester\Bachelorarbeit\Code\PerformanceTests\Enclave\PerformanceTests_t.c:318.2
$LN705:
        test      eax, eax                                      ;\\Mac\Home\Documents\Studium\6. Semester\Bachelorarbeit\Code\PerformanceTests\Enclave\PerformanceTests_t.c:318.2
$LN706:
        jne       .B5.12        ; Prob 0%                       ;\\Mac\Home\Documents\Studium\6. Semester\Bachelorarbeit\Code\PerformanceTests\Enclave\PerformanceTests_t.c:318.2
$LN707:
        jmp       .B5.17        ; Prob 100%                     ;\\Mac\Home\Documents\Studium\6. Semester\Bachelorarbeit\Code\PerformanceTests\Enclave\PerformanceTests_t.c:318.2
$LN708:
                                ; LOE rbp rsp r12 r13 r14 r15 rip zmm6 zmm7 zmm8 zmm9 zmm10 zmm11 zmm12 zmm13 zmm14 zmm15
.B5.16::                        ; Preds .B5.14
                                ; Execution count [0.00e+000]
$LN709:
        mov       eax, 2                                        ;\\Mac\Home\Documents\Studium\6. Semester\Bachelorarbeit\Code\PerformanceTests\Enclave\PerformanceTests_t.c:318.2
$LN710:
        mov       rbx, QWORD PTR [152+rbp]                      ;\\Mac\Home\Documents\Studium\6. Semester\Bachelorarbeit\Code\PerformanceTests\Enclave\PerformanceTests_t.c:318.2[spill]
$LN711:
        mov       rsi, QWORD PTR [160+rbp]                      ;\\Mac\Home\Documents\Studium\6. Semester\Bachelorarbeit\Code\PerformanceTests\Enclave\PerformanceTests_t.c:318.2[spill]
$LN712:
        mov       rdi, QWORD PTR [168+rbp]                      ;\\Mac\Home\Documents\Studium\6. Semester\Bachelorarbeit\Code\PerformanceTests\Enclave\PerformanceTests_t.c:318.2[spill]
$LN713:
        lea       rsp, QWORD PTR [176+rbp]                      ;\\Mac\Home\Documents\Studium\6. Semester\Bachelorarbeit\Code\PerformanceTests\Enclave\PerformanceTests_t.c:318.2
$LN714:
        pop       rbp                                           ;\\Mac\Home\Documents\Studium\6. Semester\Bachelorarbeit\Code\PerformanceTests\Enclave\PerformanceTests_t.c:318.2
$LN715:
        ret                                                     ;\\Mac\Home\Documents\Studium\6. Semester\Bachelorarbeit\Code\PerformanceTests\Enclave\PerformanceTests_t.c:318.2
$LN716:
                                ; LOE
.B5.17::                        ; Preds .B5.15
                                ; Execution count [0.00e+000]
$LN717:

;;; 
;;; 	if (_tmp_in != NULL) {

        mov       rax, QWORD PTR [24+rbp]                       ;\\Mac\Home\Documents\Studium\6. Semester\Bachelorarbeit\Code\PerformanceTests\Enclave\PerformanceTests_t.c:320.2
$LN718:
        test      rax, rax                                      ;\\Mac\Home\Documents\Studium\6. Semester\Bachelorarbeit\Code\PerformanceTests\Enclave\PerformanceTests_t.c:320.2
$LN719:
        je        .B5.22        ; Prob 50%                      ;\\Mac\Home\Documents\Studium\6. Semester\Bachelorarbeit\Code\PerformanceTests\Enclave\PerformanceTests_t.c:320.2
$LN720:
                                ; LOE rbp rsp r12 r13 r14 r15 rip zmm6 zmm7 zmm8 zmm9 zmm10 zmm11 zmm12 zmm13 zmm14 zmm15
.B5.18::                        ; Preds .B5.17
                                ; Execution count [0.00e+000]
$LN721:

;;; 		_in_in = (uint8_t*)malloc(_len_in);

        mov       rax, QWORD PTR [40+rbp]                       ;\\Mac\Home\Documents\Studium\6. Semester\Bachelorarbeit\Code\PerformanceTests\Enclave\PerformanceTests_t.c:321.3
$LN722:
        mov       rcx, rax                                      ;\\Mac\Home\Documents\Studium\6. Semester\Bachelorarbeit\Code\PerformanceTests\Enclave\PerformanceTests_t.c:321.3
$LN723:
;       malloc(size_t)
        call      malloc                                        ;\\Mac\Home\Documents\Studium\6. Semester\Bachelorarbeit\Code\PerformanceTests\Enclave\PerformanceTests_t.c:321.3
$LN724:
                                ; LOE rax rbp rsp r12 r13 r14 r15 rip zmm6 zmm7 zmm8 zmm9 zmm10 zmm11 zmm12 zmm13 zmm14 zmm15
.B5.40::                        ; Preds .B5.18
                                ; Execution count [0.00e+000]
$LN725:
        mov       QWORD PTR [88+rbp], rax                       ;\\Mac\Home\Documents\Studium\6. Semester\Bachelorarbeit\Code\PerformanceTests\Enclave\PerformanceTests_t.c:321.3
$LN726:
                                ; LOE rbp rsp r12 r13 r14 r15 rip zmm6 zmm7 zmm8 zmm9 zmm10 zmm11 zmm12 zmm13 zmm14 zmm15
.B5.19::                        ; Preds .B5.40
                                ; Execution count [0.00e+000]
$LN727:
        mov       rax, QWORD PTR [88+rbp]                       ;\\Mac\Home\Documents\Studium\6. Semester\Bachelorarbeit\Code\PerformanceTests\Enclave\PerformanceTests_t.c:321.3
$LN728:
        mov       QWORD PTR [48+rbp], rax                       ;\\Mac\Home\Documents\Studium\6. Semester\Bachelorarbeit\Code\PerformanceTests\Enclave\PerformanceTests_t.c:321.3
$LN729:

;;; 		if (_in_in == NULL) {

        mov       rax, QWORD PTR [48+rbp]                       ;\\Mac\Home\Documents\Studium\6. Semester\Bachelorarbeit\Code\PerformanceTests\Enclave\PerformanceTests_t.c:322.3
$LN730:
        test      rax, rax                                      ;\\Mac\Home\Documents\Studium\6. Semester\Bachelorarbeit\Code\PerformanceTests\Enclave\PerformanceTests_t.c:322.3
$LN731:
        jne       .B5.21        ; Prob 50%                      ;\\Mac\Home\Documents\Studium\6. Semester\Bachelorarbeit\Code\PerformanceTests\Enclave\PerformanceTests_t.c:322.3
$LN732:
                                ; LOE rbp rsp r12 r13 r14 r15 rip zmm6 zmm7 zmm8 zmm9 zmm10 zmm11 zmm12 zmm13 zmm14 zmm15
.B5.20::                        ; Preds .B5.19
                                ; Execution count [0.00e+000]
$LN733:

;;; 			status = SGX_ERROR_OUT_OF_MEMORY;

        mov       DWORD PTR [rbp], 3                            ;\\Mac\Home\Documents\Studium\6. Semester\Bachelorarbeit\Code\PerformanceTests\Enclave\PerformanceTests_t.c:323.4
$LN734:
        jmp       .B5.29        ; Prob 100%                     ;\\Mac\Home\Documents\Studium\6. Semester\Bachelorarbeit\Code\PerformanceTests\Enclave\PerformanceTests_t.c:323.4
$LN735:
                                ; LOE rbp rsp r12 r13 r14 r15 rip zmm6 zmm7 zmm8 zmm9 zmm10 zmm11 zmm12 zmm13 zmm14 zmm15
.B5.21::                        ; Preds .B5.19
                                ; Execution count [0.00e+000]
$LN736:

;;; 			goto err;
;;; 		}
;;; 
;;; 		memcpy(_in_in, _tmp_in, _len_in);

        mov       rax, QWORD PTR [48+rbp]                       ;\\Mac\Home\Documents\Studium\6. Semester\Bachelorarbeit\Code\PerformanceTests\Enclave\PerformanceTests_t.c:327.3
$LN737:
        mov       rdx, QWORD PTR [24+rbp]                       ;\\Mac\Home\Documents\Studium\6. Semester\Bachelorarbeit\Code\PerformanceTests\Enclave\PerformanceTests_t.c:327.3
$LN738:
        mov       rcx, QWORD PTR [40+rbp]                       ;\\Mac\Home\Documents\Studium\6. Semester\Bachelorarbeit\Code\PerformanceTests\Enclave\PerformanceTests_t.c:327.3
$LN739:
        mov       rdi, rax                                      ;\\Mac\Home\Documents\Studium\6. Semester\Bachelorarbeit\Code\PerformanceTests\Enclave\PerformanceTests_t.c:327.3
$LN740:
        mov       rsi, rdx                                      ;\\Mac\Home\Documents\Studium\6. Semester\Bachelorarbeit\Code\PerformanceTests\Enclave\PerformanceTests_t.c:327.3
$LN741:
        mov       rdx, rdi                                      ;\\Mac\Home\Documents\Studium\6. Semester\Bachelorarbeit\Code\PerformanceTests\Enclave\PerformanceTests_t.c:327.3
$LN742:
        mov       eax, ecx                                      ;\\Mac\Home\Documents\Studium\6. Semester\Bachelorarbeit\Code\PerformanceTests\Enclave\PerformanceTests_t.c:327.3
$LN743:
        shr       rcx, 2                                        ;\\Mac\Home\Documents\Studium\6. Semester\Bachelorarbeit\Code\PerformanceTests\Enclave\PerformanceTests_t.c:327.3
$LN744:
        rep   movsd                                             ;\\Mac\Home\Documents\Studium\6. Semester\Bachelorarbeit\Code\PerformanceTests\Enclave\PerformanceTests_t.c:327.3
$LN745:
        mov       ecx, eax                                      ;\\Mac\Home\Documents\Studium\6. Semester\Bachelorarbeit\Code\PerformanceTests\Enclave\PerformanceTests_t.c:327.3
$LN746:
        and       ecx, 3                                        ;\\Mac\Home\Documents\Studium\6. Semester\Bachelorarbeit\Code\PerformanceTests\Enclave\PerformanceTests_t.c:327.3
$LN747:
        rep   movsb                                             ;\\Mac\Home\Documents\Studium\6. Semester\Bachelorarbeit\Code\PerformanceTests\Enclave\PerformanceTests_t.c:327.3
$LN748:
        mov       rax, rdx                                      ;\\Mac\Home\Documents\Studium\6. Semester\Bachelorarbeit\Code\PerformanceTests\Enclave\PerformanceTests_t.c:327.3
$LN749:
                                ; LOE rax rbp rsp r12 r13 r14 r15 rip zmm6 zmm7 zmm8 zmm9 zmm10 zmm11 zmm12 zmm13 zmm14 zmm15
.B5.41::                        ; Preds .B5.21
                                ; Execution count [0.00e+000]
$LN750:
        mov       QWORD PTR [112+rbp], rax                      ;\\Mac\Home\Documents\Studium\6. Semester\Bachelorarbeit\Code\PerformanceTests\Enclave\PerformanceTests_t.c:327.3
$LN751:
                                ; LOE rbp rsp r12 r13 r14 r15 rip zmm6 zmm7 zmm8 zmm9 zmm10 zmm11 zmm12 zmm13 zmm14 zmm15
.B5.22::                        ; Preds .B5.41 .B5.17
                                ; Execution count [0.00e+000]
$LN752:

;;; 	}
;;; 	if (_tmp_out != NULL) {

        mov       rax, QWORD PTR [56+rbp]                       ;\\Mac\Home\Documents\Studium\6. Semester\Bachelorarbeit\Code\PerformanceTests\Enclave\PerformanceTests_t.c:329.2
$LN753:
        test      rax, rax                                      ;\\Mac\Home\Documents\Studium\6. Semester\Bachelorarbeit\Code\PerformanceTests\Enclave\PerformanceTests_t.c:329.2
$LN754:
        je        .B5.27        ; Prob 50%                      ;\\Mac\Home\Documents\Studium\6. Semester\Bachelorarbeit\Code\PerformanceTests\Enclave\PerformanceTests_t.c:329.2
$LN755:
                                ; LOE rbp rsp r12 r13 r14 r15 rip zmm6 zmm7 zmm8 zmm9 zmm10 zmm11 zmm12 zmm13 zmm14 zmm15
.B5.23::                        ; Preds .B5.22
                                ; Execution count [0.00e+000]
$LN756:

;;; 		if ((_in_out = (uint8_t*)malloc(_len_out)) == NULL) {

        mov       rax, QWORD PTR [72+rbp]                       ;\\Mac\Home\Documents\Studium\6. Semester\Bachelorarbeit\Code\PerformanceTests\Enclave\PerformanceTests_t.c:330.3
$LN757:
        mov       rcx, rax                                      ;\\Mac\Home\Documents\Studium\6. Semester\Bachelorarbeit\Code\PerformanceTests\Enclave\PerformanceTests_t.c:330.3
$LN758:
;       malloc(size_t)
        call      malloc                                        ;\\Mac\Home\Documents\Studium\6. Semester\Bachelorarbeit\Code\PerformanceTests\Enclave\PerformanceTests_t.c:330.3
$LN759:
                                ; LOE rax rbp rsp r12 r13 r14 r15 rip zmm6 zmm7 zmm8 zmm9 zmm10 zmm11 zmm12 zmm13 zmm14 zmm15
.B5.42::                        ; Preds .B5.23
                                ; Execution count [0.00e+000]
$LN760:
        mov       QWORD PTR [96+rbp], rax                       ;\\Mac\Home\Documents\Studium\6. Semester\Bachelorarbeit\Code\PerformanceTests\Enclave\PerformanceTests_t.c:330.3
$LN761:
                                ; LOE rbp rsp r12 r13 r14 r15 rip zmm6 zmm7 zmm8 zmm9 zmm10 zmm11 zmm12 zmm13 zmm14 zmm15
.B5.24::                        ; Preds .B5.42
                                ; Execution count [0.00e+000]
$LN762:
        mov       rax, QWORD PTR [96+rbp]                       ;\\Mac\Home\Documents\Studium\6. Semester\Bachelorarbeit\Code\PerformanceTests\Enclave\PerformanceTests_t.c:330.3
$LN763:
        mov       QWORD PTR [120+rbp], rax                      ;\\Mac\Home\Documents\Studium\6. Semester\Bachelorarbeit\Code\PerformanceTests\Enclave\PerformanceTests_t.c:330.3
$LN764:
        mov       rax, QWORD PTR [120+rbp]                      ;\\Mac\Home\Documents\Studium\6. Semester\Bachelorarbeit\Code\PerformanceTests\Enclave\PerformanceTests_t.c:330.3
$LN765:
        mov       QWORD PTR [80+rbp], rax                       ;\\Mac\Home\Documents\Studium\6. Semester\Bachelorarbeit\Code\PerformanceTests\Enclave\PerformanceTests_t.c:330.3
$LN766:
        mov       rax, QWORD PTR [120+rbp]                      ;\\Mac\Home\Documents\Studium\6. Semester\Bachelorarbeit\Code\PerformanceTests\Enclave\PerformanceTests_t.c:330.3
$LN767:
        test      rax, rax                                      ;\\Mac\Home\Documents\Studium\6. Semester\Bachelorarbeit\Code\PerformanceTests\Enclave\PerformanceTests_t.c:330.3
$LN768:
        jne       .B5.26        ; Prob 50%                      ;\\Mac\Home\Documents\Studium\6. Semester\Bachelorarbeit\Code\PerformanceTests\Enclave\PerformanceTests_t.c:330.3
$LN769:
                                ; LOE rbp rsp r12 r13 r14 r15 rip zmm6 zmm7 zmm8 zmm9 zmm10 zmm11 zmm12 zmm13 zmm14 zmm15
.B5.25::                        ; Preds .B5.24
                                ; Execution count [0.00e+000]
$LN770:

;;; 			status = SGX_ERROR_OUT_OF_MEMORY;

        mov       DWORD PTR [rbp], 3                            ;\\Mac\Home\Documents\Studium\6. Semester\Bachelorarbeit\Code\PerformanceTests\Enclave\PerformanceTests_t.c:331.4
$LN771:
        jmp       .B5.29        ; Prob 100%                     ;\\Mac\Home\Documents\Studium\6. Semester\Bachelorarbeit\Code\PerformanceTests\Enclave\PerformanceTests_t.c:331.4
$LN772:
                                ; LOE rbp rsp r12 r13 r14 r15 rip zmm6 zmm7 zmm8 zmm9 zmm10 zmm11 zmm12 zmm13 zmm14 zmm15
.B5.26::                        ; Preds .B5.24
                                ; Execution count [0.00e+000]
$LN773:

;;; 			goto err;
;;; 		}
;;; 
;;; 		memset((void*)_in_out, 0, _len_out);

        mov       rax, QWORD PTR [80+rbp]                       ;\\Mac\Home\Documents\Studium\6. Semester\Bachelorarbeit\Code\PerformanceTests\Enclave\PerformanceTests_t.c:335.3
$LN774:
        mov       edx, 0                                        ;\\Mac\Home\Documents\Studium\6. Semester\Bachelorarbeit\Code\PerformanceTests\Enclave\PerformanceTests_t.c:335.3
$LN775:
        mov       rcx, QWORD PTR [72+rbp]                       ;\\Mac\Home\Documents\Studium\6. Semester\Bachelorarbeit\Code\PerformanceTests\Enclave\PerformanceTests_t.c:335.3
$LN776:
        mov       rdi, rax                                      ;\\Mac\Home\Documents\Studium\6. Semester\Bachelorarbeit\Code\PerformanceTests\Enclave\PerformanceTests_t.c:335.3
$LN777:
        mov       eax, edx                                      ;\\Mac\Home\Documents\Studium\6. Semester\Bachelorarbeit\Code\PerformanceTests\Enclave\PerformanceTests_t.c:335.3
$LN778:
        and       eax, 65535                                    ;\\Mac\Home\Documents\Studium\6. Semester\Bachelorarbeit\Code\PerformanceTests\Enclave\PerformanceTests_t.c:335.3
$LN779:
        mov       ah, al                                        ;\\Mac\Home\Documents\Studium\6. Semester\Bachelorarbeit\Code\PerformanceTests\Enclave\PerformanceTests_t.c:335.3
$LN780:
        mov       edx, eax                                      ;\\Mac\Home\Documents\Studium\6. Semester\Bachelorarbeit\Code\PerformanceTests\Enclave\PerformanceTests_t.c:335.3
$LN781:
        shl       eax, 16                                       ;\\Mac\Home\Documents\Studium\6. Semester\Bachelorarbeit\Code\PerformanceTests\Enclave\PerformanceTests_t.c:335.3
$LN782:
        or        eax, edx                                      ;\\Mac\Home\Documents\Studium\6. Semester\Bachelorarbeit\Code\PerformanceTests\Enclave\PerformanceTests_t.c:335.3
$LN783:
        mov       esi, ecx                                      ;\\Mac\Home\Documents\Studium\6. Semester\Bachelorarbeit\Code\PerformanceTests\Enclave\PerformanceTests_t.c:335.3
$LN784:
        shr       rcx, 2                                        ;\\Mac\Home\Documents\Studium\6. Semester\Bachelorarbeit\Code\PerformanceTests\Enclave\PerformanceTests_t.c:335.3
$LN785:
        mov       rdx, rdi                                      ;\\Mac\Home\Documents\Studium\6. Semester\Bachelorarbeit\Code\PerformanceTests\Enclave\PerformanceTests_t.c:335.3
$LN786:
        rep   stosd                                             ;\\Mac\Home\Documents\Studium\6. Semester\Bachelorarbeit\Code\PerformanceTests\Enclave\PerformanceTests_t.c:335.3
$LN787:
        mov       ecx, esi                                      ;\\Mac\Home\Documents\Studium\6. Semester\Bachelorarbeit\Code\PerformanceTests\Enclave\PerformanceTests_t.c:335.3
$LN788:
        and       ecx, 3                                        ;\\Mac\Home\Documents\Studium\6. Semester\Bachelorarbeit\Code\PerformanceTests\Enclave\PerformanceTests_t.c:335.3
$LN789:
        rep   stosb                                             ;\\Mac\Home\Documents\Studium\6. Semester\Bachelorarbeit\Code\PerformanceTests\Enclave\PerformanceTests_t.c:335.3
$LN790:
        mov       rax, rdx                                      ;\\Mac\Home\Documents\Studium\6. Semester\Bachelorarbeit\Code\PerformanceTests\Enclave\PerformanceTests_t.c:335.3
$LN791:
                                ; LOE rax rbp rsp r12 r13 r14 r15 rip zmm6 zmm7 zmm8 zmm9 zmm10 zmm11 zmm12 zmm13 zmm14 zmm15
.B5.43::                        ; Preds .B5.26
                                ; Execution count [0.00e+000]
$LN792:
        mov       QWORD PTR [128+rbp], rax                      ;\\Mac\Home\Documents\Studium\6. Semester\Bachelorarbeit\Code\PerformanceTests\Enclave\PerformanceTests_t.c:335.3
$LN793:
                                ; LOE rbp rsp r12 r13 r14 r15 rip zmm6 zmm7 zmm8 zmm9 zmm10 zmm11 zmm12 zmm13 zmm14 zmm15
.B5.27::                        ; Preds .B5.43 .B5.22
                                ; Execution count [0.00e+000]
$LN794:

;;; 	}
;;; 	ms->ms_retval = enclaveVByteEncode(_in_in, _tmp_inLength, _in_out, _tmp_outLength);

        mov       rax, QWORD PTR [48+rbp]                       ;\\Mac\Home\Documents\Studium\6. Semester\Bachelorarbeit\Code\PerformanceTests\Enclave\PerformanceTests_t.c:337.2
$LN795:
        mov       rdx, QWORD PTR [32+rbp]                       ;\\Mac\Home\Documents\Studium\6. Semester\Bachelorarbeit\Code\PerformanceTests\Enclave\PerformanceTests_t.c:337.2
$LN796:
        mov       rcx, QWORD PTR [80+rbp]                       ;\\Mac\Home\Documents\Studium\6. Semester\Bachelorarbeit\Code\PerformanceTests\Enclave\PerformanceTests_t.c:337.2
$LN797:
        mov       rbx, QWORD PTR [64+rbp]                       ;\\Mac\Home\Documents\Studium\6. Semester\Bachelorarbeit\Code\PerformanceTests\Enclave\PerformanceTests_t.c:337.2
$LN798:
        mov       QWORD PTR [144+rbp], rcx                      ;\\Mac\Home\Documents\Studium\6. Semester\Bachelorarbeit\Code\PerformanceTests\Enclave\PerformanceTests_t.c:337.2[spill]
$LN799:
        mov       rcx, rax                                      ;\\Mac\Home\Documents\Studium\6. Semester\Bachelorarbeit\Code\PerformanceTests\Enclave\PerformanceTests_t.c:337.2
$LN800:
        mov       rax, QWORD PTR [144+rbp]                      ;\\Mac\Home\Documents\Studium\6. Semester\Bachelorarbeit\Code\PerformanceTests\Enclave\PerformanceTests_t.c:337.2[spill]
$LN801:
        mov       r8, rax                                       ;\\Mac\Home\Documents\Studium\6. Semester\Bachelorarbeit\Code\PerformanceTests\Enclave\PerformanceTests_t.c:337.2
$LN802:
        mov       r9, rbx                                       ;\\Mac\Home\Documents\Studium\6. Semester\Bachelorarbeit\Code\PerformanceTests\Enclave\PerformanceTests_t.c:337.2
$LN803:
;       enclaveVByteEncode(uint8_t *, size_t, uint8_t *, size_t)
        call      enclaveVByteEncode                            ;\\Mac\Home\Documents\Studium\6. Semester\Bachelorarbeit\Code\PerformanceTests\Enclave\PerformanceTests_t.c:337.2
$LN804:
                                ; LOE rax rbp rsp r12 r13 r14 r15 rip zmm6 zmm7 zmm8 zmm9 zmm10 zmm11 zmm12 zmm13 zmm14 zmm15
.B5.44::                        ; Preds .B5.27
                                ; Execution count [0.00e+000]
$LN805:
        mov       QWORD PTR [104+rbp], rax                      ;\\Mac\Home\Documents\Studium\6. Semester\Bachelorarbeit\Code\PerformanceTests\Enclave\PerformanceTests_t.c:337.2
$LN806:
                                ; LOE rbp rsp r12 r13 r14 r15 rip zmm6 zmm7 zmm8 zmm9 zmm10 zmm11 zmm12 zmm13 zmm14 zmm15
.B5.28::                        ; Preds .B5.44
                                ; Execution count [0.00e+000]
$LN807:
        mov       rax, QWORD PTR [16+rbp]                       ;\\Mac\Home\Documents\Studium\6. Semester\Bachelorarbeit\Code\PerformanceTests\Enclave\PerformanceTests_t.c:337.2
$LN808:
        mov       rdx, QWORD PTR [104+rbp]                      ;\\Mac\Home\Documents\Studium\6. Semester\Bachelorarbeit\Code\PerformanceTests\Enclave\PerformanceTests_t.c:337.2
$LN809:
        mov       QWORD PTR [rax], rdx                          ;\\Mac\Home\Documents\Studium\6. Semester\Bachelorarbeit\Code\PerformanceTests\Enclave\PerformanceTests_t.c:337.2
$LN810:
                                ; LOE rbp rsp r12 r13 r14 r15 rip zmm6 zmm7 zmm8 zmm9 zmm10 zmm11 zmm12 zmm13 zmm14 zmm15
.B5.29::                        ; Preds .B5.28 .B5.25 .B5.20
                                ; Execution count [0.00e+000]
$LN811:

;;; err:
;;; 	if (_in_in) free(_in_in);

        mov       rax, QWORD PTR [48+rbp]                       ;\\Mac\Home\Documents\Studium\6. Semester\Bachelorarbeit\Code\PerformanceTests\Enclave\PerformanceTests_t.c:339.2
$LN812:
        test      rax, rax                                      ;\\Mac\Home\Documents\Studium\6. Semester\Bachelorarbeit\Code\PerformanceTests\Enclave\PerformanceTests_t.c:339.2
$LN813:
        je        .B5.31        ; Prob 50%                      ;\\Mac\Home\Documents\Studium\6. Semester\Bachelorarbeit\Code\PerformanceTests\Enclave\PerformanceTests_t.c:339.2
$LN814:
                                ; LOE rbp rsp r12 r13 r14 r15 rip zmm6 zmm7 zmm8 zmm9 zmm10 zmm11 zmm12 zmm13 zmm14 zmm15
.B5.30::                        ; Preds .B5.29
                                ; Execution count [0.00e+000]
$LN815:
        mov       rax, QWORD PTR [48+rbp]                       ;\\Mac\Home\Documents\Studium\6. Semester\Bachelorarbeit\Code\PerformanceTests\Enclave\PerformanceTests_t.c:339.14
$LN816:
        mov       rcx, rax                                      ;\\Mac\Home\Documents\Studium\6. Semester\Bachelorarbeit\Code\PerformanceTests\Enclave\PerformanceTests_t.c:339.14
$LN817:
;       free(void *)
        call      free                                          ;\\Mac\Home\Documents\Studium\6. Semester\Bachelorarbeit\Code\PerformanceTests\Enclave\PerformanceTests_t.c:339.14
$LN818:
                                ; LOE rbp rsp r12 r13 r14 r15 rip zmm6 zmm7 zmm8 zmm9 zmm10 zmm11 zmm12 zmm13 zmm14 zmm15
.B5.45::                        ; Preds .B5.30
                                ; Execution count [0.00e+000]
$LN819:
                                ; LOE rbp rsp r12 r13 r14 r15 rip zmm6 zmm7 zmm8 zmm9 zmm10 zmm11 zmm12 zmm13 zmm14 zmm15
.B5.31::                        ; Preds .B5.45 .B5.29
                                ; Execution count [0.00e+000]
$LN820:

;;; 	if (_in_out) {

        mov       rax, QWORD PTR [80+rbp]                       ;\\Mac\Home\Documents\Studium\6. Semester\Bachelorarbeit\Code\PerformanceTests\Enclave\PerformanceTests_t.c:340.2
$LN821:
        test      rax, rax                                      ;\\Mac\Home\Documents\Studium\6. Semester\Bachelorarbeit\Code\PerformanceTests\Enclave\PerformanceTests_t.c:340.2
$LN822:
        je        .B5.34        ; Prob 50%                      ;\\Mac\Home\Documents\Studium\6. Semester\Bachelorarbeit\Code\PerformanceTests\Enclave\PerformanceTests_t.c:340.2
$LN823:
                                ; LOE rbp rsp r12 r13 r14 r15 rip zmm6 zmm7 zmm8 zmm9 zmm10 zmm11 zmm12 zmm13 zmm14 zmm15
.B5.32::                        ; Preds .B5.31
                                ; Execution count [0.00e+000]
$LN824:

;;; 		memcpy(_tmp_out, _in_out, _len_out);

        mov       rax, QWORD PTR [56+rbp]                       ;\\Mac\Home\Documents\Studium\6. Semester\Bachelorarbeit\Code\PerformanceTests\Enclave\PerformanceTests_t.c:341.3
$LN825:
        mov       rdx, QWORD PTR [80+rbp]                       ;\\Mac\Home\Documents\Studium\6. Semester\Bachelorarbeit\Code\PerformanceTests\Enclave\PerformanceTests_t.c:341.3
$LN826:
        mov       rcx, QWORD PTR [72+rbp]                       ;\\Mac\Home\Documents\Studium\6. Semester\Bachelorarbeit\Code\PerformanceTests\Enclave\PerformanceTests_t.c:341.3
$LN827:
        mov       rdi, rax                                      ;\\Mac\Home\Documents\Studium\6. Semester\Bachelorarbeit\Code\PerformanceTests\Enclave\PerformanceTests_t.c:341.3
$LN828:
        mov       rsi, rdx                                      ;\\Mac\Home\Documents\Studium\6. Semester\Bachelorarbeit\Code\PerformanceTests\Enclave\PerformanceTests_t.c:341.3
$LN829:
        mov       rdx, rdi                                      ;\\Mac\Home\Documents\Studium\6. Semester\Bachelorarbeit\Code\PerformanceTests\Enclave\PerformanceTests_t.c:341.3
$LN830:
        mov       eax, ecx                                      ;\\Mac\Home\Documents\Studium\6. Semester\Bachelorarbeit\Code\PerformanceTests\Enclave\PerformanceTests_t.c:341.3
$LN831:
        shr       rcx, 2                                        ;\\Mac\Home\Documents\Studium\6. Semester\Bachelorarbeit\Code\PerformanceTests\Enclave\PerformanceTests_t.c:341.3
$LN832:
        rep   movsd                                             ;\\Mac\Home\Documents\Studium\6. Semester\Bachelorarbeit\Code\PerformanceTests\Enclave\PerformanceTests_t.c:341.3
$LN833:
        mov       ecx, eax                                      ;\\Mac\Home\Documents\Studium\6. Semester\Bachelorarbeit\Code\PerformanceTests\Enclave\PerformanceTests_t.c:341.3
$LN834:
        and       ecx, 3                                        ;\\Mac\Home\Documents\Studium\6. Semester\Bachelorarbeit\Code\PerformanceTests\Enclave\PerformanceTests_t.c:341.3
$LN835:
        rep   movsb                                             ;\\Mac\Home\Documents\Studium\6. Semester\Bachelorarbeit\Code\PerformanceTests\Enclave\PerformanceTests_t.c:341.3
$LN836:
        mov       rax, rdx                                      ;\\Mac\Home\Documents\Studium\6. Semester\Bachelorarbeit\Code\PerformanceTests\Enclave\PerformanceTests_t.c:341.3
$LN837:
                                ; LOE rax rbp rsp r12 r13 r14 r15 rip zmm6 zmm7 zmm8 zmm9 zmm10 zmm11 zmm12 zmm13 zmm14 zmm15
.B5.46::                        ; Preds .B5.32
                                ; Execution count [0.00e+000]
$LN838:
        mov       QWORD PTR [136+rbp], rax                      ;\\Mac\Home\Documents\Studium\6. Semester\Bachelorarbeit\Code\PerformanceTests\Enclave\PerformanceTests_t.c:341.3
$LN839:
                                ; LOE rbp rsp r12 r13 r14 r15 rip zmm6 zmm7 zmm8 zmm9 zmm10 zmm11 zmm12 zmm13 zmm14 zmm15
.B5.33::                        ; Preds .B5.46
                                ; Execution count [0.00e+000]
$LN840:

;;; 		free(_in_out);

        mov       rax, QWORD PTR [80+rbp]                       ;\\Mac\Home\Documents\Studium\6. Semester\Bachelorarbeit\Code\PerformanceTests\Enclave\PerformanceTests_t.c:342.3
$LN841:
        mov       rcx, rax                                      ;\\Mac\Home\Documents\Studium\6. Semester\Bachelorarbeit\Code\PerformanceTests\Enclave\PerformanceTests_t.c:342.3
$LN842:
;       free(void *)
        call      free                                          ;\\Mac\Home\Documents\Studium\6. Semester\Bachelorarbeit\Code\PerformanceTests\Enclave\PerformanceTests_t.c:342.3
$LN843:
                                ; LOE rbp rsp r12 r13 r14 r15 rip zmm6 zmm7 zmm8 zmm9 zmm10 zmm11 zmm12 zmm13 zmm14 zmm15
.B5.47::                        ; Preds .B5.33
                                ; Execution count [0.00e+000]
$LN844:
                                ; LOE rbp rsp r12 r13 r14 r15 rip zmm6 zmm7 zmm8 zmm9 zmm10 zmm11 zmm12 zmm13 zmm14 zmm15
.B5.34::                        ; Preds .B5.47 .B5.31
                                ; Execution count [0.00e+000]
$LN845:

;;; 	}
;;; 
;;; 	return status;

        mov       eax, DWORD PTR [rbp]                          ;\\Mac\Home\Documents\Studium\6. Semester\Bachelorarbeit\Code\PerformanceTests\Enclave\PerformanceTests_t.c:345.2
$LN846:
        mov       rbx, QWORD PTR [152+rbp]                      ;\\Mac\Home\Documents\Studium\6. Semester\Bachelorarbeit\Code\PerformanceTests\Enclave\PerformanceTests_t.c:345.2[spill]
$LN847:
        mov       rsi, QWORD PTR [160+rbp]                      ;\\Mac\Home\Documents\Studium\6. Semester\Bachelorarbeit\Code\PerformanceTests\Enclave\PerformanceTests_t.c:345.2[spill]
$LN848:
        mov       rdi, QWORD PTR [168+rbp]                      ;\\Mac\Home\Documents\Studium\6. Semester\Bachelorarbeit\Code\PerformanceTests\Enclave\PerformanceTests_t.c:345.2[spill]
$LN849:
        lea       rsp, QWORD PTR [176+rbp]                      ;\\Mac\Home\Documents\Studium\6. Semester\Bachelorarbeit\Code\PerformanceTests\Enclave\PerformanceTests_t.c:345.2
$LN850:
        pop       rbp                                           ;\\Mac\Home\Documents\Studium\6. Semester\Bachelorarbeit\Code\PerformanceTests\Enclave\PerformanceTests_t.c:345.2
$LN851:
        ret                                                     ;\\Mac\Home\Documents\Studium\6. Semester\Bachelorarbeit\Code\PerformanceTests\Enclave\PerformanceTests_t.c:345.2
$LN852:
                                ; LOE
.B5.35::
$LN853:
; mark_end;
sgx_enclaveVByteEncode ENDP
$LNsgx_enclaveVByteEncode$854:
_TEXT	ENDS
.xdata	SEGMENT  DWORD   READ  ''
	ALIGN 004H
.unwind.sgx_enclaveVByteEncode.B1_B34	DD	621421057
	DD	1520674
	DD	1598491
	DD	1668116
	DD	17302285
	DD	1342242842
.xdata	ENDS
.pdata	SEGMENT  DWORD   READ  ''
	ALIGN 004H
.pdata.sgx_enclaveVByteEncode.B1_B34	DD	imagerel .B5.1
	DD	imagerel .B5.35
	DD	imagerel .unwind.sgx_enclaveVByteEncode.B1_B34
.pdata	ENDS
_DATA	SEGMENT      'DATA'
_DATA	ENDS
; -- End  sgx_enclaveVByteEncode
_TEXT	SEGMENT      'CODE'
_2__routine_start_sgx_enclaveVByteDecode_5:
; -- Begin  sgx_enclaveVByteDecode
_TEXT	ENDS
_TEXT	SEGMENT      'CODE'
; mark_begin;

; --- sgx_enclaveVByteDecode(void *)
sgx_enclaveVByteDecode	PROC PRIVATE
; parameter 1(pms): rcx
.B6.1::                         ; Preds .B6.0
                                ; Execution count [0.00e+000]

;;; {

L43::
                                                          ;\\Mac\Home\Documents\Studium\6. Semester\Bachelorarbeit\Code\PerformanceTests\Enclave\PerformanceTests_t.c:349.1
$LN855:
        push      rbp                                           ;\\Mac\Home\Documents\Studium\6. Semester\Bachelorarbeit\Code\PerformanceTests\Enclave\PerformanceTests_t.c:349.1
$LN856:
        sub       rsp, 208                                      ;\\Mac\Home\Documents\Studium\6. Semester\Bachelorarbeit\Code\PerformanceTests\Enclave\PerformanceTests_t.c:349.1
$LN857:
        lea       rbp, QWORD PTR [32+rsp]                       ;\\Mac\Home\Documents\Studium\6. Semester\Bachelorarbeit\Code\PerformanceTests\Enclave\PerformanceTests_t.c:349.1
$LN858:
        mov       QWORD PTR [168+rbp], rdi                      ;\\Mac\Home\Documents\Studium\6. Semester\Bachelorarbeit\Code\PerformanceTests\Enclave\PerformanceTests_t.c:349.1[spill]
$LN859:
        mov       QWORD PTR [160+rbp], rsi                      ;\\Mac\Home\Documents\Studium\6. Semester\Bachelorarbeit\Code\PerformanceTests\Enclave\PerformanceTests_t.c:349.1[spill]
$LN860:
        mov       QWORD PTR [152+rbp], rbx                      ;\\Mac\Home\Documents\Studium\6. Semester\Bachelorarbeit\Code\PerformanceTests\Enclave\PerformanceTests_t.c:349.1[spill]
$LN861:
        mov       QWORD PTR [192+rbp], rcx                      ;\\Mac\Home\Documents\Studium\6. Semester\Bachelorarbeit\Code\PerformanceTests\Enclave\PerformanceTests_t.c:349.1
$LN862:

;;; 	ms_enclaveVByteDecode_t* ms = SGX_CAST(ms_enclaveVByteDecode_t*, pms);

        mov       rax, QWORD PTR [192+rbp]                      ;\\Mac\Home\Documents\Studium\6. Semester\Bachelorarbeit\Code\PerformanceTests\Enclave\PerformanceTests_t.c:350.30
$LN863:
        mov       QWORD PTR [16+rbp], rax                       ;\\Mac\Home\Documents\Studium\6. Semester\Bachelorarbeit\Code\PerformanceTests\Enclave\PerformanceTests_t.c:350.30
$LN864:

;;; 	sgx_status_t status = SGX_SUCCESS;

        mov       DWORD PTR [rbp], 0                            ;\\Mac\Home\Documents\Studium\6. Semester\Bachelorarbeit\Code\PerformanceTests\Enclave\PerformanceTests_t.c:351.22
$LN865:

;;; 	uint8_t* _tmp_in = ms->ms_in;

        mov       rax, QWORD PTR [16+rbp]                       ;\\Mac\Home\Documents\Studium\6. Semester\Bachelorarbeit\Code\PerformanceTests\Enclave\PerformanceTests_t.c:352.19
$LN866:
        mov       rax, QWORD PTR [8+rax]                        ;\\Mac\Home\Documents\Studium\6. Semester\Bachelorarbeit\Code\PerformanceTests\Enclave\PerformanceTests_t.c:352.19
$LN867:
        mov       QWORD PTR [24+rbp], rax                       ;\\Mac\Home\Documents\Studium\6. Semester\Bachelorarbeit\Code\PerformanceTests\Enclave\PerformanceTests_t.c:352.19
$LN868:

;;; 	size_t _tmp_inLength = ms->ms_inLength;

        mov       rax, QWORD PTR [16+rbp]                       ;\\Mac\Home\Documents\Studium\6. Semester\Bachelorarbeit\Code\PerformanceTests\Enclave\PerformanceTests_t.c:353.23
$LN869:
        mov       rax, QWORD PTR [16+rax]                       ;\\Mac\Home\Documents\Studium\6. Semester\Bachelorarbeit\Code\PerformanceTests\Enclave\PerformanceTests_t.c:353.23
$LN870:
        mov       QWORD PTR [32+rbp], rax                       ;\\Mac\Home\Documents\Studium\6. Semester\Bachelorarbeit\Code\PerformanceTests\Enclave\PerformanceTests_t.c:353.23
$LN871:

;;; 	size_t _len_in = _tmp_inLength;

        mov       rax, QWORD PTR [32+rbp]                       ;\\Mac\Home\Documents\Studium\6. Semester\Bachelorarbeit\Code\PerformanceTests\Enclave\PerformanceTests_t.c:354.17
$LN872:
        mov       QWORD PTR [40+rbp], rax                       ;\\Mac\Home\Documents\Studium\6. Semester\Bachelorarbeit\Code\PerformanceTests\Enclave\PerformanceTests_t.c:354.17
$LN873:

;;; 	uint8_t* _in_in = NULL;

        mov       QWORD PTR [48+rbp], 0                         ;\\Mac\Home\Documents\Studium\6. Semester\Bachelorarbeit\Code\PerformanceTests\Enclave\PerformanceTests_t.c:355.18
$LN874:

;;; 	uint8_t* _tmp_out = ms->ms_out;

        mov       rax, QWORD PTR [16+rbp]                       ;\\Mac\Home\Documents\Studium\6. Semester\Bachelorarbeit\Code\PerformanceTests\Enclave\PerformanceTests_t.c:356.20
$LN875:
        mov       rax, QWORD PTR [24+rax]                       ;\\Mac\Home\Documents\Studium\6. Semester\Bachelorarbeit\Code\PerformanceTests\Enclave\PerformanceTests_t.c:356.20
$LN876:
        mov       QWORD PTR [56+rbp], rax                       ;\\Mac\Home\Documents\Studium\6. Semester\Bachelorarbeit\Code\PerformanceTests\Enclave\PerformanceTests_t.c:356.20
$LN877:

;;; 	size_t _tmp_outLength = ms->ms_outLength;

        mov       rax, QWORD PTR [16+rbp]                       ;\\Mac\Home\Documents\Studium\6. Semester\Bachelorarbeit\Code\PerformanceTests\Enclave\PerformanceTests_t.c:357.24
$LN878:
        mov       rax, QWORD PTR [32+rax]                       ;\\Mac\Home\Documents\Studium\6. Semester\Bachelorarbeit\Code\PerformanceTests\Enclave\PerformanceTests_t.c:357.24
$LN879:
        mov       QWORD PTR [64+rbp], rax                       ;\\Mac\Home\Documents\Studium\6. Semester\Bachelorarbeit\Code\PerformanceTests\Enclave\PerformanceTests_t.c:357.24
$LN880:

;;; 	size_t _len_out = _tmp_outLength;

        mov       rax, QWORD PTR [64+rbp]                       ;\\Mac\Home\Documents\Studium\6. Semester\Bachelorarbeit\Code\PerformanceTests\Enclave\PerformanceTests_t.c:358.18
$LN881:
        mov       QWORD PTR [72+rbp], rax                       ;\\Mac\Home\Documents\Studium\6. Semester\Bachelorarbeit\Code\PerformanceTests\Enclave\PerformanceTests_t.c:358.18
$LN882:

;;; 	uint8_t* _in_out = NULL;

        mov       QWORD PTR [80+rbp], 0                         ;\\Mac\Home\Documents\Studium\6. Semester\Bachelorarbeit\Code\PerformanceTests\Enclave\PerformanceTests_t.c:359.19
$LN883:
                                ; LOE rbp rsp r12 r13 r14 r15 rip zmm6 zmm7 zmm8 zmm9 zmm10 zmm11 zmm12 zmm13 zmm14 zmm15
.B6.2::                         ; Preds .B6.5 .B6.1
                                ; Execution count [0.00e+000]
$LN884:

;;; 
;;; 	CHECK_REF_POINTER(pms, sizeof(ms_enclaveVByteDecode_t));

        mov       rax, QWORD PTR [192+rbp]                      ;\\Mac\Home\Documents\Studium\6. Semester\Bachelorarbeit\Code\PerformanceTests\Enclave\PerformanceTests_t.c:361.2
$LN885:
        test      rax, rax                                      ;\\Mac\Home\Documents\Studium\6. Semester\Bachelorarbeit\Code\PerformanceTests\Enclave\PerformanceTests_t.c:361.2
$LN886:
        je        .B6.6         ; Prob 50%                      ;\\Mac\Home\Documents\Studium\6. Semester\Bachelorarbeit\Code\PerformanceTests\Enclave\PerformanceTests_t.c:361.2
$LN887:
                                ; LOE rbp rsp r12 r13 r14 r15 rip zmm6 zmm7 zmm8 zmm9 zmm10 zmm11 zmm12 zmm13 zmm14 zmm15
.B6.3::                         ; Preds .B6.2
                                ; Execution count [0.00e+000]
$LN888:
        mov       rax, QWORD PTR [192+rbp]                      ;\\Mac\Home\Documents\Studium\6. Semester\Bachelorarbeit\Code\PerformanceTests\Enclave\PerformanceTests_t.c:361.2
$LN889:
        mov       edx, 40                                       ;\\Mac\Home\Documents\Studium\6. Semester\Bachelorarbeit\Code\PerformanceTests\Enclave\PerformanceTests_t.c:361.2
$LN890:
        mov       rcx, rax                                      ;\\Mac\Home\Documents\Studium\6. Semester\Bachelorarbeit\Code\PerformanceTests\Enclave\PerformanceTests_t.c:361.2
$LN891:
;       sgx_is_outside_enclave(const void *, size_t)
        call      sgx_is_outside_enclave                        ;\\Mac\Home\Documents\Studium\6. Semester\Bachelorarbeit\Code\PerformanceTests\Enclave\PerformanceTests_t.c:361.2
$LN892:
                                ; LOE rbp rsp r12 r13 r14 r15 rip eax zmm6 zmm7 zmm8 zmm9 zmm10 zmm11 zmm12 zmm13 zmm14 zmm15
.B6.37::                        ; Preds .B6.3
                                ; Execution count [0.00e+000]
$LN893:
        mov       DWORD PTR [4+rbp], eax                        ;\\Mac\Home\Documents\Studium\6. Semester\Bachelorarbeit\Code\PerformanceTests\Enclave\PerformanceTests_t.c:361.2
$LN894:
                                ; LOE rbp rsp r12 r13 r14 r15 rip zmm6 zmm7 zmm8 zmm9 zmm10 zmm11 zmm12 zmm13 zmm14 zmm15
.B6.4::                         ; Preds .B6.37
                                ; Execution count [0.00e+000]
$LN895:
        mov       eax, DWORD PTR [4+rbp]                        ;\\Mac\Home\Documents\Studium\6. Semester\Bachelorarbeit\Code\PerformanceTests\Enclave\PerformanceTests_t.c:361.2
$LN896:
        test      eax, eax                                      ;\\Mac\Home\Documents\Studium\6. Semester\Bachelorarbeit\Code\PerformanceTests\Enclave\PerformanceTests_t.c:361.2
$LN897:
        je        .B6.6         ; Prob 50%                      ;\\Mac\Home\Documents\Studium\6. Semester\Bachelorarbeit\Code\PerformanceTests\Enclave\PerformanceTests_t.c:361.2
$LN898:
                                ; LOE rbp rsp r12 r13 r14 r15 rip zmm6 zmm7 zmm8 zmm9 zmm10 zmm11 zmm12 zmm13 zmm14 zmm15
.B6.5::                         ; Preds .B6.4
                                ; Execution count [0.00e+000]
$LN899:
        mov       eax, 0                                        ;\\Mac\Home\Documents\Studium\6. Semester\Bachelorarbeit\Code\PerformanceTests\Enclave\PerformanceTests_t.c:361.2
$LN900:
        test      eax, eax                                      ;\\Mac\Home\Documents\Studium\6. Semester\Bachelorarbeit\Code\PerformanceTests\Enclave\PerformanceTests_t.c:361.2
$LN901:
        jne       .B6.2         ; Prob 0%                       ;\\Mac\Home\Documents\Studium\6. Semester\Bachelorarbeit\Code\PerformanceTests\Enclave\PerformanceTests_t.c:361.2
$LN902:
        jmp       .B6.7         ; Prob 100%                     ;\\Mac\Home\Documents\Studium\6. Semester\Bachelorarbeit\Code\PerformanceTests\Enclave\PerformanceTests_t.c:361.2
$LN903:
                                ; LOE rbp rsp r12 r13 r14 r15 rip zmm6 zmm7 zmm8 zmm9 zmm10 zmm11 zmm12 zmm13 zmm14 zmm15
.B6.6::                         ; Preds .B6.2 .B6.4
                                ; Execution count [0.00e+000]
$LN904:
        mov       eax, 2                                        ;\\Mac\Home\Documents\Studium\6. Semester\Bachelorarbeit\Code\PerformanceTests\Enclave\PerformanceTests_t.c:361.2
$LN905:
        mov       rbx, QWORD PTR [152+rbp]                      ;\\Mac\Home\Documents\Studium\6. Semester\Bachelorarbeit\Code\PerformanceTests\Enclave\PerformanceTests_t.c:361.2[spill]
$LN906:
        mov       rsi, QWORD PTR [160+rbp]                      ;\\Mac\Home\Documents\Studium\6. Semester\Bachelorarbeit\Code\PerformanceTests\Enclave\PerformanceTests_t.c:361.2[spill]
$LN907:
        mov       rdi, QWORD PTR [168+rbp]                      ;\\Mac\Home\Documents\Studium\6. Semester\Bachelorarbeit\Code\PerformanceTests\Enclave\PerformanceTests_t.c:361.2[spill]
$LN908:
        lea       rsp, QWORD PTR [176+rbp]                      ;\\Mac\Home\Documents\Studium\6. Semester\Bachelorarbeit\Code\PerformanceTests\Enclave\PerformanceTests_t.c:361.2
$LN909:
        pop       rbp                                           ;\\Mac\Home\Documents\Studium\6. Semester\Bachelorarbeit\Code\PerformanceTests\Enclave\PerformanceTests_t.c:361.2
$LN910:
        ret                                                     ;\\Mac\Home\Documents\Studium\6. Semester\Bachelorarbeit\Code\PerformanceTests\Enclave\PerformanceTests_t.c:361.2
$LN911:
                                ; LOE
.B6.7::                         ; Preds .B6.10 .B6.5
                                ; Execution count [0.00e+000]
$LN912:

;;; 	CHECK_UNIQUE_POINTER(_tmp_in, _len_in);

        mov       rax, QWORD PTR [24+rbp]                       ;\\Mac\Home\Documents\Studium\6. Semester\Bachelorarbeit\Code\PerformanceTests\Enclave\PerformanceTests_t.c:362.2
$LN913:
        test      rax, rax                                      ;\\Mac\Home\Documents\Studium\6. Semester\Bachelorarbeit\Code\PerformanceTests\Enclave\PerformanceTests_t.c:362.2
$LN914:
        je        .B6.10        ; Prob 50%                      ;\\Mac\Home\Documents\Studium\6. Semester\Bachelorarbeit\Code\PerformanceTests\Enclave\PerformanceTests_t.c:362.2
$LN915:
                                ; LOE rbp rsp r12 r13 r14 r15 rip zmm6 zmm7 zmm8 zmm9 zmm10 zmm11 zmm12 zmm13 zmm14 zmm15
.B6.8::                         ; Preds .B6.7
                                ; Execution count [0.00e+000]
$LN916:
        mov       rax, QWORD PTR [24+rbp]                       ;\\Mac\Home\Documents\Studium\6. Semester\Bachelorarbeit\Code\PerformanceTests\Enclave\PerformanceTests_t.c:362.2
$LN917:
        mov       rdx, QWORD PTR [40+rbp]                       ;\\Mac\Home\Documents\Studium\6. Semester\Bachelorarbeit\Code\PerformanceTests\Enclave\PerformanceTests_t.c:362.2
$LN918:
        mov       rcx, rax                                      ;\\Mac\Home\Documents\Studium\6. Semester\Bachelorarbeit\Code\PerformanceTests\Enclave\PerformanceTests_t.c:362.2
$LN919:
;       sgx_is_outside_enclave(const void *, size_t)
        call      sgx_is_outside_enclave                        ;\\Mac\Home\Documents\Studium\6. Semester\Bachelorarbeit\Code\PerformanceTests\Enclave\PerformanceTests_t.c:362.2
$LN920:
                                ; LOE rbp rsp r12 r13 r14 r15 rip eax zmm6 zmm7 zmm8 zmm9 zmm10 zmm11 zmm12 zmm13 zmm14 zmm15
.B6.38::                        ; Preds .B6.8
                                ; Execution count [0.00e+000]
$LN921:
        mov       DWORD PTR [8+rbp], eax                        ;\\Mac\Home\Documents\Studium\6. Semester\Bachelorarbeit\Code\PerformanceTests\Enclave\PerformanceTests_t.c:362.2
$LN922:
                                ; LOE rbp rsp r12 r13 r14 r15 rip zmm6 zmm7 zmm8 zmm9 zmm10 zmm11 zmm12 zmm13 zmm14 zmm15
.B6.9::                         ; Preds .B6.38
                                ; Execution count [0.00e+000]
$LN923:
        mov       eax, DWORD PTR [8+rbp]                        ;\\Mac\Home\Documents\Studium\6. Semester\Bachelorarbeit\Code\PerformanceTests\Enclave\PerformanceTests_t.c:362.2
$LN924:
        test      eax, eax                                      ;\\Mac\Home\Documents\Studium\6. Semester\Bachelorarbeit\Code\PerformanceTests\Enclave\PerformanceTests_t.c:362.2
$LN925:
        je        .B6.11        ; Prob 50%                      ;\\Mac\Home\Documents\Studium\6. Semester\Bachelorarbeit\Code\PerformanceTests\Enclave\PerformanceTests_t.c:362.2
$LN926:
                                ; LOE rbp rsp r12 r13 r14 r15 rip zmm6 zmm7 zmm8 zmm9 zmm10 zmm11 zmm12 zmm13 zmm14 zmm15
.B6.10::                        ; Preds .B6.9 .B6.7
                                ; Execution count [0.00e+000]
$LN927:
        mov       eax, 0                                        ;\\Mac\Home\Documents\Studium\6. Semester\Bachelorarbeit\Code\PerformanceTests\Enclave\PerformanceTests_t.c:362.2
$LN928:
        test      eax, eax                                      ;\\Mac\Home\Documents\Studium\6. Semester\Bachelorarbeit\Code\PerformanceTests\Enclave\PerformanceTests_t.c:362.2
$LN929:
        jne       .B6.7         ; Prob 0%                       ;\\Mac\Home\Documents\Studium\6. Semester\Bachelorarbeit\Code\PerformanceTests\Enclave\PerformanceTests_t.c:362.2
$LN930:
        jmp       .B6.12        ; Prob 100%                     ;\\Mac\Home\Documents\Studium\6. Semester\Bachelorarbeit\Code\PerformanceTests\Enclave\PerformanceTests_t.c:362.2
$LN931:
                                ; LOE rbp rsp r12 r13 r14 r15 rip zmm6 zmm7 zmm8 zmm9 zmm10 zmm11 zmm12 zmm13 zmm14 zmm15
.B6.11::                        ; Preds .B6.9
                                ; Execution count [0.00e+000]
$LN932:
        mov       eax, 2                                        ;\\Mac\Home\Documents\Studium\6. Semester\Bachelorarbeit\Code\PerformanceTests\Enclave\PerformanceTests_t.c:362.2
$LN933:
        mov       rbx, QWORD PTR [152+rbp]                      ;\\Mac\Home\Documents\Studium\6. Semester\Bachelorarbeit\Code\PerformanceTests\Enclave\PerformanceTests_t.c:362.2[spill]
$LN934:
        mov       rsi, QWORD PTR [160+rbp]                      ;\\Mac\Home\Documents\Studium\6. Semester\Bachelorarbeit\Code\PerformanceTests\Enclave\PerformanceTests_t.c:362.2[spill]
$LN935:
        mov       rdi, QWORD PTR [168+rbp]                      ;\\Mac\Home\Documents\Studium\6. Semester\Bachelorarbeit\Code\PerformanceTests\Enclave\PerformanceTests_t.c:362.2[spill]
$LN936:
        lea       rsp, QWORD PTR [176+rbp]                      ;\\Mac\Home\Documents\Studium\6. Semester\Bachelorarbeit\Code\PerformanceTests\Enclave\PerformanceTests_t.c:362.2
$LN937:
        pop       rbp                                           ;\\Mac\Home\Documents\Studium\6. Semester\Bachelorarbeit\Code\PerformanceTests\Enclave\PerformanceTests_t.c:362.2
$LN938:
        ret                                                     ;\\Mac\Home\Documents\Studium\6. Semester\Bachelorarbeit\Code\PerformanceTests\Enclave\PerformanceTests_t.c:362.2
$LN939:
                                ; LOE
.B6.12::                        ; Preds .B6.15 .B6.10
                                ; Execution count [0.00e+000]
$LN940:

;;; 	CHECK_UNIQUE_POINTER(_tmp_out, _len_out);

        mov       rax, QWORD PTR [56+rbp]                       ;\\Mac\Home\Documents\Studium\6. Semester\Bachelorarbeit\Code\PerformanceTests\Enclave\PerformanceTests_t.c:363.2
$LN941:
        test      rax, rax                                      ;\\Mac\Home\Documents\Studium\6. Semester\Bachelorarbeit\Code\PerformanceTests\Enclave\PerformanceTests_t.c:363.2
$LN942:
        je        .B6.15        ; Prob 50%                      ;\\Mac\Home\Documents\Studium\6. Semester\Bachelorarbeit\Code\PerformanceTests\Enclave\PerformanceTests_t.c:363.2
$LN943:
                                ; LOE rbp rsp r12 r13 r14 r15 rip zmm6 zmm7 zmm8 zmm9 zmm10 zmm11 zmm12 zmm13 zmm14 zmm15
.B6.13::                        ; Preds .B6.12
                                ; Execution count [0.00e+000]
$LN944:
        mov       rax, QWORD PTR [56+rbp]                       ;\\Mac\Home\Documents\Studium\6. Semester\Bachelorarbeit\Code\PerformanceTests\Enclave\PerformanceTests_t.c:363.2
$LN945:
        mov       rdx, QWORD PTR [72+rbp]                       ;\\Mac\Home\Documents\Studium\6. Semester\Bachelorarbeit\Code\PerformanceTests\Enclave\PerformanceTests_t.c:363.2
$LN946:
        mov       rcx, rax                                      ;\\Mac\Home\Documents\Studium\6. Semester\Bachelorarbeit\Code\PerformanceTests\Enclave\PerformanceTests_t.c:363.2
$LN947:
;       sgx_is_outside_enclave(const void *, size_t)
        call      sgx_is_outside_enclave                        ;\\Mac\Home\Documents\Studium\6. Semester\Bachelorarbeit\Code\PerformanceTests\Enclave\PerformanceTests_t.c:363.2
$LN948:
                                ; LOE rbp rsp r12 r13 r14 r15 rip eax zmm6 zmm7 zmm8 zmm9 zmm10 zmm11 zmm12 zmm13 zmm14 zmm15
.B6.39::                        ; Preds .B6.13
                                ; Execution count [0.00e+000]
$LN949:
        mov       DWORD PTR [12+rbp], eax                       ;\\Mac\Home\Documents\Studium\6. Semester\Bachelorarbeit\Code\PerformanceTests\Enclave\PerformanceTests_t.c:363.2
$LN950:
                                ; LOE rbp rsp r12 r13 r14 r15 rip zmm6 zmm7 zmm8 zmm9 zmm10 zmm11 zmm12 zmm13 zmm14 zmm15
.B6.14::                        ; Preds .B6.39
                                ; Execution count [0.00e+000]
$LN951:
        mov       eax, DWORD PTR [12+rbp]                       ;\\Mac\Home\Documents\Studium\6. Semester\Bachelorarbeit\Code\PerformanceTests\Enclave\PerformanceTests_t.c:363.2
$LN952:
        test      eax, eax                                      ;\\Mac\Home\Documents\Studium\6. Semester\Bachelorarbeit\Code\PerformanceTests\Enclave\PerformanceTests_t.c:363.2
$LN953:
        je        .B6.16        ; Prob 50%                      ;\\Mac\Home\Documents\Studium\6. Semester\Bachelorarbeit\Code\PerformanceTests\Enclave\PerformanceTests_t.c:363.2
$LN954:
                                ; LOE rbp rsp r12 r13 r14 r15 rip zmm6 zmm7 zmm8 zmm9 zmm10 zmm11 zmm12 zmm13 zmm14 zmm15
.B6.15::                        ; Preds .B6.14 .B6.12
                                ; Execution count [0.00e+000]
$LN955:
        mov       eax, 0                                        ;\\Mac\Home\Documents\Studium\6. Semester\Bachelorarbeit\Code\PerformanceTests\Enclave\PerformanceTests_t.c:363.2
$LN956:
        test      eax, eax                                      ;\\Mac\Home\Documents\Studium\6. Semester\Bachelorarbeit\Code\PerformanceTests\Enclave\PerformanceTests_t.c:363.2
$LN957:
        jne       .B6.12        ; Prob 0%                       ;\\Mac\Home\Documents\Studium\6. Semester\Bachelorarbeit\Code\PerformanceTests\Enclave\PerformanceTests_t.c:363.2
$LN958:
        jmp       .B6.17        ; Prob 100%                     ;\\Mac\Home\Documents\Studium\6. Semester\Bachelorarbeit\Code\PerformanceTests\Enclave\PerformanceTests_t.c:363.2
$LN959:
                                ; LOE rbp rsp r12 r13 r14 r15 rip zmm6 zmm7 zmm8 zmm9 zmm10 zmm11 zmm12 zmm13 zmm14 zmm15
.B6.16::                        ; Preds .B6.14
                                ; Execution count [0.00e+000]
$LN960:
        mov       eax, 2                                        ;\\Mac\Home\Documents\Studium\6. Semester\Bachelorarbeit\Code\PerformanceTests\Enclave\PerformanceTests_t.c:363.2
$LN961:
        mov       rbx, QWORD PTR [152+rbp]                      ;\\Mac\Home\Documents\Studium\6. Semester\Bachelorarbeit\Code\PerformanceTests\Enclave\PerformanceTests_t.c:363.2[spill]
$LN962:
        mov       rsi, QWORD PTR [160+rbp]                      ;\\Mac\Home\Documents\Studium\6. Semester\Bachelorarbeit\Code\PerformanceTests\Enclave\PerformanceTests_t.c:363.2[spill]
$LN963:
        mov       rdi, QWORD PTR [168+rbp]                      ;\\Mac\Home\Documents\Studium\6. Semester\Bachelorarbeit\Code\PerformanceTests\Enclave\PerformanceTests_t.c:363.2[spill]
$LN964:
        lea       rsp, QWORD PTR [176+rbp]                      ;\\Mac\Home\Documents\Studium\6. Semester\Bachelorarbeit\Code\PerformanceTests\Enclave\PerformanceTests_t.c:363.2
$LN965:
        pop       rbp                                           ;\\Mac\Home\Documents\Studium\6. Semester\Bachelorarbeit\Code\PerformanceTests\Enclave\PerformanceTests_t.c:363.2
$LN966:
        ret                                                     ;\\Mac\Home\Documents\Studium\6. Semester\Bachelorarbeit\Code\PerformanceTests\Enclave\PerformanceTests_t.c:363.2
$LN967:
                                ; LOE
.B6.17::                        ; Preds .B6.15
                                ; Execution count [0.00e+000]
$LN968:

;;; 
;;; 	if (_tmp_in != NULL) {

        mov       rax, QWORD PTR [24+rbp]                       ;\\Mac\Home\Documents\Studium\6. Semester\Bachelorarbeit\Code\PerformanceTests\Enclave\PerformanceTests_t.c:365.2
$LN969:
        test      rax, rax                                      ;\\Mac\Home\Documents\Studium\6. Semester\Bachelorarbeit\Code\PerformanceTests\Enclave\PerformanceTests_t.c:365.2
$LN970:
        je        .B6.22        ; Prob 50%                      ;\\Mac\Home\Documents\Studium\6. Semester\Bachelorarbeit\Code\PerformanceTests\Enclave\PerformanceTests_t.c:365.2
$LN971:
                                ; LOE rbp rsp r12 r13 r14 r15 rip zmm6 zmm7 zmm8 zmm9 zmm10 zmm11 zmm12 zmm13 zmm14 zmm15
.B6.18::                        ; Preds .B6.17
                                ; Execution count [0.00e+000]
$LN972:

;;; 		_in_in = (uint8_t*)malloc(_len_in);

        mov       rax, QWORD PTR [40+rbp]                       ;\\Mac\Home\Documents\Studium\6. Semester\Bachelorarbeit\Code\PerformanceTests\Enclave\PerformanceTests_t.c:366.3
$LN973:
        mov       rcx, rax                                      ;\\Mac\Home\Documents\Studium\6. Semester\Bachelorarbeit\Code\PerformanceTests\Enclave\PerformanceTests_t.c:366.3
$LN974:
;       malloc(size_t)
        call      malloc                                        ;\\Mac\Home\Documents\Studium\6. Semester\Bachelorarbeit\Code\PerformanceTests\Enclave\PerformanceTests_t.c:366.3
$LN975:
                                ; LOE rax rbp rsp r12 r13 r14 r15 rip zmm6 zmm7 zmm8 zmm9 zmm10 zmm11 zmm12 zmm13 zmm14 zmm15
.B6.40::                        ; Preds .B6.18
                                ; Execution count [0.00e+000]
$LN976:
        mov       QWORD PTR [88+rbp], rax                       ;\\Mac\Home\Documents\Studium\6. Semester\Bachelorarbeit\Code\PerformanceTests\Enclave\PerformanceTests_t.c:366.3
$LN977:
                                ; LOE rbp rsp r12 r13 r14 r15 rip zmm6 zmm7 zmm8 zmm9 zmm10 zmm11 zmm12 zmm13 zmm14 zmm15
.B6.19::                        ; Preds .B6.40
                                ; Execution count [0.00e+000]
$LN978:
        mov       rax, QWORD PTR [88+rbp]                       ;\\Mac\Home\Documents\Studium\6. Semester\Bachelorarbeit\Code\PerformanceTests\Enclave\PerformanceTests_t.c:366.3
$LN979:
        mov       QWORD PTR [48+rbp], rax                       ;\\Mac\Home\Documents\Studium\6. Semester\Bachelorarbeit\Code\PerformanceTests\Enclave\PerformanceTests_t.c:366.3
$LN980:

;;; 		if (_in_in == NULL) {

        mov       rax, QWORD PTR [48+rbp]                       ;\\Mac\Home\Documents\Studium\6. Semester\Bachelorarbeit\Code\PerformanceTests\Enclave\PerformanceTests_t.c:367.3
$LN981:
        test      rax, rax                                      ;\\Mac\Home\Documents\Studium\6. Semester\Bachelorarbeit\Code\PerformanceTests\Enclave\PerformanceTests_t.c:367.3
$LN982:
        jne       .B6.21        ; Prob 50%                      ;\\Mac\Home\Documents\Studium\6. Semester\Bachelorarbeit\Code\PerformanceTests\Enclave\PerformanceTests_t.c:367.3
$LN983:
                                ; LOE rbp rsp r12 r13 r14 r15 rip zmm6 zmm7 zmm8 zmm9 zmm10 zmm11 zmm12 zmm13 zmm14 zmm15
.B6.20::                        ; Preds .B6.19
                                ; Execution count [0.00e+000]
$LN984:

;;; 			status = SGX_ERROR_OUT_OF_MEMORY;

        mov       DWORD PTR [rbp], 3                            ;\\Mac\Home\Documents\Studium\6. Semester\Bachelorarbeit\Code\PerformanceTests\Enclave\PerformanceTests_t.c:368.4
$LN985:
        jmp       .B6.29        ; Prob 100%                     ;\\Mac\Home\Documents\Studium\6. Semester\Bachelorarbeit\Code\PerformanceTests\Enclave\PerformanceTests_t.c:368.4
$LN986:
                                ; LOE rbp rsp r12 r13 r14 r15 rip zmm6 zmm7 zmm8 zmm9 zmm10 zmm11 zmm12 zmm13 zmm14 zmm15
.B6.21::                        ; Preds .B6.19
                                ; Execution count [0.00e+000]
$LN987:

;;; 			goto err;
;;; 		}
;;; 
;;; 		memcpy(_in_in, _tmp_in, _len_in);

        mov       rax, QWORD PTR [48+rbp]                       ;\\Mac\Home\Documents\Studium\6. Semester\Bachelorarbeit\Code\PerformanceTests\Enclave\PerformanceTests_t.c:372.3
$LN988:
        mov       rdx, QWORD PTR [24+rbp]                       ;\\Mac\Home\Documents\Studium\6. Semester\Bachelorarbeit\Code\PerformanceTests\Enclave\PerformanceTests_t.c:372.3
$LN989:
        mov       rcx, QWORD PTR [40+rbp]                       ;\\Mac\Home\Documents\Studium\6. Semester\Bachelorarbeit\Code\PerformanceTests\Enclave\PerformanceTests_t.c:372.3
$LN990:
        mov       rdi, rax                                      ;\\Mac\Home\Documents\Studium\6. Semester\Bachelorarbeit\Code\PerformanceTests\Enclave\PerformanceTests_t.c:372.3
$LN991:
        mov       rsi, rdx                                      ;\\Mac\Home\Documents\Studium\6. Semester\Bachelorarbeit\Code\PerformanceTests\Enclave\PerformanceTests_t.c:372.3
$LN992:
        mov       rdx, rdi                                      ;\\Mac\Home\Documents\Studium\6. Semester\Bachelorarbeit\Code\PerformanceTests\Enclave\PerformanceTests_t.c:372.3
$LN993:
        mov       eax, ecx                                      ;\\Mac\Home\Documents\Studium\6. Semester\Bachelorarbeit\Code\PerformanceTests\Enclave\PerformanceTests_t.c:372.3
$LN994:
        shr       rcx, 2                                        ;\\Mac\Home\Documents\Studium\6. Semester\Bachelorarbeit\Code\PerformanceTests\Enclave\PerformanceTests_t.c:372.3
$LN995:
        rep   movsd                                             ;\\Mac\Home\Documents\Studium\6. Semester\Bachelorarbeit\Code\PerformanceTests\Enclave\PerformanceTests_t.c:372.3
$LN996:
        mov       ecx, eax                                      ;\\Mac\Home\Documents\Studium\6. Semester\Bachelorarbeit\Code\PerformanceTests\Enclave\PerformanceTests_t.c:372.3
$LN997:
        and       ecx, 3                                        ;\\Mac\Home\Documents\Studium\6. Semester\Bachelorarbeit\Code\PerformanceTests\Enclave\PerformanceTests_t.c:372.3
$LN998:
        rep   movsb                                             ;\\Mac\Home\Documents\Studium\6. Semester\Bachelorarbeit\Code\PerformanceTests\Enclave\PerformanceTests_t.c:372.3
$LN999:
        mov       rax, rdx                                      ;\\Mac\Home\Documents\Studium\6. Semester\Bachelorarbeit\Code\PerformanceTests\Enclave\PerformanceTests_t.c:372.3
$LN1000:
                                ; LOE rax rbp rsp r12 r13 r14 r15 rip zmm6 zmm7 zmm8 zmm9 zmm10 zmm11 zmm12 zmm13 zmm14 zmm15
.B6.41::                        ; Preds .B6.21
                                ; Execution count [0.00e+000]
$LN1001:
        mov       QWORD PTR [112+rbp], rax                      ;\\Mac\Home\Documents\Studium\6. Semester\Bachelorarbeit\Code\PerformanceTests\Enclave\PerformanceTests_t.c:372.3
$LN1002:
                                ; LOE rbp rsp r12 r13 r14 r15 rip zmm6 zmm7 zmm8 zmm9 zmm10 zmm11 zmm12 zmm13 zmm14 zmm15
.B6.22::                        ; Preds .B6.41 .B6.17
                                ; Execution count [0.00e+000]
$LN1003:

;;; 	}
;;; 	if (_tmp_out != NULL) {

        mov       rax, QWORD PTR [56+rbp]                       ;\\Mac\Home\Documents\Studium\6. Semester\Bachelorarbeit\Code\PerformanceTests\Enclave\PerformanceTests_t.c:374.2
$LN1004:
        test      rax, rax                                      ;\\Mac\Home\Documents\Studium\6. Semester\Bachelorarbeit\Code\PerformanceTests\Enclave\PerformanceTests_t.c:374.2
$LN1005:
        je        .B6.27        ; Prob 50%                      ;\\Mac\Home\Documents\Studium\6. Semester\Bachelorarbeit\Code\PerformanceTests\Enclave\PerformanceTests_t.c:374.2
$LN1006:
                                ; LOE rbp rsp r12 r13 r14 r15 rip zmm6 zmm7 zmm8 zmm9 zmm10 zmm11 zmm12 zmm13 zmm14 zmm15
.B6.23::                        ; Preds .B6.22
                                ; Execution count [0.00e+000]
$LN1007:

;;; 		if ((_in_out = (uint8_t*)malloc(_len_out)) == NULL) {

        mov       rax, QWORD PTR [72+rbp]                       ;\\Mac\Home\Documents\Studium\6. Semester\Bachelorarbeit\Code\PerformanceTests\Enclave\PerformanceTests_t.c:375.3
$LN1008:
        mov       rcx, rax                                      ;\\Mac\Home\Documents\Studium\6. Semester\Bachelorarbeit\Code\PerformanceTests\Enclave\PerformanceTests_t.c:375.3
$LN1009:
;       malloc(size_t)
        call      malloc                                        ;\\Mac\Home\Documents\Studium\6. Semester\Bachelorarbeit\Code\PerformanceTests\Enclave\PerformanceTests_t.c:375.3
$LN1010:
                                ; LOE rax rbp rsp r12 r13 r14 r15 rip zmm6 zmm7 zmm8 zmm9 zmm10 zmm11 zmm12 zmm13 zmm14 zmm15
.B6.42::                        ; Preds .B6.23
                                ; Execution count [0.00e+000]
$LN1011:
        mov       QWORD PTR [96+rbp], rax                       ;\\Mac\Home\Documents\Studium\6. Semester\Bachelorarbeit\Code\PerformanceTests\Enclave\PerformanceTests_t.c:375.3
$LN1012:
                                ; LOE rbp rsp r12 r13 r14 r15 rip zmm6 zmm7 zmm8 zmm9 zmm10 zmm11 zmm12 zmm13 zmm14 zmm15
.B6.24::                        ; Preds .B6.42
                                ; Execution count [0.00e+000]
$LN1013:
        mov       rax, QWORD PTR [96+rbp]                       ;\\Mac\Home\Documents\Studium\6. Semester\Bachelorarbeit\Code\PerformanceTests\Enclave\PerformanceTests_t.c:375.3
$LN1014:
        mov       QWORD PTR [120+rbp], rax                      ;\\Mac\Home\Documents\Studium\6. Semester\Bachelorarbeit\Code\PerformanceTests\Enclave\PerformanceTests_t.c:375.3
$LN1015:
        mov       rax, QWORD PTR [120+rbp]                      ;\\Mac\Home\Documents\Studium\6. Semester\Bachelorarbeit\Code\PerformanceTests\Enclave\PerformanceTests_t.c:375.3
$LN1016:
        mov       QWORD PTR [80+rbp], rax                       ;\\Mac\Home\Documents\Studium\6. Semester\Bachelorarbeit\Code\PerformanceTests\Enclave\PerformanceTests_t.c:375.3
$LN1017:
        mov       rax, QWORD PTR [120+rbp]                      ;\\Mac\Home\Documents\Studium\6. Semester\Bachelorarbeit\Code\PerformanceTests\Enclave\PerformanceTests_t.c:375.3
$LN1018:
        test      rax, rax                                      ;\\Mac\Home\Documents\Studium\6. Semester\Bachelorarbeit\Code\PerformanceTests\Enclave\PerformanceTests_t.c:375.3
$LN1019:
        jne       .B6.26        ; Prob 50%                      ;\\Mac\Home\Documents\Studium\6. Semester\Bachelorarbeit\Code\PerformanceTests\Enclave\PerformanceTests_t.c:375.3
$LN1020:
                                ; LOE rbp rsp r12 r13 r14 r15 rip zmm6 zmm7 zmm8 zmm9 zmm10 zmm11 zmm12 zmm13 zmm14 zmm15
.B6.25::                        ; Preds .B6.24
                                ; Execution count [0.00e+000]
$LN1021:

;;; 			status = SGX_ERROR_OUT_OF_MEMORY;

        mov       DWORD PTR [rbp], 3                            ;\\Mac\Home\Documents\Studium\6. Semester\Bachelorarbeit\Code\PerformanceTests\Enclave\PerformanceTests_t.c:376.4
$LN1022:
        jmp       .B6.29        ; Prob 100%                     ;\\Mac\Home\Documents\Studium\6. Semester\Bachelorarbeit\Code\PerformanceTests\Enclave\PerformanceTests_t.c:376.4
$LN1023:
                                ; LOE rbp rsp r12 r13 r14 r15 rip zmm6 zmm7 zmm8 zmm9 zmm10 zmm11 zmm12 zmm13 zmm14 zmm15
.B6.26::                        ; Preds .B6.24
                                ; Execution count [0.00e+000]
$LN1024:

;;; 			goto err;
;;; 		}
;;; 
;;; 		memset((void*)_in_out, 0, _len_out);

        mov       rax, QWORD PTR [80+rbp]                       ;\\Mac\Home\Documents\Studium\6. Semester\Bachelorarbeit\Code\PerformanceTests\Enclave\PerformanceTests_t.c:380.3
$LN1025:
        mov       edx, 0                                        ;\\Mac\Home\Documents\Studium\6. Semester\Bachelorarbeit\Code\PerformanceTests\Enclave\PerformanceTests_t.c:380.3
$LN1026:
        mov       rcx, QWORD PTR [72+rbp]                       ;\\Mac\Home\Documents\Studium\6. Semester\Bachelorarbeit\Code\PerformanceTests\Enclave\PerformanceTests_t.c:380.3
$LN1027:
        mov       rdi, rax                                      ;\\Mac\Home\Documents\Studium\6. Semester\Bachelorarbeit\Code\PerformanceTests\Enclave\PerformanceTests_t.c:380.3
$LN1028:
        mov       eax, edx                                      ;\\Mac\Home\Documents\Studium\6. Semester\Bachelorarbeit\Code\PerformanceTests\Enclave\PerformanceTests_t.c:380.3
$LN1029:
        and       eax, 65535                                    ;\\Mac\Home\Documents\Studium\6. Semester\Bachelorarbeit\Code\PerformanceTests\Enclave\PerformanceTests_t.c:380.3
$LN1030:
        mov       ah, al                                        ;\\Mac\Home\Documents\Studium\6. Semester\Bachelorarbeit\Code\PerformanceTests\Enclave\PerformanceTests_t.c:380.3
$LN1031:
        mov       edx, eax                                      ;\\Mac\Home\Documents\Studium\6. Semester\Bachelorarbeit\Code\PerformanceTests\Enclave\PerformanceTests_t.c:380.3
$LN1032:
        shl       eax, 16                                       ;\\Mac\Home\Documents\Studium\6. Semester\Bachelorarbeit\Code\PerformanceTests\Enclave\PerformanceTests_t.c:380.3
$LN1033:
        or        eax, edx                                      ;\\Mac\Home\Documents\Studium\6. Semester\Bachelorarbeit\Code\PerformanceTests\Enclave\PerformanceTests_t.c:380.3
$LN1034:
        mov       esi, ecx                                      ;\\Mac\Home\Documents\Studium\6. Semester\Bachelorarbeit\Code\PerformanceTests\Enclave\PerformanceTests_t.c:380.3
$LN1035:
        shr       rcx, 2                                        ;\\Mac\Home\Documents\Studium\6. Semester\Bachelorarbeit\Code\PerformanceTests\Enclave\PerformanceTests_t.c:380.3
$LN1036:
        mov       rdx, rdi                                      ;\\Mac\Home\Documents\Studium\6. Semester\Bachelorarbeit\Code\PerformanceTests\Enclave\PerformanceTests_t.c:380.3
$LN1037:
        rep   stosd                                             ;\\Mac\Home\Documents\Studium\6. Semester\Bachelorarbeit\Code\PerformanceTests\Enclave\PerformanceTests_t.c:380.3
$LN1038:
        mov       ecx, esi                                      ;\\Mac\Home\Documents\Studium\6. Semester\Bachelorarbeit\Code\PerformanceTests\Enclave\PerformanceTests_t.c:380.3
$LN1039:
        and       ecx, 3                                        ;\\Mac\Home\Documents\Studium\6. Semester\Bachelorarbeit\Code\PerformanceTests\Enclave\PerformanceTests_t.c:380.3
$LN1040:
        rep   stosb                                             ;\\Mac\Home\Documents\Studium\6. Semester\Bachelorarbeit\Code\PerformanceTests\Enclave\PerformanceTests_t.c:380.3
$LN1041:
        mov       rax, rdx                                      ;\\Mac\Home\Documents\Studium\6. Semester\Bachelorarbeit\Code\PerformanceTests\Enclave\PerformanceTests_t.c:380.3
$LN1042:
                                ; LOE rax rbp rsp r12 r13 r14 r15 rip zmm6 zmm7 zmm8 zmm9 zmm10 zmm11 zmm12 zmm13 zmm14 zmm15
.B6.43::                        ; Preds .B6.26
                                ; Execution count [0.00e+000]
$LN1043:
        mov       QWORD PTR [128+rbp], rax                      ;\\Mac\Home\Documents\Studium\6. Semester\Bachelorarbeit\Code\PerformanceTests\Enclave\PerformanceTests_t.c:380.3
$LN1044:
                                ; LOE rbp rsp r12 r13 r14 r15 rip zmm6 zmm7 zmm8 zmm9 zmm10 zmm11 zmm12 zmm13 zmm14 zmm15
.B6.27::                        ; Preds .B6.43 .B6.22
                                ; Execution count [0.00e+000]
$LN1045:

;;; 	}
;;; 	ms->ms_retval = enclaveVByteDecode(_in_in, _tmp_inLength, _in_out, _tmp_outLength);

        mov       rax, QWORD PTR [48+rbp]                       ;\\Mac\Home\Documents\Studium\6. Semester\Bachelorarbeit\Code\PerformanceTests\Enclave\PerformanceTests_t.c:382.2
$LN1046:
        mov       rdx, QWORD PTR [32+rbp]                       ;\\Mac\Home\Documents\Studium\6. Semester\Bachelorarbeit\Code\PerformanceTests\Enclave\PerformanceTests_t.c:382.2
$LN1047:
        mov       rcx, QWORD PTR [80+rbp]                       ;\\Mac\Home\Documents\Studium\6. Semester\Bachelorarbeit\Code\PerformanceTests\Enclave\PerformanceTests_t.c:382.2
$LN1048:
        mov       rbx, QWORD PTR [64+rbp]                       ;\\Mac\Home\Documents\Studium\6. Semester\Bachelorarbeit\Code\PerformanceTests\Enclave\PerformanceTests_t.c:382.2
$LN1049:
        mov       QWORD PTR [144+rbp], rcx                      ;\\Mac\Home\Documents\Studium\6. Semester\Bachelorarbeit\Code\PerformanceTests\Enclave\PerformanceTests_t.c:382.2[spill]
$LN1050:
        mov       rcx, rax                                      ;\\Mac\Home\Documents\Studium\6. Semester\Bachelorarbeit\Code\PerformanceTests\Enclave\PerformanceTests_t.c:382.2
$LN1051:
        mov       rax, QWORD PTR [144+rbp]                      ;\\Mac\Home\Documents\Studium\6. Semester\Bachelorarbeit\Code\PerformanceTests\Enclave\PerformanceTests_t.c:382.2[spill]
$LN1052:
        mov       r8, rax                                       ;\\Mac\Home\Documents\Studium\6. Semester\Bachelorarbeit\Code\PerformanceTests\Enclave\PerformanceTests_t.c:382.2
$LN1053:
        mov       r9, rbx                                       ;\\Mac\Home\Documents\Studium\6. Semester\Bachelorarbeit\Code\PerformanceTests\Enclave\PerformanceTests_t.c:382.2
$LN1054:
;       enclaveVByteDecode(uint8_t *, size_t, uint8_t *, size_t)
        call      enclaveVByteDecode                            ;\\Mac\Home\Documents\Studium\6. Semester\Bachelorarbeit\Code\PerformanceTests\Enclave\PerformanceTests_t.c:382.2
$LN1055:
                                ; LOE rax rbp rsp r12 r13 r14 r15 rip zmm6 zmm7 zmm8 zmm9 zmm10 zmm11 zmm12 zmm13 zmm14 zmm15
.B6.44::                        ; Preds .B6.27
                                ; Execution count [0.00e+000]
$LN1056:
        mov       QWORD PTR [104+rbp], rax                      ;\\Mac\Home\Documents\Studium\6. Semester\Bachelorarbeit\Code\PerformanceTests\Enclave\PerformanceTests_t.c:382.2
$LN1057:
                                ; LOE rbp rsp r12 r13 r14 r15 rip zmm6 zmm7 zmm8 zmm9 zmm10 zmm11 zmm12 zmm13 zmm14 zmm15
.B6.28::                        ; Preds .B6.44
                                ; Execution count [0.00e+000]
$LN1058:
        mov       rax, QWORD PTR [16+rbp]                       ;\\Mac\Home\Documents\Studium\6. Semester\Bachelorarbeit\Code\PerformanceTests\Enclave\PerformanceTests_t.c:382.2
$LN1059:
        mov       rdx, QWORD PTR [104+rbp]                      ;\\Mac\Home\Documents\Studium\6. Semester\Bachelorarbeit\Code\PerformanceTests\Enclave\PerformanceTests_t.c:382.2
$LN1060:
        mov       QWORD PTR [rax], rdx                          ;\\Mac\Home\Documents\Studium\6. Semester\Bachelorarbeit\Code\PerformanceTests\Enclave\PerformanceTests_t.c:382.2
$LN1061:
                                ; LOE rbp rsp r12 r13 r14 r15 rip zmm6 zmm7 zmm8 zmm9 zmm10 zmm11 zmm12 zmm13 zmm14 zmm15
.B6.29::                        ; Preds .B6.28 .B6.25 .B6.20
                                ; Execution count [0.00e+000]
$LN1062:

;;; err:
;;; 	if (_in_in) free(_in_in);

        mov       rax, QWORD PTR [48+rbp]                       ;\\Mac\Home\Documents\Studium\6. Semester\Bachelorarbeit\Code\PerformanceTests\Enclave\PerformanceTests_t.c:384.2
$LN1063:
        test      rax, rax                                      ;\\Mac\Home\Documents\Studium\6. Semester\Bachelorarbeit\Code\PerformanceTests\Enclave\PerformanceTests_t.c:384.2
$LN1064:
        je        .B6.31        ; Prob 50%                      ;\\Mac\Home\Documents\Studium\6. Semester\Bachelorarbeit\Code\PerformanceTests\Enclave\PerformanceTests_t.c:384.2
$LN1065:
                                ; LOE rbp rsp r12 r13 r14 r15 rip zmm6 zmm7 zmm8 zmm9 zmm10 zmm11 zmm12 zmm13 zmm14 zmm15
.B6.30::                        ; Preds .B6.29
                                ; Execution count [0.00e+000]
$LN1066:
        mov       rax, QWORD PTR [48+rbp]                       ;\\Mac\Home\Documents\Studium\6. Semester\Bachelorarbeit\Code\PerformanceTests\Enclave\PerformanceTests_t.c:384.14
$LN1067:
        mov       rcx, rax                                      ;\\Mac\Home\Documents\Studium\6. Semester\Bachelorarbeit\Code\PerformanceTests\Enclave\PerformanceTests_t.c:384.14
$LN1068:
;       free(void *)
        call      free                                          ;\\Mac\Home\Documents\Studium\6. Semester\Bachelorarbeit\Code\PerformanceTests\Enclave\PerformanceTests_t.c:384.14
$LN1069:
                                ; LOE rbp rsp r12 r13 r14 r15 rip zmm6 zmm7 zmm8 zmm9 zmm10 zmm11 zmm12 zmm13 zmm14 zmm15
.B6.45::                        ; Preds .B6.30
                                ; Execution count [0.00e+000]
$LN1070:
                                ; LOE rbp rsp r12 r13 r14 r15 rip zmm6 zmm7 zmm8 zmm9 zmm10 zmm11 zmm12 zmm13 zmm14 zmm15
.B6.31::                        ; Preds .B6.45 .B6.29
                                ; Execution count [0.00e+000]
$LN1071:

;;; 	if (_in_out) {

        mov       rax, QWORD PTR [80+rbp]                       ;\\Mac\Home\Documents\Studium\6. Semester\Bachelorarbeit\Code\PerformanceTests\Enclave\PerformanceTests_t.c:385.2
$LN1072:
        test      rax, rax                                      ;\\Mac\Home\Documents\Studium\6. Semester\Bachelorarbeit\Code\PerformanceTests\Enclave\PerformanceTests_t.c:385.2
$LN1073:
        je        .B6.34        ; Prob 50%                      ;\\Mac\Home\Documents\Studium\6. Semester\Bachelorarbeit\Code\PerformanceTests\Enclave\PerformanceTests_t.c:385.2
$LN1074:
                                ; LOE rbp rsp r12 r13 r14 r15 rip zmm6 zmm7 zmm8 zmm9 zmm10 zmm11 zmm12 zmm13 zmm14 zmm15
.B6.32::                        ; Preds .B6.31
                                ; Execution count [0.00e+000]
$LN1075:

;;; 		memcpy(_tmp_out, _in_out, _len_out);

        mov       rax, QWORD PTR [56+rbp]                       ;\\Mac\Home\Documents\Studium\6. Semester\Bachelorarbeit\Code\PerformanceTests\Enclave\PerformanceTests_t.c:386.3
$LN1076:
        mov       rdx, QWORD PTR [80+rbp]                       ;\\Mac\Home\Documents\Studium\6. Semester\Bachelorarbeit\Code\PerformanceTests\Enclave\PerformanceTests_t.c:386.3
$LN1077:
        mov       rcx, QWORD PTR [72+rbp]                       ;\\Mac\Home\Documents\Studium\6. Semester\Bachelorarbeit\Code\PerformanceTests\Enclave\PerformanceTests_t.c:386.3
$LN1078:
        mov       rdi, rax                                      ;\\Mac\Home\Documents\Studium\6. Semester\Bachelorarbeit\Code\PerformanceTests\Enclave\PerformanceTests_t.c:386.3
$LN1079:
        mov       rsi, rdx                                      ;\\Mac\Home\Documents\Studium\6. Semester\Bachelorarbeit\Code\PerformanceTests\Enclave\PerformanceTests_t.c:386.3
$LN1080:
        mov       rdx, rdi                                      ;\\Mac\Home\Documents\Studium\6. Semester\Bachelorarbeit\Code\PerformanceTests\Enclave\PerformanceTests_t.c:386.3
$LN1081:
        mov       eax, ecx                                      ;\\Mac\Home\Documents\Studium\6. Semester\Bachelorarbeit\Code\PerformanceTests\Enclave\PerformanceTests_t.c:386.3
$LN1082:
        shr       rcx, 2                                        ;\\Mac\Home\Documents\Studium\6. Semester\Bachelorarbeit\Code\PerformanceTests\Enclave\PerformanceTests_t.c:386.3
$LN1083:
        rep   movsd                                             ;\\Mac\Home\Documents\Studium\6. Semester\Bachelorarbeit\Code\PerformanceTests\Enclave\PerformanceTests_t.c:386.3
$LN1084:
        mov       ecx, eax                                      ;\\Mac\Home\Documents\Studium\6. Semester\Bachelorarbeit\Code\PerformanceTests\Enclave\PerformanceTests_t.c:386.3
$LN1085:
        and       ecx, 3                                        ;\\Mac\Home\Documents\Studium\6. Semester\Bachelorarbeit\Code\PerformanceTests\Enclave\PerformanceTests_t.c:386.3
$LN1086:
        rep   movsb                                             ;\\Mac\Home\Documents\Studium\6. Semester\Bachelorarbeit\Code\PerformanceTests\Enclave\PerformanceTests_t.c:386.3
$LN1087:
        mov       rax, rdx                                      ;\\Mac\Home\Documents\Studium\6. Semester\Bachelorarbeit\Code\PerformanceTests\Enclave\PerformanceTests_t.c:386.3
$LN1088:
                                ; LOE rax rbp rsp r12 r13 r14 r15 rip zmm6 zmm7 zmm8 zmm9 zmm10 zmm11 zmm12 zmm13 zmm14 zmm15
.B6.46::                        ; Preds .B6.32
                                ; Execution count [0.00e+000]
$LN1089:
        mov       QWORD PTR [136+rbp], rax                      ;\\Mac\Home\Documents\Studium\6. Semester\Bachelorarbeit\Code\PerformanceTests\Enclave\PerformanceTests_t.c:386.3
$LN1090:
                                ; LOE rbp rsp r12 r13 r14 r15 rip zmm6 zmm7 zmm8 zmm9 zmm10 zmm11 zmm12 zmm13 zmm14 zmm15
.B6.33::                        ; Preds .B6.46
                                ; Execution count [0.00e+000]
$LN1091:

;;; 		free(_in_out);

        mov       rax, QWORD PTR [80+rbp]                       ;\\Mac\Home\Documents\Studium\6. Semester\Bachelorarbeit\Code\PerformanceTests\Enclave\PerformanceTests_t.c:387.3
$LN1092:
        mov       rcx, rax                                      ;\\Mac\Home\Documents\Studium\6. Semester\Bachelorarbeit\Code\PerformanceTests\Enclave\PerformanceTests_t.c:387.3
$LN1093:
;       free(void *)
        call      free                                          ;\\Mac\Home\Documents\Studium\6. Semester\Bachelorarbeit\Code\PerformanceTests\Enclave\PerformanceTests_t.c:387.3
$LN1094:
                                ; LOE rbp rsp r12 r13 r14 r15 rip zmm6 zmm7 zmm8 zmm9 zmm10 zmm11 zmm12 zmm13 zmm14 zmm15
.B6.47::                        ; Preds .B6.33
                                ; Execution count [0.00e+000]
$LN1095:
                                ; LOE rbp rsp r12 r13 r14 r15 rip zmm6 zmm7 zmm8 zmm9 zmm10 zmm11 zmm12 zmm13 zmm14 zmm15
.B6.34::                        ; Preds .B6.47 .B6.31
                                ; Execution count [0.00e+000]
$LN1096:

;;; 	}
;;; 
;;; 	return status;

        mov       eax, DWORD PTR [rbp]                          ;\\Mac\Home\Documents\Studium\6. Semester\Bachelorarbeit\Code\PerformanceTests\Enclave\PerformanceTests_t.c:390.2
$LN1097:
        mov       rbx, QWORD PTR [152+rbp]                      ;\\Mac\Home\Documents\Studium\6. Semester\Bachelorarbeit\Code\PerformanceTests\Enclave\PerformanceTests_t.c:390.2[spill]
$LN1098:
        mov       rsi, QWORD PTR [160+rbp]                      ;\\Mac\Home\Documents\Studium\6. Semester\Bachelorarbeit\Code\PerformanceTests\Enclave\PerformanceTests_t.c:390.2[spill]
$LN1099:
        mov       rdi, QWORD PTR [168+rbp]                      ;\\Mac\Home\Documents\Studium\6. Semester\Bachelorarbeit\Code\PerformanceTests\Enclave\PerformanceTests_t.c:390.2[spill]
$LN1100:
        lea       rsp, QWORD PTR [176+rbp]                      ;\\Mac\Home\Documents\Studium\6. Semester\Bachelorarbeit\Code\PerformanceTests\Enclave\PerformanceTests_t.c:390.2
$LN1101:
        pop       rbp                                           ;\\Mac\Home\Documents\Studium\6. Semester\Bachelorarbeit\Code\PerformanceTests\Enclave\PerformanceTests_t.c:390.2
$LN1102:
        ret                                                     ;\\Mac\Home\Documents\Studium\6. Semester\Bachelorarbeit\Code\PerformanceTests\Enclave\PerformanceTests_t.c:390.2
$LN1103:
                                ; LOE
.B6.35::
$LN1104:
; mark_end;
sgx_enclaveVByteDecode ENDP
$LNsgx_enclaveVByteDecode$1105:
_TEXT	ENDS
.xdata	SEGMENT  DWORD   READ  ''
	ALIGN 004H
.unwind.sgx_enclaveVByteDecode.B1_B34	DD	621421057
	DD	1520674
	DD	1598491
	DD	1668116
	DD	17302285
	DD	1342242842
.xdata	ENDS
.pdata	SEGMENT  DWORD   READ  ''
	ALIGN 004H
.pdata.sgx_enclaveVByteDecode.B1_B34	DD	imagerel .B6.1
	DD	imagerel .B6.35
	DD	imagerel .unwind.sgx_enclaveVByteDecode.B1_B34
.pdata	ENDS
_DATA	SEGMENT      'DATA'
_DATA	ENDS
; -- End  sgx_enclaveVByteDecode
_TEXT	SEGMENT      'CODE'
_2__routine_start_sgx_enclaveRunLengthEncode_6:
; -- Begin  sgx_enclaveRunLengthEncode
_TEXT	ENDS
_TEXT	SEGMENT      'CODE'
; mark_begin;

; --- sgx_enclaveRunLengthEncode(void *)
sgx_enclaveRunLengthEncode	PROC PRIVATE
; parameter 1(pms): rcx
.B7.1::                         ; Preds .B7.0
                                ; Execution count [0.00e+000]

;;; {

L52::
                                                          ;\\Mac\Home\Documents\Studium\6. Semester\Bachelorarbeit\Code\PerformanceTests\Enclave\PerformanceTests_t.c:394.1
$LN1106:
        push      rbp                                           ;\\Mac\Home\Documents\Studium\6. Semester\Bachelorarbeit\Code\PerformanceTests\Enclave\PerformanceTests_t.c:394.1
$LN1107:
        sub       rsp, 208                                      ;\\Mac\Home\Documents\Studium\6. Semester\Bachelorarbeit\Code\PerformanceTests\Enclave\PerformanceTests_t.c:394.1
$LN1108:
        lea       rbp, QWORD PTR [32+rsp]                       ;\\Mac\Home\Documents\Studium\6. Semester\Bachelorarbeit\Code\PerformanceTests\Enclave\PerformanceTests_t.c:394.1
$LN1109:
        mov       QWORD PTR [168+rbp], rdi                      ;\\Mac\Home\Documents\Studium\6. Semester\Bachelorarbeit\Code\PerformanceTests\Enclave\PerformanceTests_t.c:394.1[spill]
$LN1110:
        mov       QWORD PTR [160+rbp], rsi                      ;\\Mac\Home\Documents\Studium\6. Semester\Bachelorarbeit\Code\PerformanceTests\Enclave\PerformanceTests_t.c:394.1[spill]
$LN1111:
        mov       QWORD PTR [152+rbp], rbx                      ;\\Mac\Home\Documents\Studium\6. Semester\Bachelorarbeit\Code\PerformanceTests\Enclave\PerformanceTests_t.c:394.1[spill]
$LN1112:
        mov       QWORD PTR [192+rbp], rcx                      ;\\Mac\Home\Documents\Studium\6. Semester\Bachelorarbeit\Code\PerformanceTests\Enclave\PerformanceTests_t.c:394.1
$LN1113:

;;; 	ms_enclaveRunLengthEncode_t* ms = SGX_CAST(ms_enclaveRunLengthEncode_t*, pms);

        mov       rax, QWORD PTR [192+rbp]                      ;\\Mac\Home\Documents\Studium\6. Semester\Bachelorarbeit\Code\PerformanceTests\Enclave\PerformanceTests_t.c:395.34
$LN1114:
        mov       QWORD PTR [16+rbp], rax                       ;\\Mac\Home\Documents\Studium\6. Semester\Bachelorarbeit\Code\PerformanceTests\Enclave\PerformanceTests_t.c:395.34
$LN1115:

;;; 	sgx_status_t status = SGX_SUCCESS;

        mov       DWORD PTR [rbp], 0                            ;\\Mac\Home\Documents\Studium\6. Semester\Bachelorarbeit\Code\PerformanceTests\Enclave\PerformanceTests_t.c:396.22
$LN1116:

;;; 	uint8_t* _tmp_in = ms->ms_in;

        mov       rax, QWORD PTR [16+rbp]                       ;\\Mac\Home\Documents\Studium\6. Semester\Bachelorarbeit\Code\PerformanceTests\Enclave\PerformanceTests_t.c:397.19
$LN1117:
        mov       rax, QWORD PTR [8+rax]                        ;\\Mac\Home\Documents\Studium\6. Semester\Bachelorarbeit\Code\PerformanceTests\Enclave\PerformanceTests_t.c:397.19
$LN1118:
        mov       QWORD PTR [24+rbp], rax                       ;\\Mac\Home\Documents\Studium\6. Semester\Bachelorarbeit\Code\PerformanceTests\Enclave\PerformanceTests_t.c:397.19
$LN1119:

;;; 	size_t _tmp_inLength = ms->ms_inLength;

        mov       rax, QWORD PTR [16+rbp]                       ;\\Mac\Home\Documents\Studium\6. Semester\Bachelorarbeit\Code\PerformanceTests\Enclave\PerformanceTests_t.c:398.23
$LN1120:
        mov       rax, QWORD PTR [16+rax]                       ;\\Mac\Home\Documents\Studium\6. Semester\Bachelorarbeit\Code\PerformanceTests\Enclave\PerformanceTests_t.c:398.23
$LN1121:
        mov       QWORD PTR [32+rbp], rax                       ;\\Mac\Home\Documents\Studium\6. Semester\Bachelorarbeit\Code\PerformanceTests\Enclave\PerformanceTests_t.c:398.23
$LN1122:

;;; 	size_t _len_in = _tmp_inLength;

        mov       rax, QWORD PTR [32+rbp]                       ;\\Mac\Home\Documents\Studium\6. Semester\Bachelorarbeit\Code\PerformanceTests\Enclave\PerformanceTests_t.c:399.17
$LN1123:
        mov       QWORD PTR [40+rbp], rax                       ;\\Mac\Home\Documents\Studium\6. Semester\Bachelorarbeit\Code\PerformanceTests\Enclave\PerformanceTests_t.c:399.17
$LN1124:

;;; 	uint8_t* _in_in = NULL;

        mov       QWORD PTR [48+rbp], 0                         ;\\Mac\Home\Documents\Studium\6. Semester\Bachelorarbeit\Code\PerformanceTests\Enclave\PerformanceTests_t.c:400.18
$LN1125:

;;; 	uint8_t* _tmp_out = ms->ms_out;

        mov       rax, QWORD PTR [16+rbp]                       ;\\Mac\Home\Documents\Studium\6. Semester\Bachelorarbeit\Code\PerformanceTests\Enclave\PerformanceTests_t.c:401.20
$LN1126:
        mov       rax, QWORD PTR [24+rax]                       ;\\Mac\Home\Documents\Studium\6. Semester\Bachelorarbeit\Code\PerformanceTests\Enclave\PerformanceTests_t.c:401.20
$LN1127:
        mov       QWORD PTR [56+rbp], rax                       ;\\Mac\Home\Documents\Studium\6. Semester\Bachelorarbeit\Code\PerformanceTests\Enclave\PerformanceTests_t.c:401.20
$LN1128:

;;; 	size_t _tmp_outLength = ms->ms_outLength;

        mov       rax, QWORD PTR [16+rbp]                       ;\\Mac\Home\Documents\Studium\6. Semester\Bachelorarbeit\Code\PerformanceTests\Enclave\PerformanceTests_t.c:402.24
$LN1129:
        mov       rax, QWORD PTR [32+rax]                       ;\\Mac\Home\Documents\Studium\6. Semester\Bachelorarbeit\Code\PerformanceTests\Enclave\PerformanceTests_t.c:402.24
$LN1130:
        mov       QWORD PTR [64+rbp], rax                       ;\\Mac\Home\Documents\Studium\6. Semester\Bachelorarbeit\Code\PerformanceTests\Enclave\PerformanceTests_t.c:402.24
$LN1131:

;;; 	size_t _len_out = _tmp_outLength;

        mov       rax, QWORD PTR [64+rbp]                       ;\\Mac\Home\Documents\Studium\6. Semester\Bachelorarbeit\Code\PerformanceTests\Enclave\PerformanceTests_t.c:403.18
$LN1132:
        mov       QWORD PTR [72+rbp], rax                       ;\\Mac\Home\Documents\Studium\6. Semester\Bachelorarbeit\Code\PerformanceTests\Enclave\PerformanceTests_t.c:403.18
$LN1133:

;;; 	uint8_t* _in_out = NULL;

        mov       QWORD PTR [80+rbp], 0                         ;\\Mac\Home\Documents\Studium\6. Semester\Bachelorarbeit\Code\PerformanceTests\Enclave\PerformanceTests_t.c:404.19
$LN1134:
                                ; LOE rbp rsp r12 r13 r14 r15 rip zmm6 zmm7 zmm8 zmm9 zmm10 zmm11 zmm12 zmm13 zmm14 zmm15
.B7.2::                         ; Preds .B7.5 .B7.1
                                ; Execution count [0.00e+000]
$LN1135:

;;; 
;;; 	CHECK_REF_POINTER(pms, sizeof(ms_enclaveRunLengthEncode_t));

        mov       rax, QWORD PTR [192+rbp]                      ;\\Mac\Home\Documents\Studium\6. Semester\Bachelorarbeit\Code\PerformanceTests\Enclave\PerformanceTests_t.c:406.2
$LN1136:
        test      rax, rax                                      ;\\Mac\Home\Documents\Studium\6. Semester\Bachelorarbeit\Code\PerformanceTests\Enclave\PerformanceTests_t.c:406.2
$LN1137:
        je        .B7.6         ; Prob 50%                      ;\\Mac\Home\Documents\Studium\6. Semester\Bachelorarbeit\Code\PerformanceTests\Enclave\PerformanceTests_t.c:406.2
$LN1138:
                                ; LOE rbp rsp r12 r13 r14 r15 rip zmm6 zmm7 zmm8 zmm9 zmm10 zmm11 zmm12 zmm13 zmm14 zmm15
.B7.3::                         ; Preds .B7.2
                                ; Execution count [0.00e+000]
$LN1139:
        mov       rax, QWORD PTR [192+rbp]                      ;\\Mac\Home\Documents\Studium\6. Semester\Bachelorarbeit\Code\PerformanceTests\Enclave\PerformanceTests_t.c:406.2
$LN1140:
        mov       edx, 40                                       ;\\Mac\Home\Documents\Studium\6. Semester\Bachelorarbeit\Code\PerformanceTests\Enclave\PerformanceTests_t.c:406.2
$LN1141:
        mov       rcx, rax                                      ;\\Mac\Home\Documents\Studium\6. Semester\Bachelorarbeit\Code\PerformanceTests\Enclave\PerformanceTests_t.c:406.2
$LN1142:
;       sgx_is_outside_enclave(const void *, size_t)
        call      sgx_is_outside_enclave                        ;\\Mac\Home\Documents\Studium\6. Semester\Bachelorarbeit\Code\PerformanceTests\Enclave\PerformanceTests_t.c:406.2
$LN1143:
                                ; LOE rbp rsp r12 r13 r14 r15 rip eax zmm6 zmm7 zmm8 zmm9 zmm10 zmm11 zmm12 zmm13 zmm14 zmm15
.B7.37::                        ; Preds .B7.3
                                ; Execution count [0.00e+000]
$LN1144:
        mov       DWORD PTR [4+rbp], eax                        ;\\Mac\Home\Documents\Studium\6. Semester\Bachelorarbeit\Code\PerformanceTests\Enclave\PerformanceTests_t.c:406.2
$LN1145:
                                ; LOE rbp rsp r12 r13 r14 r15 rip zmm6 zmm7 zmm8 zmm9 zmm10 zmm11 zmm12 zmm13 zmm14 zmm15
.B7.4::                         ; Preds .B7.37
                                ; Execution count [0.00e+000]
$LN1146:
        mov       eax, DWORD PTR [4+rbp]                        ;\\Mac\Home\Documents\Studium\6. Semester\Bachelorarbeit\Code\PerformanceTests\Enclave\PerformanceTests_t.c:406.2
$LN1147:
        test      eax, eax                                      ;\\Mac\Home\Documents\Studium\6. Semester\Bachelorarbeit\Code\PerformanceTests\Enclave\PerformanceTests_t.c:406.2
$LN1148:
        je        .B7.6         ; Prob 50%                      ;\\Mac\Home\Documents\Studium\6. Semester\Bachelorarbeit\Code\PerformanceTests\Enclave\PerformanceTests_t.c:406.2
$LN1149:
                                ; LOE rbp rsp r12 r13 r14 r15 rip zmm6 zmm7 zmm8 zmm9 zmm10 zmm11 zmm12 zmm13 zmm14 zmm15
.B7.5::                         ; Preds .B7.4
                                ; Execution count [0.00e+000]
$LN1150:
        mov       eax, 0                                        ;\\Mac\Home\Documents\Studium\6. Semester\Bachelorarbeit\Code\PerformanceTests\Enclave\PerformanceTests_t.c:406.2
$LN1151:
        test      eax, eax                                      ;\\Mac\Home\Documents\Studium\6. Semester\Bachelorarbeit\Code\PerformanceTests\Enclave\PerformanceTests_t.c:406.2
$LN1152:
        jne       .B7.2         ; Prob 0%                       ;\\Mac\Home\Documents\Studium\6. Semester\Bachelorarbeit\Code\PerformanceTests\Enclave\PerformanceTests_t.c:406.2
$LN1153:
        jmp       .B7.7         ; Prob 100%                     ;\\Mac\Home\Documents\Studium\6. Semester\Bachelorarbeit\Code\PerformanceTests\Enclave\PerformanceTests_t.c:406.2
$LN1154:
                                ; LOE rbp rsp r12 r13 r14 r15 rip zmm6 zmm7 zmm8 zmm9 zmm10 zmm11 zmm12 zmm13 zmm14 zmm15
.B7.6::                         ; Preds .B7.2 .B7.4
                                ; Execution count [0.00e+000]
$LN1155:
        mov       eax, 2                                        ;\\Mac\Home\Documents\Studium\6. Semester\Bachelorarbeit\Code\PerformanceTests\Enclave\PerformanceTests_t.c:406.2
$LN1156:
        mov       rbx, QWORD PTR [152+rbp]                      ;\\Mac\Home\Documents\Studium\6. Semester\Bachelorarbeit\Code\PerformanceTests\Enclave\PerformanceTests_t.c:406.2[spill]
$LN1157:
        mov       rsi, QWORD PTR [160+rbp]                      ;\\Mac\Home\Documents\Studium\6. Semester\Bachelorarbeit\Code\PerformanceTests\Enclave\PerformanceTests_t.c:406.2[spill]
$LN1158:
        mov       rdi, QWORD PTR [168+rbp]                      ;\\Mac\Home\Documents\Studium\6. Semester\Bachelorarbeit\Code\PerformanceTests\Enclave\PerformanceTests_t.c:406.2[spill]
$LN1159:
        lea       rsp, QWORD PTR [176+rbp]                      ;\\Mac\Home\Documents\Studium\6. Semester\Bachelorarbeit\Code\PerformanceTests\Enclave\PerformanceTests_t.c:406.2
$LN1160:
        pop       rbp                                           ;\\Mac\Home\Documents\Studium\6. Semester\Bachelorarbeit\Code\PerformanceTests\Enclave\PerformanceTests_t.c:406.2
$LN1161:
        ret                                                     ;\\Mac\Home\Documents\Studium\6. Semester\Bachelorarbeit\Code\PerformanceTests\Enclave\PerformanceTests_t.c:406.2
$LN1162:
                                ; LOE
.B7.7::                         ; Preds .B7.10 .B7.5
                                ; Execution count [0.00e+000]
$LN1163:

;;; 	CHECK_UNIQUE_POINTER(_tmp_in, _len_in);

        mov       rax, QWORD PTR [24+rbp]                       ;\\Mac\Home\Documents\Studium\6. Semester\Bachelorarbeit\Code\PerformanceTests\Enclave\PerformanceTests_t.c:407.2
$LN1164:
        test      rax, rax                                      ;\\Mac\Home\Documents\Studium\6. Semester\Bachelorarbeit\Code\PerformanceTests\Enclave\PerformanceTests_t.c:407.2
$LN1165:
        je        .B7.10        ; Prob 50%                      ;\\Mac\Home\Documents\Studium\6. Semester\Bachelorarbeit\Code\PerformanceTests\Enclave\PerformanceTests_t.c:407.2
$LN1166:
                                ; LOE rbp rsp r12 r13 r14 r15 rip zmm6 zmm7 zmm8 zmm9 zmm10 zmm11 zmm12 zmm13 zmm14 zmm15
.B7.8::                         ; Preds .B7.7
                                ; Execution count [0.00e+000]
$LN1167:
        mov       rax, QWORD PTR [24+rbp]                       ;\\Mac\Home\Documents\Studium\6. Semester\Bachelorarbeit\Code\PerformanceTests\Enclave\PerformanceTests_t.c:407.2
$LN1168:
        mov       rdx, QWORD PTR [40+rbp]                       ;\\Mac\Home\Documents\Studium\6. Semester\Bachelorarbeit\Code\PerformanceTests\Enclave\PerformanceTests_t.c:407.2
$LN1169:
        mov       rcx, rax                                      ;\\Mac\Home\Documents\Studium\6. Semester\Bachelorarbeit\Code\PerformanceTests\Enclave\PerformanceTests_t.c:407.2
$LN1170:
;       sgx_is_outside_enclave(const void *, size_t)
        call      sgx_is_outside_enclave                        ;\\Mac\Home\Documents\Studium\6. Semester\Bachelorarbeit\Code\PerformanceTests\Enclave\PerformanceTests_t.c:407.2
$LN1171:
                                ; LOE rbp rsp r12 r13 r14 r15 rip eax zmm6 zmm7 zmm8 zmm9 zmm10 zmm11 zmm12 zmm13 zmm14 zmm15
.B7.38::                        ; Preds .B7.8
                                ; Execution count [0.00e+000]
$LN1172:
        mov       DWORD PTR [8+rbp], eax                        ;\\Mac\Home\Documents\Studium\6. Semester\Bachelorarbeit\Code\PerformanceTests\Enclave\PerformanceTests_t.c:407.2
$LN1173:
                                ; LOE rbp rsp r12 r13 r14 r15 rip zmm6 zmm7 zmm8 zmm9 zmm10 zmm11 zmm12 zmm13 zmm14 zmm15
.B7.9::                         ; Preds .B7.38
                                ; Execution count [0.00e+000]
$LN1174:
        mov       eax, DWORD PTR [8+rbp]                        ;\\Mac\Home\Documents\Studium\6. Semester\Bachelorarbeit\Code\PerformanceTests\Enclave\PerformanceTests_t.c:407.2
$LN1175:
        test      eax, eax                                      ;\\Mac\Home\Documents\Studium\6. Semester\Bachelorarbeit\Code\PerformanceTests\Enclave\PerformanceTests_t.c:407.2
$LN1176:
        je        .B7.11        ; Prob 50%                      ;\\Mac\Home\Documents\Studium\6. Semester\Bachelorarbeit\Code\PerformanceTests\Enclave\PerformanceTests_t.c:407.2
$LN1177:
                                ; LOE rbp rsp r12 r13 r14 r15 rip zmm6 zmm7 zmm8 zmm9 zmm10 zmm11 zmm12 zmm13 zmm14 zmm15
.B7.10::                        ; Preds .B7.9 .B7.7
                                ; Execution count [0.00e+000]
$LN1178:
        mov       eax, 0                                        ;\\Mac\Home\Documents\Studium\6. Semester\Bachelorarbeit\Code\PerformanceTests\Enclave\PerformanceTests_t.c:407.2
$LN1179:
        test      eax, eax                                      ;\\Mac\Home\Documents\Studium\6. Semester\Bachelorarbeit\Code\PerformanceTests\Enclave\PerformanceTests_t.c:407.2
$LN1180:
        jne       .B7.7         ; Prob 0%                       ;\\Mac\Home\Documents\Studium\6. Semester\Bachelorarbeit\Code\PerformanceTests\Enclave\PerformanceTests_t.c:407.2
$LN1181:
        jmp       .B7.12        ; Prob 100%                     ;\\Mac\Home\Documents\Studium\6. Semester\Bachelorarbeit\Code\PerformanceTests\Enclave\PerformanceTests_t.c:407.2
$LN1182:
                                ; LOE rbp rsp r12 r13 r14 r15 rip zmm6 zmm7 zmm8 zmm9 zmm10 zmm11 zmm12 zmm13 zmm14 zmm15
.B7.11::                        ; Preds .B7.9
                                ; Execution count [0.00e+000]
$LN1183:
        mov       eax, 2                                        ;\\Mac\Home\Documents\Studium\6. Semester\Bachelorarbeit\Code\PerformanceTests\Enclave\PerformanceTests_t.c:407.2
$LN1184:
        mov       rbx, QWORD PTR [152+rbp]                      ;\\Mac\Home\Documents\Studium\6. Semester\Bachelorarbeit\Code\PerformanceTests\Enclave\PerformanceTests_t.c:407.2[spill]
$LN1185:
        mov       rsi, QWORD PTR [160+rbp]                      ;\\Mac\Home\Documents\Studium\6. Semester\Bachelorarbeit\Code\PerformanceTests\Enclave\PerformanceTests_t.c:407.2[spill]
$LN1186:
        mov       rdi, QWORD PTR [168+rbp]                      ;\\Mac\Home\Documents\Studium\6. Semester\Bachelorarbeit\Code\PerformanceTests\Enclave\PerformanceTests_t.c:407.2[spill]
$LN1187:
        lea       rsp, QWORD PTR [176+rbp]                      ;\\Mac\Home\Documents\Studium\6. Semester\Bachelorarbeit\Code\PerformanceTests\Enclave\PerformanceTests_t.c:407.2
$LN1188:
        pop       rbp                                           ;\\Mac\Home\Documents\Studium\6. Semester\Bachelorarbeit\Code\PerformanceTests\Enclave\PerformanceTests_t.c:407.2
$LN1189:
        ret                                                     ;\\Mac\Home\Documents\Studium\6. Semester\Bachelorarbeit\Code\PerformanceTests\Enclave\PerformanceTests_t.c:407.2
$LN1190:
                                ; LOE
.B7.12::                        ; Preds .B7.15 .B7.10
                                ; Execution count [0.00e+000]
$LN1191:

;;; 	CHECK_UNIQUE_POINTER(_tmp_out, _len_out);

        mov       rax, QWORD PTR [56+rbp]                       ;\\Mac\Home\Documents\Studium\6. Semester\Bachelorarbeit\Code\PerformanceTests\Enclave\PerformanceTests_t.c:408.2
$LN1192:
        test      rax, rax                                      ;\\Mac\Home\Documents\Studium\6. Semester\Bachelorarbeit\Code\PerformanceTests\Enclave\PerformanceTests_t.c:408.2
$LN1193:
        je        .B7.15        ; Prob 50%                      ;\\Mac\Home\Documents\Studium\6. Semester\Bachelorarbeit\Code\PerformanceTests\Enclave\PerformanceTests_t.c:408.2
$LN1194:
                                ; LOE rbp rsp r12 r13 r14 r15 rip zmm6 zmm7 zmm8 zmm9 zmm10 zmm11 zmm12 zmm13 zmm14 zmm15
.B7.13::                        ; Preds .B7.12
                                ; Execution count [0.00e+000]
$LN1195:
        mov       rax, QWORD PTR [56+rbp]                       ;\\Mac\Home\Documents\Studium\6. Semester\Bachelorarbeit\Code\PerformanceTests\Enclave\PerformanceTests_t.c:408.2
$LN1196:
        mov       rdx, QWORD PTR [72+rbp]                       ;\\Mac\Home\Documents\Studium\6. Semester\Bachelorarbeit\Code\PerformanceTests\Enclave\PerformanceTests_t.c:408.2
$LN1197:
        mov       rcx, rax                                      ;\\Mac\Home\Documents\Studium\6. Semester\Bachelorarbeit\Code\PerformanceTests\Enclave\PerformanceTests_t.c:408.2
$LN1198:
;       sgx_is_outside_enclave(const void *, size_t)
        call      sgx_is_outside_enclave                        ;\\Mac\Home\Documents\Studium\6. Semester\Bachelorarbeit\Code\PerformanceTests\Enclave\PerformanceTests_t.c:408.2
$LN1199:
                                ; LOE rbp rsp r12 r13 r14 r15 rip eax zmm6 zmm7 zmm8 zmm9 zmm10 zmm11 zmm12 zmm13 zmm14 zmm15
.B7.39::                        ; Preds .B7.13
                                ; Execution count [0.00e+000]
$LN1200:
        mov       DWORD PTR [12+rbp], eax                       ;\\Mac\Home\Documents\Studium\6. Semester\Bachelorarbeit\Code\PerformanceTests\Enclave\PerformanceTests_t.c:408.2
$LN1201:
                                ; LOE rbp rsp r12 r13 r14 r15 rip zmm6 zmm7 zmm8 zmm9 zmm10 zmm11 zmm12 zmm13 zmm14 zmm15
.B7.14::                        ; Preds .B7.39
                                ; Execution count [0.00e+000]
$LN1202:
        mov       eax, DWORD PTR [12+rbp]                       ;\\Mac\Home\Documents\Studium\6. Semester\Bachelorarbeit\Code\PerformanceTests\Enclave\PerformanceTests_t.c:408.2
$LN1203:
        test      eax, eax                                      ;\\Mac\Home\Documents\Studium\6. Semester\Bachelorarbeit\Code\PerformanceTests\Enclave\PerformanceTests_t.c:408.2
$LN1204:
        je        .B7.16        ; Prob 50%                      ;\\Mac\Home\Documents\Studium\6. Semester\Bachelorarbeit\Code\PerformanceTests\Enclave\PerformanceTests_t.c:408.2
$LN1205:
                                ; LOE rbp rsp r12 r13 r14 r15 rip zmm6 zmm7 zmm8 zmm9 zmm10 zmm11 zmm12 zmm13 zmm14 zmm15
.B7.15::                        ; Preds .B7.14 .B7.12
                                ; Execution count [0.00e+000]
$LN1206:
        mov       eax, 0                                        ;\\Mac\Home\Documents\Studium\6. Semester\Bachelorarbeit\Code\PerformanceTests\Enclave\PerformanceTests_t.c:408.2
$LN1207:
        test      eax, eax                                      ;\\Mac\Home\Documents\Studium\6. Semester\Bachelorarbeit\Code\PerformanceTests\Enclave\PerformanceTests_t.c:408.2
$LN1208:
        jne       .B7.12        ; Prob 0%                       ;\\Mac\Home\Documents\Studium\6. Semester\Bachelorarbeit\Code\PerformanceTests\Enclave\PerformanceTests_t.c:408.2
$LN1209:
        jmp       .B7.17        ; Prob 100%                     ;\\Mac\Home\Documents\Studium\6. Semester\Bachelorarbeit\Code\PerformanceTests\Enclave\PerformanceTests_t.c:408.2
$LN1210:
                                ; LOE rbp rsp r12 r13 r14 r15 rip zmm6 zmm7 zmm8 zmm9 zmm10 zmm11 zmm12 zmm13 zmm14 zmm15
.B7.16::                        ; Preds .B7.14
                                ; Execution count [0.00e+000]
$LN1211:
        mov       eax, 2                                        ;\\Mac\Home\Documents\Studium\6. Semester\Bachelorarbeit\Code\PerformanceTests\Enclave\PerformanceTests_t.c:408.2
$LN1212:
        mov       rbx, QWORD PTR [152+rbp]                      ;\\Mac\Home\Documents\Studium\6. Semester\Bachelorarbeit\Code\PerformanceTests\Enclave\PerformanceTests_t.c:408.2[spill]
$LN1213:
        mov       rsi, QWORD PTR [160+rbp]                      ;\\Mac\Home\Documents\Studium\6. Semester\Bachelorarbeit\Code\PerformanceTests\Enclave\PerformanceTests_t.c:408.2[spill]
$LN1214:
        mov       rdi, QWORD PTR [168+rbp]                      ;\\Mac\Home\Documents\Studium\6. Semester\Bachelorarbeit\Code\PerformanceTests\Enclave\PerformanceTests_t.c:408.2[spill]
$LN1215:
        lea       rsp, QWORD PTR [176+rbp]                      ;\\Mac\Home\Documents\Studium\6. Semester\Bachelorarbeit\Code\PerformanceTests\Enclave\PerformanceTests_t.c:408.2
$LN1216:
        pop       rbp                                           ;\\Mac\Home\Documents\Studium\6. Semester\Bachelorarbeit\Code\PerformanceTests\Enclave\PerformanceTests_t.c:408.2
$LN1217:
        ret                                                     ;\\Mac\Home\Documents\Studium\6. Semester\Bachelorarbeit\Code\PerformanceTests\Enclave\PerformanceTests_t.c:408.2
$LN1218:
                                ; LOE
.B7.17::                        ; Preds .B7.15
                                ; Execution count [0.00e+000]
$LN1219:

;;; 
;;; 	if (_tmp_in != NULL) {

        mov       rax, QWORD PTR [24+rbp]                       ;\\Mac\Home\Documents\Studium\6. Semester\Bachelorarbeit\Code\PerformanceTests\Enclave\PerformanceTests_t.c:410.2
$LN1220:
        test      rax, rax                                      ;\\Mac\Home\Documents\Studium\6. Semester\Bachelorarbeit\Code\PerformanceTests\Enclave\PerformanceTests_t.c:410.2
$LN1221:
        je        .B7.22        ; Prob 50%                      ;\\Mac\Home\Documents\Studium\6. Semester\Bachelorarbeit\Code\PerformanceTests\Enclave\PerformanceTests_t.c:410.2
$LN1222:
                                ; LOE rbp rsp r12 r13 r14 r15 rip zmm6 zmm7 zmm8 zmm9 zmm10 zmm11 zmm12 zmm13 zmm14 zmm15
.B7.18::                        ; Preds .B7.17
                                ; Execution count [0.00e+000]
$LN1223:

;;; 		_in_in = (uint8_t*)malloc(_len_in);

        mov       rax, QWORD PTR [40+rbp]                       ;\\Mac\Home\Documents\Studium\6. Semester\Bachelorarbeit\Code\PerformanceTests\Enclave\PerformanceTests_t.c:411.3
$LN1224:
        mov       rcx, rax                                      ;\\Mac\Home\Documents\Studium\6. Semester\Bachelorarbeit\Code\PerformanceTests\Enclave\PerformanceTests_t.c:411.3
$LN1225:
;       malloc(size_t)
        call      malloc                                        ;\\Mac\Home\Documents\Studium\6. Semester\Bachelorarbeit\Code\PerformanceTests\Enclave\PerformanceTests_t.c:411.3
$LN1226:
                                ; LOE rax rbp rsp r12 r13 r14 r15 rip zmm6 zmm7 zmm8 zmm9 zmm10 zmm11 zmm12 zmm13 zmm14 zmm15
.B7.40::                        ; Preds .B7.18
                                ; Execution count [0.00e+000]
$LN1227:
        mov       QWORD PTR [88+rbp], rax                       ;\\Mac\Home\Documents\Studium\6. Semester\Bachelorarbeit\Code\PerformanceTests\Enclave\PerformanceTests_t.c:411.3
$LN1228:
                                ; LOE rbp rsp r12 r13 r14 r15 rip zmm6 zmm7 zmm8 zmm9 zmm10 zmm11 zmm12 zmm13 zmm14 zmm15
.B7.19::                        ; Preds .B7.40
                                ; Execution count [0.00e+000]
$LN1229:
        mov       rax, QWORD PTR [88+rbp]                       ;\\Mac\Home\Documents\Studium\6. Semester\Bachelorarbeit\Code\PerformanceTests\Enclave\PerformanceTests_t.c:411.3
$LN1230:
        mov       QWORD PTR [48+rbp], rax                       ;\\Mac\Home\Documents\Studium\6. Semester\Bachelorarbeit\Code\PerformanceTests\Enclave\PerformanceTests_t.c:411.3
$LN1231:

;;; 		if (_in_in == NULL) {

        mov       rax, QWORD PTR [48+rbp]                       ;\\Mac\Home\Documents\Studium\6. Semester\Bachelorarbeit\Code\PerformanceTests\Enclave\PerformanceTests_t.c:412.3
$LN1232:
        test      rax, rax                                      ;\\Mac\Home\Documents\Studium\6. Semester\Bachelorarbeit\Code\PerformanceTests\Enclave\PerformanceTests_t.c:412.3
$LN1233:
        jne       .B7.21        ; Prob 50%                      ;\\Mac\Home\Documents\Studium\6. Semester\Bachelorarbeit\Code\PerformanceTests\Enclave\PerformanceTests_t.c:412.3
$LN1234:
                                ; LOE rbp rsp r12 r13 r14 r15 rip zmm6 zmm7 zmm8 zmm9 zmm10 zmm11 zmm12 zmm13 zmm14 zmm15
.B7.20::                        ; Preds .B7.19
                                ; Execution count [0.00e+000]
$LN1235:

;;; 			status = SGX_ERROR_OUT_OF_MEMORY;

        mov       DWORD PTR [rbp], 3                            ;\\Mac\Home\Documents\Studium\6. Semester\Bachelorarbeit\Code\PerformanceTests\Enclave\PerformanceTests_t.c:413.4
$LN1236:
        jmp       .B7.29        ; Prob 100%                     ;\\Mac\Home\Documents\Studium\6. Semester\Bachelorarbeit\Code\PerformanceTests\Enclave\PerformanceTests_t.c:413.4
$LN1237:
                                ; LOE rbp rsp r12 r13 r14 r15 rip zmm6 zmm7 zmm8 zmm9 zmm10 zmm11 zmm12 zmm13 zmm14 zmm15
.B7.21::                        ; Preds .B7.19
                                ; Execution count [0.00e+000]
$LN1238:

;;; 			goto err;
;;; 		}
;;; 
;;; 		memcpy(_in_in, _tmp_in, _len_in);

        mov       rax, QWORD PTR [48+rbp]                       ;\\Mac\Home\Documents\Studium\6. Semester\Bachelorarbeit\Code\PerformanceTests\Enclave\PerformanceTests_t.c:417.3
$LN1239:
        mov       rdx, QWORD PTR [24+rbp]                       ;\\Mac\Home\Documents\Studium\6. Semester\Bachelorarbeit\Code\PerformanceTests\Enclave\PerformanceTests_t.c:417.3
$LN1240:
        mov       rcx, QWORD PTR [40+rbp]                       ;\\Mac\Home\Documents\Studium\6. Semester\Bachelorarbeit\Code\PerformanceTests\Enclave\PerformanceTests_t.c:417.3
$LN1241:
        mov       rdi, rax                                      ;\\Mac\Home\Documents\Studium\6. Semester\Bachelorarbeit\Code\PerformanceTests\Enclave\PerformanceTests_t.c:417.3
$LN1242:
        mov       rsi, rdx                                      ;\\Mac\Home\Documents\Studium\6. Semester\Bachelorarbeit\Code\PerformanceTests\Enclave\PerformanceTests_t.c:417.3
$LN1243:
        mov       rdx, rdi                                      ;\\Mac\Home\Documents\Studium\6. Semester\Bachelorarbeit\Code\PerformanceTests\Enclave\PerformanceTests_t.c:417.3
$LN1244:
        mov       eax, ecx                                      ;\\Mac\Home\Documents\Studium\6. Semester\Bachelorarbeit\Code\PerformanceTests\Enclave\PerformanceTests_t.c:417.3
$LN1245:
        shr       rcx, 2                                        ;\\Mac\Home\Documents\Studium\6. Semester\Bachelorarbeit\Code\PerformanceTests\Enclave\PerformanceTests_t.c:417.3
$LN1246:
        rep   movsd                                             ;\\Mac\Home\Documents\Studium\6. Semester\Bachelorarbeit\Code\PerformanceTests\Enclave\PerformanceTests_t.c:417.3
$LN1247:
        mov       ecx, eax                                      ;\\Mac\Home\Documents\Studium\6. Semester\Bachelorarbeit\Code\PerformanceTests\Enclave\PerformanceTests_t.c:417.3
$LN1248:
        and       ecx, 3                                        ;\\Mac\Home\Documents\Studium\6. Semester\Bachelorarbeit\Code\PerformanceTests\Enclave\PerformanceTests_t.c:417.3
$LN1249:
        rep   movsb                                             ;\\Mac\Home\Documents\Studium\6. Semester\Bachelorarbeit\Code\PerformanceTests\Enclave\PerformanceTests_t.c:417.3
$LN1250:
        mov       rax, rdx                                      ;\\Mac\Home\Documents\Studium\6. Semester\Bachelorarbeit\Code\PerformanceTests\Enclave\PerformanceTests_t.c:417.3
$LN1251:
                                ; LOE rax rbp rsp r12 r13 r14 r15 rip zmm6 zmm7 zmm8 zmm9 zmm10 zmm11 zmm12 zmm13 zmm14 zmm15
.B7.41::                        ; Preds .B7.21
                                ; Execution count [0.00e+000]
$LN1252:
        mov       QWORD PTR [112+rbp], rax                      ;\\Mac\Home\Documents\Studium\6. Semester\Bachelorarbeit\Code\PerformanceTests\Enclave\PerformanceTests_t.c:417.3
$LN1253:
                                ; LOE rbp rsp r12 r13 r14 r15 rip zmm6 zmm7 zmm8 zmm9 zmm10 zmm11 zmm12 zmm13 zmm14 zmm15
.B7.22::                        ; Preds .B7.41 .B7.17
                                ; Execution count [0.00e+000]
$LN1254:

;;; 	}
;;; 	if (_tmp_out != NULL) {

        mov       rax, QWORD PTR [56+rbp]                       ;\\Mac\Home\Documents\Studium\6. Semester\Bachelorarbeit\Code\PerformanceTests\Enclave\PerformanceTests_t.c:419.2
$LN1255:
        test      rax, rax                                      ;\\Mac\Home\Documents\Studium\6. Semester\Bachelorarbeit\Code\PerformanceTests\Enclave\PerformanceTests_t.c:419.2
$LN1256:
        je        .B7.27        ; Prob 50%                      ;\\Mac\Home\Documents\Studium\6. Semester\Bachelorarbeit\Code\PerformanceTests\Enclave\PerformanceTests_t.c:419.2
$LN1257:
                                ; LOE rbp rsp r12 r13 r14 r15 rip zmm6 zmm7 zmm8 zmm9 zmm10 zmm11 zmm12 zmm13 zmm14 zmm15
.B7.23::                        ; Preds .B7.22
                                ; Execution count [0.00e+000]
$LN1258:

;;; 		if ((_in_out = (uint8_t*)malloc(_len_out)) == NULL) {

        mov       rax, QWORD PTR [72+rbp]                       ;\\Mac\Home\Documents\Studium\6. Semester\Bachelorarbeit\Code\PerformanceTests\Enclave\PerformanceTests_t.c:420.3
$LN1259:
        mov       rcx, rax                                      ;\\Mac\Home\Documents\Studium\6. Semester\Bachelorarbeit\Code\PerformanceTests\Enclave\PerformanceTests_t.c:420.3
$LN1260:
;       malloc(size_t)
        call      malloc                                        ;\\Mac\Home\Documents\Studium\6. Semester\Bachelorarbeit\Code\PerformanceTests\Enclave\PerformanceTests_t.c:420.3
$LN1261:
                                ; LOE rax rbp rsp r12 r13 r14 r15 rip zmm6 zmm7 zmm8 zmm9 zmm10 zmm11 zmm12 zmm13 zmm14 zmm15
.B7.42::                        ; Preds .B7.23
                                ; Execution count [0.00e+000]
$LN1262:
        mov       QWORD PTR [96+rbp], rax                       ;\\Mac\Home\Documents\Studium\6. Semester\Bachelorarbeit\Code\PerformanceTests\Enclave\PerformanceTests_t.c:420.3
$LN1263:
                                ; LOE rbp rsp r12 r13 r14 r15 rip zmm6 zmm7 zmm8 zmm9 zmm10 zmm11 zmm12 zmm13 zmm14 zmm15
.B7.24::                        ; Preds .B7.42
                                ; Execution count [0.00e+000]
$LN1264:
        mov       rax, QWORD PTR [96+rbp]                       ;\\Mac\Home\Documents\Studium\6. Semester\Bachelorarbeit\Code\PerformanceTests\Enclave\PerformanceTests_t.c:420.3
$LN1265:
        mov       QWORD PTR [120+rbp], rax                      ;\\Mac\Home\Documents\Studium\6. Semester\Bachelorarbeit\Code\PerformanceTests\Enclave\PerformanceTests_t.c:420.3
$LN1266:
        mov       rax, QWORD PTR [120+rbp]                      ;\\Mac\Home\Documents\Studium\6. Semester\Bachelorarbeit\Code\PerformanceTests\Enclave\PerformanceTests_t.c:420.3
$LN1267:
        mov       QWORD PTR [80+rbp], rax                       ;\\Mac\Home\Documents\Studium\6. Semester\Bachelorarbeit\Code\PerformanceTests\Enclave\PerformanceTests_t.c:420.3
$LN1268:
        mov       rax, QWORD PTR [120+rbp]                      ;\\Mac\Home\Documents\Studium\6. Semester\Bachelorarbeit\Code\PerformanceTests\Enclave\PerformanceTests_t.c:420.3
$LN1269:
        test      rax, rax                                      ;\\Mac\Home\Documents\Studium\6. Semester\Bachelorarbeit\Code\PerformanceTests\Enclave\PerformanceTests_t.c:420.3
$LN1270:
        jne       .B7.26        ; Prob 50%                      ;\\Mac\Home\Documents\Studium\6. Semester\Bachelorarbeit\Code\PerformanceTests\Enclave\PerformanceTests_t.c:420.3
$LN1271:
                                ; LOE rbp rsp r12 r13 r14 r15 rip zmm6 zmm7 zmm8 zmm9 zmm10 zmm11 zmm12 zmm13 zmm14 zmm15
.B7.25::                        ; Preds .B7.24
                                ; Execution count [0.00e+000]
$LN1272:

;;; 			status = SGX_ERROR_OUT_OF_MEMORY;

        mov       DWORD PTR [rbp], 3                            ;\\Mac\Home\Documents\Studium\6. Semester\Bachelorarbeit\Code\PerformanceTests\Enclave\PerformanceTests_t.c:421.4
$LN1273:
        jmp       .B7.29        ; Prob 100%                     ;\\Mac\Home\Documents\Studium\6. Semester\Bachelorarbeit\Code\PerformanceTests\Enclave\PerformanceTests_t.c:421.4
$LN1274:
                                ; LOE rbp rsp r12 r13 r14 r15 rip zmm6 zmm7 zmm8 zmm9 zmm10 zmm11 zmm12 zmm13 zmm14 zmm15
.B7.26::                        ; Preds .B7.24
                                ; Execution count [0.00e+000]
$LN1275:

;;; 			goto err;
;;; 		}
;;; 
;;; 		memset((void*)_in_out, 0, _len_out);

        mov       rax, QWORD PTR [80+rbp]                       ;\\Mac\Home\Documents\Studium\6. Semester\Bachelorarbeit\Code\PerformanceTests\Enclave\PerformanceTests_t.c:425.3
$LN1276:
        mov       edx, 0                                        ;\\Mac\Home\Documents\Studium\6. Semester\Bachelorarbeit\Code\PerformanceTests\Enclave\PerformanceTests_t.c:425.3
$LN1277:
        mov       rcx, QWORD PTR [72+rbp]                       ;\\Mac\Home\Documents\Studium\6. Semester\Bachelorarbeit\Code\PerformanceTests\Enclave\PerformanceTests_t.c:425.3
$LN1278:
        mov       rdi, rax                                      ;\\Mac\Home\Documents\Studium\6. Semester\Bachelorarbeit\Code\PerformanceTests\Enclave\PerformanceTests_t.c:425.3
$LN1279:
        mov       eax, edx                                      ;\\Mac\Home\Documents\Studium\6. Semester\Bachelorarbeit\Code\PerformanceTests\Enclave\PerformanceTests_t.c:425.3
$LN1280:
        and       eax, 65535                                    ;\\Mac\Home\Documents\Studium\6. Semester\Bachelorarbeit\Code\PerformanceTests\Enclave\PerformanceTests_t.c:425.3
$LN1281:
        mov       ah, al                                        ;\\Mac\Home\Documents\Studium\6. Semester\Bachelorarbeit\Code\PerformanceTests\Enclave\PerformanceTests_t.c:425.3
$LN1282:
        mov       edx, eax                                      ;\\Mac\Home\Documents\Studium\6. Semester\Bachelorarbeit\Code\PerformanceTests\Enclave\PerformanceTests_t.c:425.3
$LN1283:
        shl       eax, 16                                       ;\\Mac\Home\Documents\Studium\6. Semester\Bachelorarbeit\Code\PerformanceTests\Enclave\PerformanceTests_t.c:425.3
$LN1284:
        or        eax, edx                                      ;\\Mac\Home\Documents\Studium\6. Semester\Bachelorarbeit\Code\PerformanceTests\Enclave\PerformanceTests_t.c:425.3
$LN1285:
        mov       esi, ecx                                      ;\\Mac\Home\Documents\Studium\6. Semester\Bachelorarbeit\Code\PerformanceTests\Enclave\PerformanceTests_t.c:425.3
$LN1286:
        shr       rcx, 2                                        ;\\Mac\Home\Documents\Studium\6. Semester\Bachelorarbeit\Code\PerformanceTests\Enclave\PerformanceTests_t.c:425.3
$LN1287:
        mov       rdx, rdi                                      ;\\Mac\Home\Documents\Studium\6. Semester\Bachelorarbeit\Code\PerformanceTests\Enclave\PerformanceTests_t.c:425.3
$LN1288:
        rep   stosd                                             ;\\Mac\Home\Documents\Studium\6. Semester\Bachelorarbeit\Code\PerformanceTests\Enclave\PerformanceTests_t.c:425.3
$LN1289:
        mov       ecx, esi                                      ;\\Mac\Home\Documents\Studium\6. Semester\Bachelorarbeit\Code\PerformanceTests\Enclave\PerformanceTests_t.c:425.3
$LN1290:
        and       ecx, 3                                        ;\\Mac\Home\Documents\Studium\6. Semester\Bachelorarbeit\Code\PerformanceTests\Enclave\PerformanceTests_t.c:425.3
$LN1291:
        rep   stosb                                             ;\\Mac\Home\Documents\Studium\6. Semester\Bachelorarbeit\Code\PerformanceTests\Enclave\PerformanceTests_t.c:425.3
$LN1292:
        mov       rax, rdx                                      ;\\Mac\Home\Documents\Studium\6. Semester\Bachelorarbeit\Code\PerformanceTests\Enclave\PerformanceTests_t.c:425.3
$LN1293:
                                ; LOE rax rbp rsp r12 r13 r14 r15 rip zmm6 zmm7 zmm8 zmm9 zmm10 zmm11 zmm12 zmm13 zmm14 zmm15
.B7.43::                        ; Preds .B7.26
                                ; Execution count [0.00e+000]
$LN1294:
        mov       QWORD PTR [128+rbp], rax                      ;\\Mac\Home\Documents\Studium\6. Semester\Bachelorarbeit\Code\PerformanceTests\Enclave\PerformanceTests_t.c:425.3
$LN1295:
                                ; LOE rbp rsp r12 r13 r14 r15 rip zmm6 zmm7 zmm8 zmm9 zmm10 zmm11 zmm12 zmm13 zmm14 zmm15
.B7.27::                        ; Preds .B7.43 .B7.22
                                ; Execution count [0.00e+000]
$LN1296:

;;; 	}
;;; 	ms->ms_retval = enclaveRunLengthEncode(_in_in, _tmp_inLength, _in_out, _tmp_outLength);

        mov       rax, QWORD PTR [48+rbp]                       ;\\Mac\Home\Documents\Studium\6. Semester\Bachelorarbeit\Code\PerformanceTests\Enclave\PerformanceTests_t.c:427.2
$LN1297:
        mov       rdx, QWORD PTR [32+rbp]                       ;\\Mac\Home\Documents\Studium\6. Semester\Bachelorarbeit\Code\PerformanceTests\Enclave\PerformanceTests_t.c:427.2
$LN1298:
        mov       rcx, QWORD PTR [80+rbp]                       ;\\Mac\Home\Documents\Studium\6. Semester\Bachelorarbeit\Code\PerformanceTests\Enclave\PerformanceTests_t.c:427.2
$LN1299:
        mov       rbx, QWORD PTR [64+rbp]                       ;\\Mac\Home\Documents\Studium\6. Semester\Bachelorarbeit\Code\PerformanceTests\Enclave\PerformanceTests_t.c:427.2
$LN1300:
        mov       QWORD PTR [144+rbp], rcx                      ;\\Mac\Home\Documents\Studium\6. Semester\Bachelorarbeit\Code\PerformanceTests\Enclave\PerformanceTests_t.c:427.2[spill]
$LN1301:
        mov       rcx, rax                                      ;\\Mac\Home\Documents\Studium\6. Semester\Bachelorarbeit\Code\PerformanceTests\Enclave\PerformanceTests_t.c:427.2
$LN1302:
        mov       rax, QWORD PTR [144+rbp]                      ;\\Mac\Home\Documents\Studium\6. Semester\Bachelorarbeit\Code\PerformanceTests\Enclave\PerformanceTests_t.c:427.2[spill]
$LN1303:
        mov       r8, rax                                       ;\\Mac\Home\Documents\Studium\6. Semester\Bachelorarbeit\Code\PerformanceTests\Enclave\PerformanceTests_t.c:427.2
$LN1304:
        mov       r9, rbx                                       ;\\Mac\Home\Documents\Studium\6. Semester\Bachelorarbeit\Code\PerformanceTests\Enclave\PerformanceTests_t.c:427.2
$LN1305:
;       enclaveRunLengthEncode(uint8_t *, size_t, uint8_t *, size_t)
        call      enclaveRunLengthEncode                        ;\\Mac\Home\Documents\Studium\6. Semester\Bachelorarbeit\Code\PerformanceTests\Enclave\PerformanceTests_t.c:427.2
$LN1306:
                                ; LOE rax rbp rsp r12 r13 r14 r15 rip zmm6 zmm7 zmm8 zmm9 zmm10 zmm11 zmm12 zmm13 zmm14 zmm15
.B7.44::                        ; Preds .B7.27
                                ; Execution count [0.00e+000]
$LN1307:
        mov       QWORD PTR [104+rbp], rax                      ;\\Mac\Home\Documents\Studium\6. Semester\Bachelorarbeit\Code\PerformanceTests\Enclave\PerformanceTests_t.c:427.2
$LN1308:
                                ; LOE rbp rsp r12 r13 r14 r15 rip zmm6 zmm7 zmm8 zmm9 zmm10 zmm11 zmm12 zmm13 zmm14 zmm15
.B7.28::                        ; Preds .B7.44
                                ; Execution count [0.00e+000]
$LN1309:
        mov       rax, QWORD PTR [16+rbp]                       ;\\Mac\Home\Documents\Studium\6. Semester\Bachelorarbeit\Code\PerformanceTests\Enclave\PerformanceTests_t.c:427.2
$LN1310:
        mov       rdx, QWORD PTR [104+rbp]                      ;\\Mac\Home\Documents\Studium\6. Semester\Bachelorarbeit\Code\PerformanceTests\Enclave\PerformanceTests_t.c:427.2
$LN1311:
        mov       QWORD PTR [rax], rdx                          ;\\Mac\Home\Documents\Studium\6. Semester\Bachelorarbeit\Code\PerformanceTests\Enclave\PerformanceTests_t.c:427.2
$LN1312:
                                ; LOE rbp rsp r12 r13 r14 r15 rip zmm6 zmm7 zmm8 zmm9 zmm10 zmm11 zmm12 zmm13 zmm14 zmm15
.B7.29::                        ; Preds .B7.28 .B7.25 .B7.20
                                ; Execution count [0.00e+000]
$LN1313:

;;; err:
;;; 	if (_in_in) free(_in_in);

        mov       rax, QWORD PTR [48+rbp]                       ;\\Mac\Home\Documents\Studium\6. Semester\Bachelorarbeit\Code\PerformanceTests\Enclave\PerformanceTests_t.c:429.2
$LN1314:
        test      rax, rax                                      ;\\Mac\Home\Documents\Studium\6. Semester\Bachelorarbeit\Code\PerformanceTests\Enclave\PerformanceTests_t.c:429.2
$LN1315:
        je        .B7.31        ; Prob 50%                      ;\\Mac\Home\Documents\Studium\6. Semester\Bachelorarbeit\Code\PerformanceTests\Enclave\PerformanceTests_t.c:429.2
$LN1316:
                                ; LOE rbp rsp r12 r13 r14 r15 rip zmm6 zmm7 zmm8 zmm9 zmm10 zmm11 zmm12 zmm13 zmm14 zmm15
.B7.30::                        ; Preds .B7.29
                                ; Execution count [0.00e+000]
$LN1317:
        mov       rax, QWORD PTR [48+rbp]                       ;\\Mac\Home\Documents\Studium\6. Semester\Bachelorarbeit\Code\PerformanceTests\Enclave\PerformanceTests_t.c:429.14
$LN1318:
        mov       rcx, rax                                      ;\\Mac\Home\Documents\Studium\6. Semester\Bachelorarbeit\Code\PerformanceTests\Enclave\PerformanceTests_t.c:429.14
$LN1319:
;       free(void *)
        call      free                                          ;\\Mac\Home\Documents\Studium\6. Semester\Bachelorarbeit\Code\PerformanceTests\Enclave\PerformanceTests_t.c:429.14
$LN1320:
                                ; LOE rbp rsp r12 r13 r14 r15 rip zmm6 zmm7 zmm8 zmm9 zmm10 zmm11 zmm12 zmm13 zmm14 zmm15
.B7.45::                        ; Preds .B7.30
                                ; Execution count [0.00e+000]
$LN1321:
                                ; LOE rbp rsp r12 r13 r14 r15 rip zmm6 zmm7 zmm8 zmm9 zmm10 zmm11 zmm12 zmm13 zmm14 zmm15
.B7.31::                        ; Preds .B7.45 .B7.29
                                ; Execution count [0.00e+000]
$LN1322:

;;; 	if (_in_out) {

        mov       rax, QWORD PTR [80+rbp]                       ;\\Mac\Home\Documents\Studium\6. Semester\Bachelorarbeit\Code\PerformanceTests\Enclave\PerformanceTests_t.c:430.2
$LN1323:
        test      rax, rax                                      ;\\Mac\Home\Documents\Studium\6. Semester\Bachelorarbeit\Code\PerformanceTests\Enclave\PerformanceTests_t.c:430.2
$LN1324:
        je        .B7.34        ; Prob 50%                      ;\\Mac\Home\Documents\Studium\6. Semester\Bachelorarbeit\Code\PerformanceTests\Enclave\PerformanceTests_t.c:430.2
$LN1325:
                                ; LOE rbp rsp r12 r13 r14 r15 rip zmm6 zmm7 zmm8 zmm9 zmm10 zmm11 zmm12 zmm13 zmm14 zmm15
.B7.32::                        ; Preds .B7.31
                                ; Execution count [0.00e+000]
$LN1326:

;;; 		memcpy(_tmp_out, _in_out, _len_out);

        mov       rax, QWORD PTR [56+rbp]                       ;\\Mac\Home\Documents\Studium\6. Semester\Bachelorarbeit\Code\PerformanceTests\Enclave\PerformanceTests_t.c:431.3
$LN1327:
        mov       rdx, QWORD PTR [80+rbp]                       ;\\Mac\Home\Documents\Studium\6. Semester\Bachelorarbeit\Code\PerformanceTests\Enclave\PerformanceTests_t.c:431.3
$LN1328:
        mov       rcx, QWORD PTR [72+rbp]                       ;\\Mac\Home\Documents\Studium\6. Semester\Bachelorarbeit\Code\PerformanceTests\Enclave\PerformanceTests_t.c:431.3
$LN1329:
        mov       rdi, rax                                      ;\\Mac\Home\Documents\Studium\6. Semester\Bachelorarbeit\Code\PerformanceTests\Enclave\PerformanceTests_t.c:431.3
$LN1330:
        mov       rsi, rdx                                      ;\\Mac\Home\Documents\Studium\6. Semester\Bachelorarbeit\Code\PerformanceTests\Enclave\PerformanceTests_t.c:431.3
$LN1331:
        mov       rdx, rdi                                      ;\\Mac\Home\Documents\Studium\6. Semester\Bachelorarbeit\Code\PerformanceTests\Enclave\PerformanceTests_t.c:431.3
$LN1332:
        mov       eax, ecx                                      ;\\Mac\Home\Documents\Studium\6. Semester\Bachelorarbeit\Code\PerformanceTests\Enclave\PerformanceTests_t.c:431.3
$LN1333:
        shr       rcx, 2                                        ;\\Mac\Home\Documents\Studium\6. Semester\Bachelorarbeit\Code\PerformanceTests\Enclave\PerformanceTests_t.c:431.3
$LN1334:
        rep   movsd                                             ;\\Mac\Home\Documents\Studium\6. Semester\Bachelorarbeit\Code\PerformanceTests\Enclave\PerformanceTests_t.c:431.3
$LN1335:
        mov       ecx, eax                                      ;\\Mac\Home\Documents\Studium\6. Semester\Bachelorarbeit\Code\PerformanceTests\Enclave\PerformanceTests_t.c:431.3
$LN1336:
        and       ecx, 3                                        ;\\Mac\Home\Documents\Studium\6. Semester\Bachelorarbeit\Code\PerformanceTests\Enclave\PerformanceTests_t.c:431.3
$LN1337:
        rep   movsb                                             ;\\Mac\Home\Documents\Studium\6. Semester\Bachelorarbeit\Code\PerformanceTests\Enclave\PerformanceTests_t.c:431.3
$LN1338:
        mov       rax, rdx                                      ;\\Mac\Home\Documents\Studium\6. Semester\Bachelorarbeit\Code\PerformanceTests\Enclave\PerformanceTests_t.c:431.3
$LN1339:
                                ; LOE rax rbp rsp r12 r13 r14 r15 rip zmm6 zmm7 zmm8 zmm9 zmm10 zmm11 zmm12 zmm13 zmm14 zmm15
.B7.46::                        ; Preds .B7.32
                                ; Execution count [0.00e+000]
$LN1340:
        mov       QWORD PTR [136+rbp], rax                      ;\\Mac\Home\Documents\Studium\6. Semester\Bachelorarbeit\Code\PerformanceTests\Enclave\PerformanceTests_t.c:431.3
$LN1341:
                                ; LOE rbp rsp r12 r13 r14 r15 rip zmm6 zmm7 zmm8 zmm9 zmm10 zmm11 zmm12 zmm13 zmm14 zmm15
.B7.33::                        ; Preds .B7.46
                                ; Execution count [0.00e+000]
$LN1342:

;;; 		free(_in_out);

        mov       rax, QWORD PTR [80+rbp]                       ;\\Mac\Home\Documents\Studium\6. Semester\Bachelorarbeit\Code\PerformanceTests\Enclave\PerformanceTests_t.c:432.3
$LN1343:
        mov       rcx, rax                                      ;\\Mac\Home\Documents\Studium\6. Semester\Bachelorarbeit\Code\PerformanceTests\Enclave\PerformanceTests_t.c:432.3
$LN1344:
;       free(void *)
        call      free                                          ;\\Mac\Home\Documents\Studium\6. Semester\Bachelorarbeit\Code\PerformanceTests\Enclave\PerformanceTests_t.c:432.3
$LN1345:
                                ; LOE rbp rsp r12 r13 r14 r15 rip zmm6 zmm7 zmm8 zmm9 zmm10 zmm11 zmm12 zmm13 zmm14 zmm15
.B7.47::                        ; Preds .B7.33
                                ; Execution count [0.00e+000]
$LN1346:
                                ; LOE rbp rsp r12 r13 r14 r15 rip zmm6 zmm7 zmm8 zmm9 zmm10 zmm11 zmm12 zmm13 zmm14 zmm15
.B7.34::                        ; Preds .B7.47 .B7.31
                                ; Execution count [0.00e+000]
$LN1347:

;;; 	}
;;; 
;;; 	return status;

        mov       eax, DWORD PTR [rbp]                          ;\\Mac\Home\Documents\Studium\6. Semester\Bachelorarbeit\Code\PerformanceTests\Enclave\PerformanceTests_t.c:435.2
$LN1348:
        mov       rbx, QWORD PTR [152+rbp]                      ;\\Mac\Home\Documents\Studium\6. Semester\Bachelorarbeit\Code\PerformanceTests\Enclave\PerformanceTests_t.c:435.2[spill]
$LN1349:
        mov       rsi, QWORD PTR [160+rbp]                      ;\\Mac\Home\Documents\Studium\6. Semester\Bachelorarbeit\Code\PerformanceTests\Enclave\PerformanceTests_t.c:435.2[spill]
$LN1350:
        mov       rdi, QWORD PTR [168+rbp]                      ;\\Mac\Home\Documents\Studium\6. Semester\Bachelorarbeit\Code\PerformanceTests\Enclave\PerformanceTests_t.c:435.2[spill]
$LN1351:
        lea       rsp, QWORD PTR [176+rbp]                      ;\\Mac\Home\Documents\Studium\6. Semester\Bachelorarbeit\Code\PerformanceTests\Enclave\PerformanceTests_t.c:435.2
$LN1352:
        pop       rbp                                           ;\\Mac\Home\Documents\Studium\6. Semester\Bachelorarbeit\Code\PerformanceTests\Enclave\PerformanceTests_t.c:435.2
$LN1353:
        ret                                                     ;\\Mac\Home\Documents\Studium\6. Semester\Bachelorarbeit\Code\PerformanceTests\Enclave\PerformanceTests_t.c:435.2
$LN1354:
                                ; LOE
.B7.35::
$LN1355:
; mark_end;
sgx_enclaveRunLengthEncode ENDP
$LNsgx_enclaveRunLengthEncode$1356:
_TEXT	ENDS
.xdata	SEGMENT  DWORD   READ  ''
	ALIGN 004H
.unwind.sgx_enclaveRunLengthEncode.B1_B34	DD	621421057
	DD	1520674
	DD	1598491
	DD	1668116
	DD	17302285
	DD	1342242842
.xdata	ENDS
.pdata	SEGMENT  DWORD   READ  ''
	ALIGN 004H
.pdata.sgx_enclaveRunLengthEncode.B1_B34	DD	imagerel .B7.1
	DD	imagerel .B7.35
	DD	imagerel .unwind.sgx_enclaveRunLengthEncode.B1_B34
.pdata	ENDS
_DATA	SEGMENT      'DATA'
_DATA	ENDS
; -- End  sgx_enclaveRunLengthEncode
_TEXT	SEGMENT      'CODE'
_2__routine_start_sgx_enclaveRunLengthDecode_7:
; -- Begin  sgx_enclaveRunLengthDecode
_TEXT	ENDS
_TEXT	SEGMENT      'CODE'
; mark_begin;

; --- sgx_enclaveRunLengthDecode(void *)
sgx_enclaveRunLengthDecode	PROC PRIVATE
; parameter 1(pms): rcx
.B8.1::                         ; Preds .B8.0
                                ; Execution count [0.00e+000]

;;; {

L61::
                                                          ;\\Mac\Home\Documents\Studium\6. Semester\Bachelorarbeit\Code\PerformanceTests\Enclave\PerformanceTests_t.c:439.1
$LN1357:
        push      rbp                                           ;\\Mac\Home\Documents\Studium\6. Semester\Bachelorarbeit\Code\PerformanceTests\Enclave\PerformanceTests_t.c:439.1
$LN1358:
        sub       rsp, 208                                      ;\\Mac\Home\Documents\Studium\6. Semester\Bachelorarbeit\Code\PerformanceTests\Enclave\PerformanceTests_t.c:439.1
$LN1359:
        lea       rbp, QWORD PTR [32+rsp]                       ;\\Mac\Home\Documents\Studium\6. Semester\Bachelorarbeit\Code\PerformanceTests\Enclave\PerformanceTests_t.c:439.1
$LN1360:
        mov       QWORD PTR [168+rbp], rdi                      ;\\Mac\Home\Documents\Studium\6. Semester\Bachelorarbeit\Code\PerformanceTests\Enclave\PerformanceTests_t.c:439.1[spill]
$LN1361:
        mov       QWORD PTR [160+rbp], rsi                      ;\\Mac\Home\Documents\Studium\6. Semester\Bachelorarbeit\Code\PerformanceTests\Enclave\PerformanceTests_t.c:439.1[spill]
$LN1362:
        mov       QWORD PTR [152+rbp], rbx                      ;\\Mac\Home\Documents\Studium\6. Semester\Bachelorarbeit\Code\PerformanceTests\Enclave\PerformanceTests_t.c:439.1[spill]
$LN1363:
        mov       QWORD PTR [192+rbp], rcx                      ;\\Mac\Home\Documents\Studium\6. Semester\Bachelorarbeit\Code\PerformanceTests\Enclave\PerformanceTests_t.c:439.1
$LN1364:

;;; 	ms_enclaveRunLengthDecode_t* ms = SGX_CAST(ms_enclaveRunLengthDecode_t*, pms);

        mov       rax, QWORD PTR [192+rbp]                      ;\\Mac\Home\Documents\Studium\6. Semester\Bachelorarbeit\Code\PerformanceTests\Enclave\PerformanceTests_t.c:440.34
$LN1365:
        mov       QWORD PTR [16+rbp], rax                       ;\\Mac\Home\Documents\Studium\6. Semester\Bachelorarbeit\Code\PerformanceTests\Enclave\PerformanceTests_t.c:440.34
$LN1366:

;;; 	sgx_status_t status = SGX_SUCCESS;

        mov       DWORD PTR [rbp], 0                            ;\\Mac\Home\Documents\Studium\6. Semester\Bachelorarbeit\Code\PerformanceTests\Enclave\PerformanceTests_t.c:441.22
$LN1367:

;;; 	uint8_t* _tmp_in = ms->ms_in;

        mov       rax, QWORD PTR [16+rbp]                       ;\\Mac\Home\Documents\Studium\6. Semester\Bachelorarbeit\Code\PerformanceTests\Enclave\PerformanceTests_t.c:442.19
$LN1368:
        mov       rax, QWORD PTR [8+rax]                        ;\\Mac\Home\Documents\Studium\6. Semester\Bachelorarbeit\Code\PerformanceTests\Enclave\PerformanceTests_t.c:442.19
$LN1369:
        mov       QWORD PTR [24+rbp], rax                       ;\\Mac\Home\Documents\Studium\6. Semester\Bachelorarbeit\Code\PerformanceTests\Enclave\PerformanceTests_t.c:442.19
$LN1370:

;;; 	size_t _tmp_inLength = ms->ms_inLength;

        mov       rax, QWORD PTR [16+rbp]                       ;\\Mac\Home\Documents\Studium\6. Semester\Bachelorarbeit\Code\PerformanceTests\Enclave\PerformanceTests_t.c:443.23
$LN1371:
        mov       rax, QWORD PTR [16+rax]                       ;\\Mac\Home\Documents\Studium\6. Semester\Bachelorarbeit\Code\PerformanceTests\Enclave\PerformanceTests_t.c:443.23
$LN1372:
        mov       QWORD PTR [32+rbp], rax                       ;\\Mac\Home\Documents\Studium\6. Semester\Bachelorarbeit\Code\PerformanceTests\Enclave\PerformanceTests_t.c:443.23
$LN1373:

;;; 	size_t _len_in = _tmp_inLength;

        mov       rax, QWORD PTR [32+rbp]                       ;\\Mac\Home\Documents\Studium\6. Semester\Bachelorarbeit\Code\PerformanceTests\Enclave\PerformanceTests_t.c:444.17
$LN1374:
        mov       QWORD PTR [40+rbp], rax                       ;\\Mac\Home\Documents\Studium\6. Semester\Bachelorarbeit\Code\PerformanceTests\Enclave\PerformanceTests_t.c:444.17
$LN1375:

;;; 	uint8_t* _in_in = NULL;

        mov       QWORD PTR [48+rbp], 0                         ;\\Mac\Home\Documents\Studium\6. Semester\Bachelorarbeit\Code\PerformanceTests\Enclave\PerformanceTests_t.c:445.18
$LN1376:

;;; 	uint8_t* _tmp_out = ms->ms_out;

        mov       rax, QWORD PTR [16+rbp]                       ;\\Mac\Home\Documents\Studium\6. Semester\Bachelorarbeit\Code\PerformanceTests\Enclave\PerformanceTests_t.c:446.20
$LN1377:
        mov       rax, QWORD PTR [24+rax]                       ;\\Mac\Home\Documents\Studium\6. Semester\Bachelorarbeit\Code\PerformanceTests\Enclave\PerformanceTests_t.c:446.20
$LN1378:
        mov       QWORD PTR [56+rbp], rax                       ;\\Mac\Home\Documents\Studium\6. Semester\Bachelorarbeit\Code\PerformanceTests\Enclave\PerformanceTests_t.c:446.20
$LN1379:

;;; 	size_t _tmp_outLength = ms->ms_outLength;

        mov       rax, QWORD PTR [16+rbp]                       ;\\Mac\Home\Documents\Studium\6. Semester\Bachelorarbeit\Code\PerformanceTests\Enclave\PerformanceTests_t.c:447.24
$LN1380:
        mov       rax, QWORD PTR [32+rax]                       ;\\Mac\Home\Documents\Studium\6. Semester\Bachelorarbeit\Code\PerformanceTests\Enclave\PerformanceTests_t.c:447.24
$LN1381:
        mov       QWORD PTR [64+rbp], rax                       ;\\Mac\Home\Documents\Studium\6. Semester\Bachelorarbeit\Code\PerformanceTests\Enclave\PerformanceTests_t.c:447.24
$LN1382:

;;; 	size_t _len_out = _tmp_outLength;

        mov       rax, QWORD PTR [64+rbp]                       ;\\Mac\Home\Documents\Studium\6. Semester\Bachelorarbeit\Code\PerformanceTests\Enclave\PerformanceTests_t.c:448.18
$LN1383:
        mov       QWORD PTR [72+rbp], rax                       ;\\Mac\Home\Documents\Studium\6. Semester\Bachelorarbeit\Code\PerformanceTests\Enclave\PerformanceTests_t.c:448.18
$LN1384:

;;; 	uint8_t* _in_out = NULL;

        mov       QWORD PTR [80+rbp], 0                         ;\\Mac\Home\Documents\Studium\6. Semester\Bachelorarbeit\Code\PerformanceTests\Enclave\PerformanceTests_t.c:449.19
$LN1385:
                                ; LOE rbp rsp r12 r13 r14 r15 rip zmm6 zmm7 zmm8 zmm9 zmm10 zmm11 zmm12 zmm13 zmm14 zmm15
.B8.2::                         ; Preds .B8.5 .B8.1
                                ; Execution count [0.00e+000]
$LN1386:

;;; 
;;; 	CHECK_REF_POINTER(pms, sizeof(ms_enclaveRunLengthDecode_t));

        mov       rax, QWORD PTR [192+rbp]                      ;\\Mac\Home\Documents\Studium\6. Semester\Bachelorarbeit\Code\PerformanceTests\Enclave\PerformanceTests_t.c:451.2
$LN1387:
        test      rax, rax                                      ;\\Mac\Home\Documents\Studium\6. Semester\Bachelorarbeit\Code\PerformanceTests\Enclave\PerformanceTests_t.c:451.2
$LN1388:
        je        .B8.6         ; Prob 50%                      ;\\Mac\Home\Documents\Studium\6. Semester\Bachelorarbeit\Code\PerformanceTests\Enclave\PerformanceTests_t.c:451.2
$LN1389:
                                ; LOE rbp rsp r12 r13 r14 r15 rip zmm6 zmm7 zmm8 zmm9 zmm10 zmm11 zmm12 zmm13 zmm14 zmm15
.B8.3::                         ; Preds .B8.2
                                ; Execution count [0.00e+000]
$LN1390:
        mov       rax, QWORD PTR [192+rbp]                      ;\\Mac\Home\Documents\Studium\6. Semester\Bachelorarbeit\Code\PerformanceTests\Enclave\PerformanceTests_t.c:451.2
$LN1391:
        mov       edx, 40                                       ;\\Mac\Home\Documents\Studium\6. Semester\Bachelorarbeit\Code\PerformanceTests\Enclave\PerformanceTests_t.c:451.2
$LN1392:
        mov       rcx, rax                                      ;\\Mac\Home\Documents\Studium\6. Semester\Bachelorarbeit\Code\PerformanceTests\Enclave\PerformanceTests_t.c:451.2
$LN1393:
;       sgx_is_outside_enclave(const void *, size_t)
        call      sgx_is_outside_enclave                        ;\\Mac\Home\Documents\Studium\6. Semester\Bachelorarbeit\Code\PerformanceTests\Enclave\PerformanceTests_t.c:451.2
$LN1394:
                                ; LOE rbp rsp r12 r13 r14 r15 rip eax zmm6 zmm7 zmm8 zmm9 zmm10 zmm11 zmm12 zmm13 zmm14 zmm15
.B8.37::                        ; Preds .B8.3
                                ; Execution count [0.00e+000]
$LN1395:
        mov       DWORD PTR [4+rbp], eax                        ;\\Mac\Home\Documents\Studium\6. Semester\Bachelorarbeit\Code\PerformanceTests\Enclave\PerformanceTests_t.c:451.2
$LN1396:
                                ; LOE rbp rsp r12 r13 r14 r15 rip zmm6 zmm7 zmm8 zmm9 zmm10 zmm11 zmm12 zmm13 zmm14 zmm15
.B8.4::                         ; Preds .B8.37
                                ; Execution count [0.00e+000]
$LN1397:
        mov       eax, DWORD PTR [4+rbp]                        ;\\Mac\Home\Documents\Studium\6. Semester\Bachelorarbeit\Code\PerformanceTests\Enclave\PerformanceTests_t.c:451.2
$LN1398:
        test      eax, eax                                      ;\\Mac\Home\Documents\Studium\6. Semester\Bachelorarbeit\Code\PerformanceTests\Enclave\PerformanceTests_t.c:451.2
$LN1399:
        je        .B8.6         ; Prob 50%                      ;\\Mac\Home\Documents\Studium\6. Semester\Bachelorarbeit\Code\PerformanceTests\Enclave\PerformanceTests_t.c:451.2
$LN1400:
                                ; LOE rbp rsp r12 r13 r14 r15 rip zmm6 zmm7 zmm8 zmm9 zmm10 zmm11 zmm12 zmm13 zmm14 zmm15
.B8.5::                         ; Preds .B8.4
                                ; Execution count [0.00e+000]
$LN1401:
        mov       eax, 0                                        ;\\Mac\Home\Documents\Studium\6. Semester\Bachelorarbeit\Code\PerformanceTests\Enclave\PerformanceTests_t.c:451.2
$LN1402:
        test      eax, eax                                      ;\\Mac\Home\Documents\Studium\6. Semester\Bachelorarbeit\Code\PerformanceTests\Enclave\PerformanceTests_t.c:451.2
$LN1403:
        jne       .B8.2         ; Prob 0%                       ;\\Mac\Home\Documents\Studium\6. Semester\Bachelorarbeit\Code\PerformanceTests\Enclave\PerformanceTests_t.c:451.2
$LN1404:
        jmp       .B8.7         ; Prob 100%                     ;\\Mac\Home\Documents\Studium\6. Semester\Bachelorarbeit\Code\PerformanceTests\Enclave\PerformanceTests_t.c:451.2
$LN1405:
                                ; LOE rbp rsp r12 r13 r14 r15 rip zmm6 zmm7 zmm8 zmm9 zmm10 zmm11 zmm12 zmm13 zmm14 zmm15
.B8.6::                         ; Preds .B8.2 .B8.4
                                ; Execution count [0.00e+000]
$LN1406:
        mov       eax, 2                                        ;\\Mac\Home\Documents\Studium\6. Semester\Bachelorarbeit\Code\PerformanceTests\Enclave\PerformanceTests_t.c:451.2
$LN1407:
        mov       rbx, QWORD PTR [152+rbp]                      ;\\Mac\Home\Documents\Studium\6. Semester\Bachelorarbeit\Code\PerformanceTests\Enclave\PerformanceTests_t.c:451.2[spill]
$LN1408:
        mov       rsi, QWORD PTR [160+rbp]                      ;\\Mac\Home\Documents\Studium\6. Semester\Bachelorarbeit\Code\PerformanceTests\Enclave\PerformanceTests_t.c:451.2[spill]
$LN1409:
        mov       rdi, QWORD PTR [168+rbp]                      ;\\Mac\Home\Documents\Studium\6. Semester\Bachelorarbeit\Code\PerformanceTests\Enclave\PerformanceTests_t.c:451.2[spill]
$LN1410:
        lea       rsp, QWORD PTR [176+rbp]                      ;\\Mac\Home\Documents\Studium\6. Semester\Bachelorarbeit\Code\PerformanceTests\Enclave\PerformanceTests_t.c:451.2
$LN1411:
        pop       rbp                                           ;\\Mac\Home\Documents\Studium\6. Semester\Bachelorarbeit\Code\PerformanceTests\Enclave\PerformanceTests_t.c:451.2
$LN1412:
        ret                                                     ;\\Mac\Home\Documents\Studium\6. Semester\Bachelorarbeit\Code\PerformanceTests\Enclave\PerformanceTests_t.c:451.2
$LN1413:
                                ; LOE
.B8.7::                         ; Preds .B8.10 .B8.5
                                ; Execution count [0.00e+000]
$LN1414:

;;; 	CHECK_UNIQUE_POINTER(_tmp_in, _len_in);

        mov       rax, QWORD PTR [24+rbp]                       ;\\Mac\Home\Documents\Studium\6. Semester\Bachelorarbeit\Code\PerformanceTests\Enclave\PerformanceTests_t.c:452.2
$LN1415:
        test      rax, rax                                      ;\\Mac\Home\Documents\Studium\6. Semester\Bachelorarbeit\Code\PerformanceTests\Enclave\PerformanceTests_t.c:452.2
$LN1416:
        je        .B8.10        ; Prob 50%                      ;\\Mac\Home\Documents\Studium\6. Semester\Bachelorarbeit\Code\PerformanceTests\Enclave\PerformanceTests_t.c:452.2
$LN1417:
                                ; LOE rbp rsp r12 r13 r14 r15 rip zmm6 zmm7 zmm8 zmm9 zmm10 zmm11 zmm12 zmm13 zmm14 zmm15
.B8.8::                         ; Preds .B8.7
                                ; Execution count [0.00e+000]
$LN1418:
        mov       rax, QWORD PTR [24+rbp]                       ;\\Mac\Home\Documents\Studium\6. Semester\Bachelorarbeit\Code\PerformanceTests\Enclave\PerformanceTests_t.c:452.2
$LN1419:
        mov       rdx, QWORD PTR [40+rbp]                       ;\\Mac\Home\Documents\Studium\6. Semester\Bachelorarbeit\Code\PerformanceTests\Enclave\PerformanceTests_t.c:452.2
$LN1420:
        mov       rcx, rax                                      ;\\Mac\Home\Documents\Studium\6. Semester\Bachelorarbeit\Code\PerformanceTests\Enclave\PerformanceTests_t.c:452.2
$LN1421:
;       sgx_is_outside_enclave(const void *, size_t)
        call      sgx_is_outside_enclave                        ;\\Mac\Home\Documents\Studium\6. Semester\Bachelorarbeit\Code\PerformanceTests\Enclave\PerformanceTests_t.c:452.2
$LN1422:
                                ; LOE rbp rsp r12 r13 r14 r15 rip eax zmm6 zmm7 zmm8 zmm9 zmm10 zmm11 zmm12 zmm13 zmm14 zmm15
.B8.38::                        ; Preds .B8.8
                                ; Execution count [0.00e+000]
$LN1423:
        mov       DWORD PTR [8+rbp], eax                        ;\\Mac\Home\Documents\Studium\6. Semester\Bachelorarbeit\Code\PerformanceTests\Enclave\PerformanceTests_t.c:452.2
$LN1424:
                                ; LOE rbp rsp r12 r13 r14 r15 rip zmm6 zmm7 zmm8 zmm9 zmm10 zmm11 zmm12 zmm13 zmm14 zmm15
.B8.9::                         ; Preds .B8.38
                                ; Execution count [0.00e+000]
$LN1425:
        mov       eax, DWORD PTR [8+rbp]                        ;\\Mac\Home\Documents\Studium\6. Semester\Bachelorarbeit\Code\PerformanceTests\Enclave\PerformanceTests_t.c:452.2
$LN1426:
        test      eax, eax                                      ;\\Mac\Home\Documents\Studium\6. Semester\Bachelorarbeit\Code\PerformanceTests\Enclave\PerformanceTests_t.c:452.2
$LN1427:
        je        .B8.11        ; Prob 50%                      ;\\Mac\Home\Documents\Studium\6. Semester\Bachelorarbeit\Code\PerformanceTests\Enclave\PerformanceTests_t.c:452.2
$LN1428:
                                ; LOE rbp rsp r12 r13 r14 r15 rip zmm6 zmm7 zmm8 zmm9 zmm10 zmm11 zmm12 zmm13 zmm14 zmm15
.B8.10::                        ; Preds .B8.9 .B8.7
                                ; Execution count [0.00e+000]
$LN1429:
        mov       eax, 0                                        ;\\Mac\Home\Documents\Studium\6. Semester\Bachelorarbeit\Code\PerformanceTests\Enclave\PerformanceTests_t.c:452.2
$LN1430:
        test      eax, eax                                      ;\\Mac\Home\Documents\Studium\6. Semester\Bachelorarbeit\Code\PerformanceTests\Enclave\PerformanceTests_t.c:452.2
$LN1431:
        jne       .B8.7         ; Prob 0%                       ;\\Mac\Home\Documents\Studium\6. Semester\Bachelorarbeit\Code\PerformanceTests\Enclave\PerformanceTests_t.c:452.2
$LN1432:
        jmp       .B8.12        ; Prob 100%                     ;\\Mac\Home\Documents\Studium\6. Semester\Bachelorarbeit\Code\PerformanceTests\Enclave\PerformanceTests_t.c:452.2
$LN1433:
                                ; LOE rbp rsp r12 r13 r14 r15 rip zmm6 zmm7 zmm8 zmm9 zmm10 zmm11 zmm12 zmm13 zmm14 zmm15
.B8.11::                        ; Preds .B8.9
                                ; Execution count [0.00e+000]
$LN1434:
        mov       eax, 2                                        ;\\Mac\Home\Documents\Studium\6. Semester\Bachelorarbeit\Code\PerformanceTests\Enclave\PerformanceTests_t.c:452.2
$LN1435:
        mov       rbx, QWORD PTR [152+rbp]                      ;\\Mac\Home\Documents\Studium\6. Semester\Bachelorarbeit\Code\PerformanceTests\Enclave\PerformanceTests_t.c:452.2[spill]
$LN1436:
        mov       rsi, QWORD PTR [160+rbp]                      ;\\Mac\Home\Documents\Studium\6. Semester\Bachelorarbeit\Code\PerformanceTests\Enclave\PerformanceTests_t.c:452.2[spill]
$LN1437:
        mov       rdi, QWORD PTR [168+rbp]                      ;\\Mac\Home\Documents\Studium\6. Semester\Bachelorarbeit\Code\PerformanceTests\Enclave\PerformanceTests_t.c:452.2[spill]
$LN1438:
        lea       rsp, QWORD PTR [176+rbp]                      ;\\Mac\Home\Documents\Studium\6. Semester\Bachelorarbeit\Code\PerformanceTests\Enclave\PerformanceTests_t.c:452.2
$LN1439:
        pop       rbp                                           ;\\Mac\Home\Documents\Studium\6. Semester\Bachelorarbeit\Code\PerformanceTests\Enclave\PerformanceTests_t.c:452.2
$LN1440:
        ret                                                     ;\\Mac\Home\Documents\Studium\6. Semester\Bachelorarbeit\Code\PerformanceTests\Enclave\PerformanceTests_t.c:452.2
$LN1441:
                                ; LOE
.B8.12::                        ; Preds .B8.15 .B8.10
                                ; Execution count [0.00e+000]
$LN1442:

;;; 	CHECK_UNIQUE_POINTER(_tmp_out, _len_out);

        mov       rax, QWORD PTR [56+rbp]                       ;\\Mac\Home\Documents\Studium\6. Semester\Bachelorarbeit\Code\PerformanceTests\Enclave\PerformanceTests_t.c:453.2
$LN1443:
        test      rax, rax                                      ;\\Mac\Home\Documents\Studium\6. Semester\Bachelorarbeit\Code\PerformanceTests\Enclave\PerformanceTests_t.c:453.2
$LN1444:
        je        .B8.15        ; Prob 50%                      ;\\Mac\Home\Documents\Studium\6. Semester\Bachelorarbeit\Code\PerformanceTests\Enclave\PerformanceTests_t.c:453.2
$LN1445:
                                ; LOE rbp rsp r12 r13 r14 r15 rip zmm6 zmm7 zmm8 zmm9 zmm10 zmm11 zmm12 zmm13 zmm14 zmm15
.B8.13::                        ; Preds .B8.12
                                ; Execution count [0.00e+000]
$LN1446:
        mov       rax, QWORD PTR [56+rbp]                       ;\\Mac\Home\Documents\Studium\6. Semester\Bachelorarbeit\Code\PerformanceTests\Enclave\PerformanceTests_t.c:453.2
$LN1447:
        mov       rdx, QWORD PTR [72+rbp]                       ;\\Mac\Home\Documents\Studium\6. Semester\Bachelorarbeit\Code\PerformanceTests\Enclave\PerformanceTests_t.c:453.2
$LN1448:
        mov       rcx, rax                                      ;\\Mac\Home\Documents\Studium\6. Semester\Bachelorarbeit\Code\PerformanceTests\Enclave\PerformanceTests_t.c:453.2
$LN1449:
;       sgx_is_outside_enclave(const void *, size_t)
        call      sgx_is_outside_enclave                        ;\\Mac\Home\Documents\Studium\6. Semester\Bachelorarbeit\Code\PerformanceTests\Enclave\PerformanceTests_t.c:453.2
$LN1450:
                                ; LOE rbp rsp r12 r13 r14 r15 rip eax zmm6 zmm7 zmm8 zmm9 zmm10 zmm11 zmm12 zmm13 zmm14 zmm15
.B8.39::                        ; Preds .B8.13
                                ; Execution count [0.00e+000]
$LN1451:
        mov       DWORD PTR [12+rbp], eax                       ;\\Mac\Home\Documents\Studium\6. Semester\Bachelorarbeit\Code\PerformanceTests\Enclave\PerformanceTests_t.c:453.2
$LN1452:
                                ; LOE rbp rsp r12 r13 r14 r15 rip zmm6 zmm7 zmm8 zmm9 zmm10 zmm11 zmm12 zmm13 zmm14 zmm15
.B8.14::                        ; Preds .B8.39
                                ; Execution count [0.00e+000]
$LN1453:
        mov       eax, DWORD PTR [12+rbp]                       ;\\Mac\Home\Documents\Studium\6. Semester\Bachelorarbeit\Code\PerformanceTests\Enclave\PerformanceTests_t.c:453.2
$LN1454:
        test      eax, eax                                      ;\\Mac\Home\Documents\Studium\6. Semester\Bachelorarbeit\Code\PerformanceTests\Enclave\PerformanceTests_t.c:453.2
$LN1455:
        je        .B8.16        ; Prob 50%                      ;\\Mac\Home\Documents\Studium\6. Semester\Bachelorarbeit\Code\PerformanceTests\Enclave\PerformanceTests_t.c:453.2
$LN1456:
                                ; LOE rbp rsp r12 r13 r14 r15 rip zmm6 zmm7 zmm8 zmm9 zmm10 zmm11 zmm12 zmm13 zmm14 zmm15
.B8.15::                        ; Preds .B8.14 .B8.12
                                ; Execution count [0.00e+000]
$LN1457:
        mov       eax, 0                                        ;\\Mac\Home\Documents\Studium\6. Semester\Bachelorarbeit\Code\PerformanceTests\Enclave\PerformanceTests_t.c:453.2
$LN1458:
        test      eax, eax                                      ;\\Mac\Home\Documents\Studium\6. Semester\Bachelorarbeit\Code\PerformanceTests\Enclave\PerformanceTests_t.c:453.2
$LN1459:
        jne       .B8.12        ; Prob 0%                       ;\\Mac\Home\Documents\Studium\6. Semester\Bachelorarbeit\Code\PerformanceTests\Enclave\PerformanceTests_t.c:453.2
$LN1460:
        jmp       .B8.17        ; Prob 100%                     ;\\Mac\Home\Documents\Studium\6. Semester\Bachelorarbeit\Code\PerformanceTests\Enclave\PerformanceTests_t.c:453.2
$LN1461:
                                ; LOE rbp rsp r12 r13 r14 r15 rip zmm6 zmm7 zmm8 zmm9 zmm10 zmm11 zmm12 zmm13 zmm14 zmm15
.B8.16::                        ; Preds .B8.14
                                ; Execution count [0.00e+000]
$LN1462:
        mov       eax, 2                                        ;\\Mac\Home\Documents\Studium\6. Semester\Bachelorarbeit\Code\PerformanceTests\Enclave\PerformanceTests_t.c:453.2
$LN1463:
        mov       rbx, QWORD PTR [152+rbp]                      ;\\Mac\Home\Documents\Studium\6. Semester\Bachelorarbeit\Code\PerformanceTests\Enclave\PerformanceTests_t.c:453.2[spill]
$LN1464:
        mov       rsi, QWORD PTR [160+rbp]                      ;\\Mac\Home\Documents\Studium\6. Semester\Bachelorarbeit\Code\PerformanceTests\Enclave\PerformanceTests_t.c:453.2[spill]
$LN1465:
        mov       rdi, QWORD PTR [168+rbp]                      ;\\Mac\Home\Documents\Studium\6. Semester\Bachelorarbeit\Code\PerformanceTests\Enclave\PerformanceTests_t.c:453.2[spill]
$LN1466:
        lea       rsp, QWORD PTR [176+rbp]                      ;\\Mac\Home\Documents\Studium\6. Semester\Bachelorarbeit\Code\PerformanceTests\Enclave\PerformanceTests_t.c:453.2
$LN1467:
        pop       rbp                                           ;\\Mac\Home\Documents\Studium\6. Semester\Bachelorarbeit\Code\PerformanceTests\Enclave\PerformanceTests_t.c:453.2
$LN1468:
        ret                                                     ;\\Mac\Home\Documents\Studium\6. Semester\Bachelorarbeit\Code\PerformanceTests\Enclave\PerformanceTests_t.c:453.2
$LN1469:
                                ; LOE
.B8.17::                        ; Preds .B8.15
                                ; Execution count [0.00e+000]
$LN1470:

;;; 
;;; 	if (_tmp_in != NULL) {

        mov       rax, QWORD PTR [24+rbp]                       ;\\Mac\Home\Documents\Studium\6. Semester\Bachelorarbeit\Code\PerformanceTests\Enclave\PerformanceTests_t.c:455.2
$LN1471:
        test      rax, rax                                      ;\\Mac\Home\Documents\Studium\6. Semester\Bachelorarbeit\Code\PerformanceTests\Enclave\PerformanceTests_t.c:455.2
$LN1472:
        je        .B8.22        ; Prob 50%                      ;\\Mac\Home\Documents\Studium\6. Semester\Bachelorarbeit\Code\PerformanceTests\Enclave\PerformanceTests_t.c:455.2
$LN1473:
                                ; LOE rbp rsp r12 r13 r14 r15 rip zmm6 zmm7 zmm8 zmm9 zmm10 zmm11 zmm12 zmm13 zmm14 zmm15
.B8.18::                        ; Preds .B8.17
                                ; Execution count [0.00e+000]
$LN1474:

;;; 		_in_in = (uint8_t*)malloc(_len_in);

        mov       rax, QWORD PTR [40+rbp]                       ;\\Mac\Home\Documents\Studium\6. Semester\Bachelorarbeit\Code\PerformanceTests\Enclave\PerformanceTests_t.c:456.3
$LN1475:
        mov       rcx, rax                                      ;\\Mac\Home\Documents\Studium\6. Semester\Bachelorarbeit\Code\PerformanceTests\Enclave\PerformanceTests_t.c:456.3
$LN1476:
;       malloc(size_t)
        call      malloc                                        ;\\Mac\Home\Documents\Studium\6. Semester\Bachelorarbeit\Code\PerformanceTests\Enclave\PerformanceTests_t.c:456.3
$LN1477:
                                ; LOE rax rbp rsp r12 r13 r14 r15 rip zmm6 zmm7 zmm8 zmm9 zmm10 zmm11 zmm12 zmm13 zmm14 zmm15
.B8.40::                        ; Preds .B8.18
                                ; Execution count [0.00e+000]
$LN1478:
        mov       QWORD PTR [88+rbp], rax                       ;\\Mac\Home\Documents\Studium\6. Semester\Bachelorarbeit\Code\PerformanceTests\Enclave\PerformanceTests_t.c:456.3
$LN1479:
                                ; LOE rbp rsp r12 r13 r14 r15 rip zmm6 zmm7 zmm8 zmm9 zmm10 zmm11 zmm12 zmm13 zmm14 zmm15
.B8.19::                        ; Preds .B8.40
                                ; Execution count [0.00e+000]
$LN1480:
        mov       rax, QWORD PTR [88+rbp]                       ;\\Mac\Home\Documents\Studium\6. Semester\Bachelorarbeit\Code\PerformanceTests\Enclave\PerformanceTests_t.c:456.3
$LN1481:
        mov       QWORD PTR [48+rbp], rax                       ;\\Mac\Home\Documents\Studium\6. Semester\Bachelorarbeit\Code\PerformanceTests\Enclave\PerformanceTests_t.c:456.3
$LN1482:

;;; 		if (_in_in == NULL) {

        mov       rax, QWORD PTR [48+rbp]                       ;\\Mac\Home\Documents\Studium\6. Semester\Bachelorarbeit\Code\PerformanceTests\Enclave\PerformanceTests_t.c:457.3
$LN1483:
        test      rax, rax                                      ;\\Mac\Home\Documents\Studium\6. Semester\Bachelorarbeit\Code\PerformanceTests\Enclave\PerformanceTests_t.c:457.3
$LN1484:
        jne       .B8.21        ; Prob 50%                      ;\\Mac\Home\Documents\Studium\6. Semester\Bachelorarbeit\Code\PerformanceTests\Enclave\PerformanceTests_t.c:457.3
$LN1485:
                                ; LOE rbp rsp r12 r13 r14 r15 rip zmm6 zmm7 zmm8 zmm9 zmm10 zmm11 zmm12 zmm13 zmm14 zmm15
.B8.20::                        ; Preds .B8.19
                                ; Execution count [0.00e+000]
$LN1486:

;;; 			status = SGX_ERROR_OUT_OF_MEMORY;

        mov       DWORD PTR [rbp], 3                            ;\\Mac\Home\Documents\Studium\6. Semester\Bachelorarbeit\Code\PerformanceTests\Enclave\PerformanceTests_t.c:458.4
$LN1487:
        jmp       .B8.29        ; Prob 100%                     ;\\Mac\Home\Documents\Studium\6. Semester\Bachelorarbeit\Code\PerformanceTests\Enclave\PerformanceTests_t.c:458.4
$LN1488:
                                ; LOE rbp rsp r12 r13 r14 r15 rip zmm6 zmm7 zmm8 zmm9 zmm10 zmm11 zmm12 zmm13 zmm14 zmm15
.B8.21::                        ; Preds .B8.19
                                ; Execution count [0.00e+000]
$LN1489:

;;; 			goto err;
;;; 		}
;;; 
;;; 		memcpy(_in_in, _tmp_in, _len_in);

        mov       rax, QWORD PTR [48+rbp]                       ;\\Mac\Home\Documents\Studium\6. Semester\Bachelorarbeit\Code\PerformanceTests\Enclave\PerformanceTests_t.c:462.3
$LN1490:
        mov       rdx, QWORD PTR [24+rbp]                       ;\\Mac\Home\Documents\Studium\6. Semester\Bachelorarbeit\Code\PerformanceTests\Enclave\PerformanceTests_t.c:462.3
$LN1491:
        mov       rcx, QWORD PTR [40+rbp]                       ;\\Mac\Home\Documents\Studium\6. Semester\Bachelorarbeit\Code\PerformanceTests\Enclave\PerformanceTests_t.c:462.3
$LN1492:
        mov       rdi, rax                                      ;\\Mac\Home\Documents\Studium\6. Semester\Bachelorarbeit\Code\PerformanceTests\Enclave\PerformanceTests_t.c:462.3
$LN1493:
        mov       rsi, rdx                                      ;\\Mac\Home\Documents\Studium\6. Semester\Bachelorarbeit\Code\PerformanceTests\Enclave\PerformanceTests_t.c:462.3
$LN1494:
        mov       rdx, rdi                                      ;\\Mac\Home\Documents\Studium\6. Semester\Bachelorarbeit\Code\PerformanceTests\Enclave\PerformanceTests_t.c:462.3
$LN1495:
        mov       eax, ecx                                      ;\\Mac\Home\Documents\Studium\6. Semester\Bachelorarbeit\Code\PerformanceTests\Enclave\PerformanceTests_t.c:462.3
$LN1496:
        shr       rcx, 2                                        ;\\Mac\Home\Documents\Studium\6. Semester\Bachelorarbeit\Code\PerformanceTests\Enclave\PerformanceTests_t.c:462.3
$LN1497:
        rep   movsd                                             ;\\Mac\Home\Documents\Studium\6. Semester\Bachelorarbeit\Code\PerformanceTests\Enclave\PerformanceTests_t.c:462.3
$LN1498:
        mov       ecx, eax                                      ;\\Mac\Home\Documents\Studium\6. Semester\Bachelorarbeit\Code\PerformanceTests\Enclave\PerformanceTests_t.c:462.3
$LN1499:
        and       ecx, 3                                        ;\\Mac\Home\Documents\Studium\6. Semester\Bachelorarbeit\Code\PerformanceTests\Enclave\PerformanceTests_t.c:462.3
$LN1500:
        rep   movsb                                             ;\\Mac\Home\Documents\Studium\6. Semester\Bachelorarbeit\Code\PerformanceTests\Enclave\PerformanceTests_t.c:462.3
$LN1501:
        mov       rax, rdx                                      ;\\Mac\Home\Documents\Studium\6. Semester\Bachelorarbeit\Code\PerformanceTests\Enclave\PerformanceTests_t.c:462.3
$LN1502:
                                ; LOE rax rbp rsp r12 r13 r14 r15 rip zmm6 zmm7 zmm8 zmm9 zmm10 zmm11 zmm12 zmm13 zmm14 zmm15
.B8.41::                        ; Preds .B8.21
                                ; Execution count [0.00e+000]
$LN1503:
        mov       QWORD PTR [112+rbp], rax                      ;\\Mac\Home\Documents\Studium\6. Semester\Bachelorarbeit\Code\PerformanceTests\Enclave\PerformanceTests_t.c:462.3
$LN1504:
                                ; LOE rbp rsp r12 r13 r14 r15 rip zmm6 zmm7 zmm8 zmm9 zmm10 zmm11 zmm12 zmm13 zmm14 zmm15
.B8.22::                        ; Preds .B8.41 .B8.17
                                ; Execution count [0.00e+000]
$LN1505:

;;; 	}
;;; 	if (_tmp_out != NULL) {

        mov       rax, QWORD PTR [56+rbp]                       ;\\Mac\Home\Documents\Studium\6. Semester\Bachelorarbeit\Code\PerformanceTests\Enclave\PerformanceTests_t.c:464.2
$LN1506:
        test      rax, rax                                      ;\\Mac\Home\Documents\Studium\6. Semester\Bachelorarbeit\Code\PerformanceTests\Enclave\PerformanceTests_t.c:464.2
$LN1507:
        je        .B8.27        ; Prob 50%                      ;\\Mac\Home\Documents\Studium\6. Semester\Bachelorarbeit\Code\PerformanceTests\Enclave\PerformanceTests_t.c:464.2
$LN1508:
                                ; LOE rbp rsp r12 r13 r14 r15 rip zmm6 zmm7 zmm8 zmm9 zmm10 zmm11 zmm12 zmm13 zmm14 zmm15
.B8.23::                        ; Preds .B8.22
                                ; Execution count [0.00e+000]
$LN1509:

;;; 		if ((_in_out = (uint8_t*)malloc(_len_out)) == NULL) {

        mov       rax, QWORD PTR [72+rbp]                       ;\\Mac\Home\Documents\Studium\6. Semester\Bachelorarbeit\Code\PerformanceTests\Enclave\PerformanceTests_t.c:465.3
$LN1510:
        mov       rcx, rax                                      ;\\Mac\Home\Documents\Studium\6. Semester\Bachelorarbeit\Code\PerformanceTests\Enclave\PerformanceTests_t.c:465.3
$LN1511:
;       malloc(size_t)
        call      malloc                                        ;\\Mac\Home\Documents\Studium\6. Semester\Bachelorarbeit\Code\PerformanceTests\Enclave\PerformanceTests_t.c:465.3
$LN1512:
                                ; LOE rax rbp rsp r12 r13 r14 r15 rip zmm6 zmm7 zmm8 zmm9 zmm10 zmm11 zmm12 zmm13 zmm14 zmm15
.B8.42::                        ; Preds .B8.23
                                ; Execution count [0.00e+000]
$LN1513:
        mov       QWORD PTR [96+rbp], rax                       ;\\Mac\Home\Documents\Studium\6. Semester\Bachelorarbeit\Code\PerformanceTests\Enclave\PerformanceTests_t.c:465.3
$LN1514:
                                ; LOE rbp rsp r12 r13 r14 r15 rip zmm6 zmm7 zmm8 zmm9 zmm10 zmm11 zmm12 zmm13 zmm14 zmm15
.B8.24::                        ; Preds .B8.42
                                ; Execution count [0.00e+000]
$LN1515:
        mov       rax, QWORD PTR [96+rbp]                       ;\\Mac\Home\Documents\Studium\6. Semester\Bachelorarbeit\Code\PerformanceTests\Enclave\PerformanceTests_t.c:465.3
$LN1516:
        mov       QWORD PTR [120+rbp], rax                      ;\\Mac\Home\Documents\Studium\6. Semester\Bachelorarbeit\Code\PerformanceTests\Enclave\PerformanceTests_t.c:465.3
$LN1517:
        mov       rax, QWORD PTR [120+rbp]                      ;\\Mac\Home\Documents\Studium\6. Semester\Bachelorarbeit\Code\PerformanceTests\Enclave\PerformanceTests_t.c:465.3
$LN1518:
        mov       QWORD PTR [80+rbp], rax                       ;\\Mac\Home\Documents\Studium\6. Semester\Bachelorarbeit\Code\PerformanceTests\Enclave\PerformanceTests_t.c:465.3
$LN1519:
        mov       rax, QWORD PTR [120+rbp]                      ;\\Mac\Home\Documents\Studium\6. Semester\Bachelorarbeit\Code\PerformanceTests\Enclave\PerformanceTests_t.c:465.3
$LN1520:
        test      rax, rax                                      ;\\Mac\Home\Documents\Studium\6. Semester\Bachelorarbeit\Code\PerformanceTests\Enclave\PerformanceTests_t.c:465.3
$LN1521:
        jne       .B8.26        ; Prob 50%                      ;\\Mac\Home\Documents\Studium\6. Semester\Bachelorarbeit\Code\PerformanceTests\Enclave\PerformanceTests_t.c:465.3
$LN1522:
                                ; LOE rbp rsp r12 r13 r14 r15 rip zmm6 zmm7 zmm8 zmm9 zmm10 zmm11 zmm12 zmm13 zmm14 zmm15
.B8.25::                        ; Preds .B8.24
                                ; Execution count [0.00e+000]
$LN1523:

;;; 			status = SGX_ERROR_OUT_OF_MEMORY;

        mov       DWORD PTR [rbp], 3                            ;\\Mac\Home\Documents\Studium\6. Semester\Bachelorarbeit\Code\PerformanceTests\Enclave\PerformanceTests_t.c:466.4
$LN1524:
        jmp       .B8.29        ; Prob 100%                     ;\\Mac\Home\Documents\Studium\6. Semester\Bachelorarbeit\Code\PerformanceTests\Enclave\PerformanceTests_t.c:466.4
$LN1525:
                                ; LOE rbp rsp r12 r13 r14 r15 rip zmm6 zmm7 zmm8 zmm9 zmm10 zmm11 zmm12 zmm13 zmm14 zmm15
.B8.26::                        ; Preds .B8.24
                                ; Execution count [0.00e+000]
$LN1526:

;;; 			goto err;
;;; 		}
;;; 
;;; 		memset((void*)_in_out, 0, _len_out);

        mov       rax, QWORD PTR [80+rbp]                       ;\\Mac\Home\Documents\Studium\6. Semester\Bachelorarbeit\Code\PerformanceTests\Enclave\PerformanceTests_t.c:470.3
$LN1527:
        mov       edx, 0                                        ;\\Mac\Home\Documents\Studium\6. Semester\Bachelorarbeit\Code\PerformanceTests\Enclave\PerformanceTests_t.c:470.3
$LN1528:
        mov       rcx, QWORD PTR [72+rbp]                       ;\\Mac\Home\Documents\Studium\6. Semester\Bachelorarbeit\Code\PerformanceTests\Enclave\PerformanceTests_t.c:470.3
$LN1529:
        mov       rdi, rax                                      ;\\Mac\Home\Documents\Studium\6. Semester\Bachelorarbeit\Code\PerformanceTests\Enclave\PerformanceTests_t.c:470.3
$LN1530:
        mov       eax, edx                                      ;\\Mac\Home\Documents\Studium\6. Semester\Bachelorarbeit\Code\PerformanceTests\Enclave\PerformanceTests_t.c:470.3
$LN1531:
        and       eax, 65535                                    ;\\Mac\Home\Documents\Studium\6. Semester\Bachelorarbeit\Code\PerformanceTests\Enclave\PerformanceTests_t.c:470.3
$LN1532:
        mov       ah, al                                        ;\\Mac\Home\Documents\Studium\6. Semester\Bachelorarbeit\Code\PerformanceTests\Enclave\PerformanceTests_t.c:470.3
$LN1533:
        mov       edx, eax                                      ;\\Mac\Home\Documents\Studium\6. Semester\Bachelorarbeit\Code\PerformanceTests\Enclave\PerformanceTests_t.c:470.3
$LN1534:
        shl       eax, 16                                       ;\\Mac\Home\Documents\Studium\6. Semester\Bachelorarbeit\Code\PerformanceTests\Enclave\PerformanceTests_t.c:470.3
$LN1535:
        or        eax, edx                                      ;\\Mac\Home\Documents\Studium\6. Semester\Bachelorarbeit\Code\PerformanceTests\Enclave\PerformanceTests_t.c:470.3
$LN1536:
        mov       esi, ecx                                      ;\\Mac\Home\Documents\Studium\6. Semester\Bachelorarbeit\Code\PerformanceTests\Enclave\PerformanceTests_t.c:470.3
$LN1537:
        shr       rcx, 2                                        ;\\Mac\Home\Documents\Studium\6. Semester\Bachelorarbeit\Code\PerformanceTests\Enclave\PerformanceTests_t.c:470.3
$LN1538:
        mov       rdx, rdi                                      ;\\Mac\Home\Documents\Studium\6. Semester\Bachelorarbeit\Code\PerformanceTests\Enclave\PerformanceTests_t.c:470.3
$LN1539:
        rep   stosd                                             ;\\Mac\Home\Documents\Studium\6. Semester\Bachelorarbeit\Code\PerformanceTests\Enclave\PerformanceTests_t.c:470.3
$LN1540:
        mov       ecx, esi                                      ;\\Mac\Home\Documents\Studium\6. Semester\Bachelorarbeit\Code\PerformanceTests\Enclave\PerformanceTests_t.c:470.3
$LN1541:
        and       ecx, 3                                        ;\\Mac\Home\Documents\Studium\6. Semester\Bachelorarbeit\Code\PerformanceTests\Enclave\PerformanceTests_t.c:470.3
$LN1542:
        rep   stosb                                             ;\\Mac\Home\Documents\Studium\6. Semester\Bachelorarbeit\Code\PerformanceTests\Enclave\PerformanceTests_t.c:470.3
$LN1543:
        mov       rax, rdx                                      ;\\Mac\Home\Documents\Studium\6. Semester\Bachelorarbeit\Code\PerformanceTests\Enclave\PerformanceTests_t.c:470.3
$LN1544:
                                ; LOE rax rbp rsp r12 r13 r14 r15 rip zmm6 zmm7 zmm8 zmm9 zmm10 zmm11 zmm12 zmm13 zmm14 zmm15
.B8.43::                        ; Preds .B8.26
                                ; Execution count [0.00e+000]
$LN1545:
        mov       QWORD PTR [128+rbp], rax                      ;\\Mac\Home\Documents\Studium\6. Semester\Bachelorarbeit\Code\PerformanceTests\Enclave\PerformanceTests_t.c:470.3
$LN1546:
                                ; LOE rbp rsp r12 r13 r14 r15 rip zmm6 zmm7 zmm8 zmm9 zmm10 zmm11 zmm12 zmm13 zmm14 zmm15
.B8.27::                        ; Preds .B8.43 .B8.22
                                ; Execution count [0.00e+000]
$LN1547:

;;; 	}
;;; 	ms->ms_retval = enclaveRunLengthDecode(_in_in, _tmp_inLength, _in_out, _tmp_outLength);

        mov       rax, QWORD PTR [48+rbp]                       ;\\Mac\Home\Documents\Studium\6. Semester\Bachelorarbeit\Code\PerformanceTests\Enclave\PerformanceTests_t.c:472.2
$LN1548:
        mov       rdx, QWORD PTR [32+rbp]                       ;\\Mac\Home\Documents\Studium\6. Semester\Bachelorarbeit\Code\PerformanceTests\Enclave\PerformanceTests_t.c:472.2
$LN1549:
        mov       rcx, QWORD PTR [80+rbp]                       ;\\Mac\Home\Documents\Studium\6. Semester\Bachelorarbeit\Code\PerformanceTests\Enclave\PerformanceTests_t.c:472.2
$LN1550:
        mov       rbx, QWORD PTR [64+rbp]                       ;\\Mac\Home\Documents\Studium\6. Semester\Bachelorarbeit\Code\PerformanceTests\Enclave\PerformanceTests_t.c:472.2
$LN1551:
        mov       QWORD PTR [144+rbp], rcx                      ;\\Mac\Home\Documents\Studium\6. Semester\Bachelorarbeit\Code\PerformanceTests\Enclave\PerformanceTests_t.c:472.2[spill]
$LN1552:
        mov       rcx, rax                                      ;\\Mac\Home\Documents\Studium\6. Semester\Bachelorarbeit\Code\PerformanceTests\Enclave\PerformanceTests_t.c:472.2
$LN1553:
        mov       rax, QWORD PTR [144+rbp]                      ;\\Mac\Home\Documents\Studium\6. Semester\Bachelorarbeit\Code\PerformanceTests\Enclave\PerformanceTests_t.c:472.2[spill]
$LN1554:
        mov       r8, rax                                       ;\\Mac\Home\Documents\Studium\6. Semester\Bachelorarbeit\Code\PerformanceTests\Enclave\PerformanceTests_t.c:472.2
$LN1555:
        mov       r9, rbx                                       ;\\Mac\Home\Documents\Studium\6. Semester\Bachelorarbeit\Code\PerformanceTests\Enclave\PerformanceTests_t.c:472.2
$LN1556:
;       enclaveRunLengthDecode(uint8_t *, size_t, uint8_t *, size_t)
        call      enclaveRunLengthDecode                        ;\\Mac\Home\Documents\Studium\6. Semester\Bachelorarbeit\Code\PerformanceTests\Enclave\PerformanceTests_t.c:472.2
$LN1557:
                                ; LOE rax rbp rsp r12 r13 r14 r15 rip zmm6 zmm7 zmm8 zmm9 zmm10 zmm11 zmm12 zmm13 zmm14 zmm15
.B8.44::                        ; Preds .B8.27
                                ; Execution count [0.00e+000]
$LN1558:
        mov       QWORD PTR [104+rbp], rax                      ;\\Mac\Home\Documents\Studium\6. Semester\Bachelorarbeit\Code\PerformanceTests\Enclave\PerformanceTests_t.c:472.2
$LN1559:
                                ; LOE rbp rsp r12 r13 r14 r15 rip zmm6 zmm7 zmm8 zmm9 zmm10 zmm11 zmm12 zmm13 zmm14 zmm15
.B8.28::                        ; Preds .B8.44
                                ; Execution count [0.00e+000]
$LN1560:
        mov       rax, QWORD PTR [16+rbp]                       ;\\Mac\Home\Documents\Studium\6. Semester\Bachelorarbeit\Code\PerformanceTests\Enclave\PerformanceTests_t.c:472.2
$LN1561:
        mov       rdx, QWORD PTR [104+rbp]                      ;\\Mac\Home\Documents\Studium\6. Semester\Bachelorarbeit\Code\PerformanceTests\Enclave\PerformanceTests_t.c:472.2
$LN1562:
        mov       QWORD PTR [rax], rdx                          ;\\Mac\Home\Documents\Studium\6. Semester\Bachelorarbeit\Code\PerformanceTests\Enclave\PerformanceTests_t.c:472.2
$LN1563:
                                ; LOE rbp rsp r12 r13 r14 r15 rip zmm6 zmm7 zmm8 zmm9 zmm10 zmm11 zmm12 zmm13 zmm14 zmm15
.B8.29::                        ; Preds .B8.28 .B8.25 .B8.20
                                ; Execution count [0.00e+000]
$LN1564:

;;; err:
;;; 	if (_in_in) free(_in_in);

        mov       rax, QWORD PTR [48+rbp]                       ;\\Mac\Home\Documents\Studium\6. Semester\Bachelorarbeit\Code\PerformanceTests\Enclave\PerformanceTests_t.c:474.2
$LN1565:
        test      rax, rax                                      ;\\Mac\Home\Documents\Studium\6. Semester\Bachelorarbeit\Code\PerformanceTests\Enclave\PerformanceTests_t.c:474.2
$LN1566:
        je        .B8.31        ; Prob 50%                      ;\\Mac\Home\Documents\Studium\6. Semester\Bachelorarbeit\Code\PerformanceTests\Enclave\PerformanceTests_t.c:474.2
$LN1567:
                                ; LOE rbp rsp r12 r13 r14 r15 rip zmm6 zmm7 zmm8 zmm9 zmm10 zmm11 zmm12 zmm13 zmm14 zmm15
.B8.30::                        ; Preds .B8.29
                                ; Execution count [0.00e+000]
$LN1568:
        mov       rax, QWORD PTR [48+rbp]                       ;\\Mac\Home\Documents\Studium\6. Semester\Bachelorarbeit\Code\PerformanceTests\Enclave\PerformanceTests_t.c:474.14
$LN1569:
        mov       rcx, rax                                      ;\\Mac\Home\Documents\Studium\6. Semester\Bachelorarbeit\Code\PerformanceTests\Enclave\PerformanceTests_t.c:474.14
$LN1570:
;       free(void *)
        call      free                                          ;\\Mac\Home\Documents\Studium\6. Semester\Bachelorarbeit\Code\PerformanceTests\Enclave\PerformanceTests_t.c:474.14
$LN1571:
                                ; LOE rbp rsp r12 r13 r14 r15 rip zmm6 zmm7 zmm8 zmm9 zmm10 zmm11 zmm12 zmm13 zmm14 zmm15
.B8.45::                        ; Preds .B8.30
                                ; Execution count [0.00e+000]
$LN1572:
                                ; LOE rbp rsp r12 r13 r14 r15 rip zmm6 zmm7 zmm8 zmm9 zmm10 zmm11 zmm12 zmm13 zmm14 zmm15
.B8.31::                        ; Preds .B8.45 .B8.29
                                ; Execution count [0.00e+000]
$LN1573:

;;; 	if (_in_out) {

        mov       rax, QWORD PTR [80+rbp]                       ;\\Mac\Home\Documents\Studium\6. Semester\Bachelorarbeit\Code\PerformanceTests\Enclave\PerformanceTests_t.c:475.2
$LN1574:
        test      rax, rax                                      ;\\Mac\Home\Documents\Studium\6. Semester\Bachelorarbeit\Code\PerformanceTests\Enclave\PerformanceTests_t.c:475.2
$LN1575:
        je        .B8.34        ; Prob 50%                      ;\\Mac\Home\Documents\Studium\6. Semester\Bachelorarbeit\Code\PerformanceTests\Enclave\PerformanceTests_t.c:475.2
$LN1576:
                                ; LOE rbp rsp r12 r13 r14 r15 rip zmm6 zmm7 zmm8 zmm9 zmm10 zmm11 zmm12 zmm13 zmm14 zmm15
.B8.32::                        ; Preds .B8.31
                                ; Execution count [0.00e+000]
$LN1577:

;;; 		memcpy(_tmp_out, _in_out, _len_out);

        mov       rax, QWORD PTR [56+rbp]                       ;\\Mac\Home\Documents\Studium\6. Semester\Bachelorarbeit\Code\PerformanceTests\Enclave\PerformanceTests_t.c:476.3
$LN1578:
        mov       rdx, QWORD PTR [80+rbp]                       ;\\Mac\Home\Documents\Studium\6. Semester\Bachelorarbeit\Code\PerformanceTests\Enclave\PerformanceTests_t.c:476.3
$LN1579:
        mov       rcx, QWORD PTR [72+rbp]                       ;\\Mac\Home\Documents\Studium\6. Semester\Bachelorarbeit\Code\PerformanceTests\Enclave\PerformanceTests_t.c:476.3
$LN1580:
        mov       rdi, rax                                      ;\\Mac\Home\Documents\Studium\6. Semester\Bachelorarbeit\Code\PerformanceTests\Enclave\PerformanceTests_t.c:476.3
$LN1581:
        mov       rsi, rdx                                      ;\\Mac\Home\Documents\Studium\6. Semester\Bachelorarbeit\Code\PerformanceTests\Enclave\PerformanceTests_t.c:476.3
$LN1582:
        mov       rdx, rdi                                      ;\\Mac\Home\Documents\Studium\6. Semester\Bachelorarbeit\Code\PerformanceTests\Enclave\PerformanceTests_t.c:476.3
$LN1583:
        mov       eax, ecx                                      ;\\Mac\Home\Documents\Studium\6. Semester\Bachelorarbeit\Code\PerformanceTests\Enclave\PerformanceTests_t.c:476.3
$LN1584:
        shr       rcx, 2                                        ;\\Mac\Home\Documents\Studium\6. Semester\Bachelorarbeit\Code\PerformanceTests\Enclave\PerformanceTests_t.c:476.3
$LN1585:
        rep   movsd                                             ;\\Mac\Home\Documents\Studium\6. Semester\Bachelorarbeit\Code\PerformanceTests\Enclave\PerformanceTests_t.c:476.3
$LN1586:
        mov       ecx, eax                                      ;\\Mac\Home\Documents\Studium\6. Semester\Bachelorarbeit\Code\PerformanceTests\Enclave\PerformanceTests_t.c:476.3
$LN1587:
        and       ecx, 3                                        ;\\Mac\Home\Documents\Studium\6. Semester\Bachelorarbeit\Code\PerformanceTests\Enclave\PerformanceTests_t.c:476.3
$LN1588:
        rep   movsb                                             ;\\Mac\Home\Documents\Studium\6. Semester\Bachelorarbeit\Code\PerformanceTests\Enclave\PerformanceTests_t.c:476.3
$LN1589:
        mov       rax, rdx                                      ;\\Mac\Home\Documents\Studium\6. Semester\Bachelorarbeit\Code\PerformanceTests\Enclave\PerformanceTests_t.c:476.3
$LN1590:
                                ; LOE rax rbp rsp r12 r13 r14 r15 rip zmm6 zmm7 zmm8 zmm9 zmm10 zmm11 zmm12 zmm13 zmm14 zmm15
.B8.46::                        ; Preds .B8.32
                                ; Execution count [0.00e+000]
$LN1591:
        mov       QWORD PTR [136+rbp], rax                      ;\\Mac\Home\Documents\Studium\6. Semester\Bachelorarbeit\Code\PerformanceTests\Enclave\PerformanceTests_t.c:476.3
$LN1592:
                                ; LOE rbp rsp r12 r13 r14 r15 rip zmm6 zmm7 zmm8 zmm9 zmm10 zmm11 zmm12 zmm13 zmm14 zmm15
.B8.33::                        ; Preds .B8.46
                                ; Execution count [0.00e+000]
$LN1593:

;;; 		free(_in_out);

        mov       rax, QWORD PTR [80+rbp]                       ;\\Mac\Home\Documents\Studium\6. Semester\Bachelorarbeit\Code\PerformanceTests\Enclave\PerformanceTests_t.c:477.3
$LN1594:
        mov       rcx, rax                                      ;\\Mac\Home\Documents\Studium\6. Semester\Bachelorarbeit\Code\PerformanceTests\Enclave\PerformanceTests_t.c:477.3
$LN1595:
;       free(void *)
        call      free                                          ;\\Mac\Home\Documents\Studium\6. Semester\Bachelorarbeit\Code\PerformanceTests\Enclave\PerformanceTests_t.c:477.3
$LN1596:
                                ; LOE rbp rsp r12 r13 r14 r15 rip zmm6 zmm7 zmm8 zmm9 zmm10 zmm11 zmm12 zmm13 zmm14 zmm15
.B8.47::                        ; Preds .B8.33
                                ; Execution count [0.00e+000]
$LN1597:
                                ; LOE rbp rsp r12 r13 r14 r15 rip zmm6 zmm7 zmm8 zmm9 zmm10 zmm11 zmm12 zmm13 zmm14 zmm15
.B8.34::                        ; Preds .B8.47 .B8.31
                                ; Execution count [0.00e+000]
$LN1598:

;;; 	}
;;; 
;;; 	return status;

        mov       eax, DWORD PTR [rbp]                          ;\\Mac\Home\Documents\Studium\6. Semester\Bachelorarbeit\Code\PerformanceTests\Enclave\PerformanceTests_t.c:480.2
$LN1599:
        mov       rbx, QWORD PTR [152+rbp]                      ;\\Mac\Home\Documents\Studium\6. Semester\Bachelorarbeit\Code\PerformanceTests\Enclave\PerformanceTests_t.c:480.2[spill]
$LN1600:
        mov       rsi, QWORD PTR [160+rbp]                      ;\\Mac\Home\Documents\Studium\6. Semester\Bachelorarbeit\Code\PerformanceTests\Enclave\PerformanceTests_t.c:480.2[spill]
$LN1601:
        mov       rdi, QWORD PTR [168+rbp]                      ;\\Mac\Home\Documents\Studium\6. Semester\Bachelorarbeit\Code\PerformanceTests\Enclave\PerformanceTests_t.c:480.2[spill]
$LN1602:
        lea       rsp, QWORD PTR [176+rbp]                      ;\\Mac\Home\Documents\Studium\6. Semester\Bachelorarbeit\Code\PerformanceTests\Enclave\PerformanceTests_t.c:480.2
$LN1603:
        pop       rbp                                           ;\\Mac\Home\Documents\Studium\6. Semester\Bachelorarbeit\Code\PerformanceTests\Enclave\PerformanceTests_t.c:480.2
$LN1604:
        ret                                                     ;\\Mac\Home\Documents\Studium\6. Semester\Bachelorarbeit\Code\PerformanceTests\Enclave\PerformanceTests_t.c:480.2
$LN1605:
                                ; LOE
.B8.35::
$LN1606:
; mark_end;
sgx_enclaveRunLengthDecode ENDP
$LNsgx_enclaveRunLengthDecode$1607:
_TEXT	ENDS
.xdata	SEGMENT  DWORD   READ  ''
	ALIGN 004H
.unwind.sgx_enclaveRunLengthDecode.B1_B34	DD	621421057
	DD	1520674
	DD	1598491
	DD	1668116
	DD	17302285
	DD	1342242842
.xdata	ENDS
.pdata	SEGMENT  DWORD   READ  ''
	ALIGN 004H
.pdata.sgx_enclaveRunLengthDecode.B1_B34	DD	imagerel .B8.1
	DD	imagerel .B8.35
	DD	imagerel .unwind.sgx_enclaveRunLengthDecode.B1_B34
.pdata	ENDS
_DATA	SEGMENT      'DATA'
_DATA	ENDS
; -- End  sgx_enclaveRunLengthDecode
_TEXT	SEGMENT      'CODE'
_2__routine_start_sgx_enclaveRunLengthEncodeAndSum_8:
; -- Begin  sgx_enclaveRunLengthEncodeAndSum
_TEXT	ENDS
_TEXT	SEGMENT      'CODE'
; mark_begin;

; --- sgx_enclaveRunLengthEncodeAndSum(void *)
sgx_enclaveRunLengthEncodeAndSum	PROC PRIVATE
; parameter 1(pms): rcx
.B9.1::                         ; Preds .B9.0
                                ; Execution count [0.00e+000]

;;; {

L70::
                                                          ;\\Mac\Home\Documents\Studium\6. Semester\Bachelorarbeit\Code\PerformanceTests\Enclave\PerformanceTests_t.c:484.1
$LN1608:
        push      rbp                                           ;\\Mac\Home\Documents\Studium\6. Semester\Bachelorarbeit\Code\PerformanceTests\Enclave\PerformanceTests_t.c:484.1
$LN1609:
        sub       rsp, 192                                      ;\\Mac\Home\Documents\Studium\6. Semester\Bachelorarbeit\Code\PerformanceTests\Enclave\PerformanceTests_t.c:484.1
$LN1610:
        lea       rbp, QWORD PTR [32+rsp]                       ;\\Mac\Home\Documents\Studium\6. Semester\Bachelorarbeit\Code\PerformanceTests\Enclave\PerformanceTests_t.c:484.1
$LN1611:
        mov       QWORD PTR [152+rbp], rdi                      ;\\Mac\Home\Documents\Studium\6. Semester\Bachelorarbeit\Code\PerformanceTests\Enclave\PerformanceTests_t.c:484.1[spill]
$LN1612:
        mov       QWORD PTR [144+rbp], rsi                      ;\\Mac\Home\Documents\Studium\6. Semester\Bachelorarbeit\Code\PerformanceTests\Enclave\PerformanceTests_t.c:484.1[spill]
$LN1613:
        mov       QWORD PTR [176+rbp], rcx                      ;\\Mac\Home\Documents\Studium\6. Semester\Bachelorarbeit\Code\PerformanceTests\Enclave\PerformanceTests_t.c:484.1
$LN1614:

;;; 	ms_enclaveRunLengthEncodeAndSum_t* ms = SGX_CAST(ms_enclaveRunLengthEncodeAndSum_t*, pms);

        mov       rax, QWORD PTR [176+rbp]                      ;\\Mac\Home\Documents\Studium\6. Semester\Bachelorarbeit\Code\PerformanceTests\Enclave\PerformanceTests_t.c:485.40
$LN1615:
        mov       QWORD PTR [16+rbp], rax                       ;\\Mac\Home\Documents\Studium\6. Semester\Bachelorarbeit\Code\PerformanceTests\Enclave\PerformanceTests_t.c:485.40
$LN1616:

;;; 	sgx_status_t status = SGX_SUCCESS;

        mov       DWORD PTR [rbp], 0                            ;\\Mac\Home\Documents\Studium\6. Semester\Bachelorarbeit\Code\PerformanceTests\Enclave\PerformanceTests_t.c:486.22
$LN1617:

;;; 	uint8_t* _tmp_in = ms->ms_in;

        mov       rax, QWORD PTR [16+rbp]                       ;\\Mac\Home\Documents\Studium\6. Semester\Bachelorarbeit\Code\PerformanceTests\Enclave\PerformanceTests_t.c:487.19
$LN1618:
        mov       rax, QWORD PTR [8+rax]                        ;\\Mac\Home\Documents\Studium\6. Semester\Bachelorarbeit\Code\PerformanceTests\Enclave\PerformanceTests_t.c:487.19
$LN1619:
        mov       QWORD PTR [24+rbp], rax                       ;\\Mac\Home\Documents\Studium\6. Semester\Bachelorarbeit\Code\PerformanceTests\Enclave\PerformanceTests_t.c:487.19
$LN1620:

;;; 	size_t _tmp_length = ms->ms_length;

        mov       rax, QWORD PTR [16+rbp]                       ;\\Mac\Home\Documents\Studium\6. Semester\Bachelorarbeit\Code\PerformanceTests\Enclave\PerformanceTests_t.c:488.21
$LN1621:
        mov       rax, QWORD PTR [16+rax]                       ;\\Mac\Home\Documents\Studium\6. Semester\Bachelorarbeit\Code\PerformanceTests\Enclave\PerformanceTests_t.c:488.21
$LN1622:
        mov       QWORD PTR [32+rbp], rax                       ;\\Mac\Home\Documents\Studium\6. Semester\Bachelorarbeit\Code\PerformanceTests\Enclave\PerformanceTests_t.c:488.21
$LN1623:

;;; 	size_t _len_in = _tmp_length;

        mov       rax, QWORD PTR [32+rbp]                       ;\\Mac\Home\Documents\Studium\6. Semester\Bachelorarbeit\Code\PerformanceTests\Enclave\PerformanceTests_t.c:489.17
$LN1624:
        mov       QWORD PTR [40+rbp], rax                       ;\\Mac\Home\Documents\Studium\6. Semester\Bachelorarbeit\Code\PerformanceTests\Enclave\PerformanceTests_t.c:489.17
$LN1625:

;;; 	uint8_t* _in_in = NULL;

        mov       QWORD PTR [48+rbp], 0                         ;\\Mac\Home\Documents\Studium\6. Semester\Bachelorarbeit\Code\PerformanceTests\Enclave\PerformanceTests_t.c:490.18
$LN1626:

;;; 	uint8_t* _tmp_out = ms->ms_out;

        mov       rax, QWORD PTR [16+rbp]                       ;\\Mac\Home\Documents\Studium\6. Semester\Bachelorarbeit\Code\PerformanceTests\Enclave\PerformanceTests_t.c:491.20
$LN1627:
        mov       rax, QWORD PTR [24+rax]                       ;\\Mac\Home\Documents\Studium\6. Semester\Bachelorarbeit\Code\PerformanceTests\Enclave\PerformanceTests_t.c:491.20
$LN1628:
        mov       QWORD PTR [56+rbp], rax                       ;\\Mac\Home\Documents\Studium\6. Semester\Bachelorarbeit\Code\PerformanceTests\Enclave\PerformanceTests_t.c:491.20
$LN1629:

;;; 	size_t _len_out = 8;

        mov       QWORD PTR [64+rbp], 8                         ;\\Mac\Home\Documents\Studium\6. Semester\Bachelorarbeit\Code\PerformanceTests\Enclave\PerformanceTests_t.c:492.18
$LN1630:

;;; 	uint8_t* _in_out = NULL;

        mov       QWORD PTR [72+rbp], 0                         ;\\Mac\Home\Documents\Studium\6. Semester\Bachelorarbeit\Code\PerformanceTests\Enclave\PerformanceTests_t.c:493.19
$LN1631:
                                ; LOE rbx rbp rsp r12 r13 r14 r15 rip zmm6 zmm7 zmm8 zmm9 zmm10 zmm11 zmm12 zmm13 zmm14 zmm15
.B9.2::                         ; Preds .B9.5 .B9.1
                                ; Execution count [0.00e+000]
$LN1632:

;;; 
;;; 	CHECK_REF_POINTER(pms, sizeof(ms_enclaveRunLengthEncodeAndSum_t));

        mov       rax, QWORD PTR [176+rbp]                      ;\\Mac\Home\Documents\Studium\6. Semester\Bachelorarbeit\Code\PerformanceTests\Enclave\PerformanceTests_t.c:495.2
$LN1633:
        test      rax, rax                                      ;\\Mac\Home\Documents\Studium\6. Semester\Bachelorarbeit\Code\PerformanceTests\Enclave\PerformanceTests_t.c:495.2
$LN1634:
        je        .B9.6         ; Prob 50%                      ;\\Mac\Home\Documents\Studium\6. Semester\Bachelorarbeit\Code\PerformanceTests\Enclave\PerformanceTests_t.c:495.2
$LN1635:
                                ; LOE rbx rbp rsp r12 r13 r14 r15 rip zmm6 zmm7 zmm8 zmm9 zmm10 zmm11 zmm12 zmm13 zmm14 zmm15
.B9.3::                         ; Preds .B9.2
                                ; Execution count [0.00e+000]
$LN1636:
        mov       rax, QWORD PTR [176+rbp]                      ;\\Mac\Home\Documents\Studium\6. Semester\Bachelorarbeit\Code\PerformanceTests\Enclave\PerformanceTests_t.c:495.2
$LN1637:
        mov       edx, 32                                       ;\\Mac\Home\Documents\Studium\6. Semester\Bachelorarbeit\Code\PerformanceTests\Enclave\PerformanceTests_t.c:495.2
$LN1638:
        mov       rcx, rax                                      ;\\Mac\Home\Documents\Studium\6. Semester\Bachelorarbeit\Code\PerformanceTests\Enclave\PerformanceTests_t.c:495.2
$LN1639:
;       sgx_is_outside_enclave(const void *, size_t)
        call      sgx_is_outside_enclave                        ;\\Mac\Home\Documents\Studium\6. Semester\Bachelorarbeit\Code\PerformanceTests\Enclave\PerformanceTests_t.c:495.2
$LN1640:
                                ; LOE rbx rbp rsp r12 r13 r14 r15 rip eax zmm6 zmm7 zmm8 zmm9 zmm10 zmm11 zmm12 zmm13 zmm14 zmm15
.B9.37::                        ; Preds .B9.3
                                ; Execution count [0.00e+000]
$LN1641:
        mov       DWORD PTR [4+rbp], eax                        ;\\Mac\Home\Documents\Studium\6. Semester\Bachelorarbeit\Code\PerformanceTests\Enclave\PerformanceTests_t.c:495.2
$LN1642:
                                ; LOE rbx rbp rsp r12 r13 r14 r15 rip zmm6 zmm7 zmm8 zmm9 zmm10 zmm11 zmm12 zmm13 zmm14 zmm15
.B9.4::                         ; Preds .B9.37
                                ; Execution count [0.00e+000]
$LN1643:
        mov       eax, DWORD PTR [4+rbp]                        ;\\Mac\Home\Documents\Studium\6. Semester\Bachelorarbeit\Code\PerformanceTests\Enclave\PerformanceTests_t.c:495.2
$LN1644:
        test      eax, eax                                      ;\\Mac\Home\Documents\Studium\6. Semester\Bachelorarbeit\Code\PerformanceTests\Enclave\PerformanceTests_t.c:495.2
$LN1645:
        je        .B9.6         ; Prob 50%                      ;\\Mac\Home\Documents\Studium\6. Semester\Bachelorarbeit\Code\PerformanceTests\Enclave\PerformanceTests_t.c:495.2
$LN1646:
                                ; LOE rbx rbp rsp r12 r13 r14 r15 rip zmm6 zmm7 zmm8 zmm9 zmm10 zmm11 zmm12 zmm13 zmm14 zmm15
.B9.5::                         ; Preds .B9.4
                                ; Execution count [0.00e+000]
$LN1647:
        mov       eax, 0                                        ;\\Mac\Home\Documents\Studium\6. Semester\Bachelorarbeit\Code\PerformanceTests\Enclave\PerformanceTests_t.c:495.2
$LN1648:
        test      eax, eax                                      ;\\Mac\Home\Documents\Studium\6. Semester\Bachelorarbeit\Code\PerformanceTests\Enclave\PerformanceTests_t.c:495.2
$LN1649:
        jne       .B9.2         ; Prob 0%                       ;\\Mac\Home\Documents\Studium\6. Semester\Bachelorarbeit\Code\PerformanceTests\Enclave\PerformanceTests_t.c:495.2
$LN1650:
        jmp       .B9.7         ; Prob 100%                     ;\\Mac\Home\Documents\Studium\6. Semester\Bachelorarbeit\Code\PerformanceTests\Enclave\PerformanceTests_t.c:495.2
$LN1651:
                                ; LOE rbx rbp rsp r12 r13 r14 r15 rip zmm6 zmm7 zmm8 zmm9 zmm10 zmm11 zmm12 zmm13 zmm14 zmm15
.B9.6::                         ; Preds .B9.2 .B9.4
                                ; Execution count [0.00e+000]
$LN1652:
        mov       eax, 2                                        ;\\Mac\Home\Documents\Studium\6. Semester\Bachelorarbeit\Code\PerformanceTests\Enclave\PerformanceTests_t.c:495.2
$LN1653:
        mov       rsi, QWORD PTR [144+rbp]                      ;\\Mac\Home\Documents\Studium\6. Semester\Bachelorarbeit\Code\PerformanceTests\Enclave\PerformanceTests_t.c:495.2[spill]
$LN1654:
        mov       rdi, QWORD PTR [152+rbp]                      ;\\Mac\Home\Documents\Studium\6. Semester\Bachelorarbeit\Code\PerformanceTests\Enclave\PerformanceTests_t.c:495.2[spill]
$LN1655:
        lea       rsp, QWORD PTR [160+rbp]                      ;\\Mac\Home\Documents\Studium\6. Semester\Bachelorarbeit\Code\PerformanceTests\Enclave\PerformanceTests_t.c:495.2
$LN1656:
        pop       rbp                                           ;\\Mac\Home\Documents\Studium\6. Semester\Bachelorarbeit\Code\PerformanceTests\Enclave\PerformanceTests_t.c:495.2
$LN1657:
        ret                                                     ;\\Mac\Home\Documents\Studium\6. Semester\Bachelorarbeit\Code\PerformanceTests\Enclave\PerformanceTests_t.c:495.2
$LN1658:
                                ; LOE
.B9.7::                         ; Preds .B9.10 .B9.5
                                ; Execution count [0.00e+000]
$LN1659:

;;; 	CHECK_UNIQUE_POINTER(_tmp_in, _len_in);

        mov       rax, QWORD PTR [24+rbp]                       ;\\Mac\Home\Documents\Studium\6. Semester\Bachelorarbeit\Code\PerformanceTests\Enclave\PerformanceTests_t.c:496.2
$LN1660:
        test      rax, rax                                      ;\\Mac\Home\Documents\Studium\6. Semester\Bachelorarbeit\Code\PerformanceTests\Enclave\PerformanceTests_t.c:496.2
$LN1661:
        je        .B9.10        ; Prob 50%                      ;\\Mac\Home\Documents\Studium\6. Semester\Bachelorarbeit\Code\PerformanceTests\Enclave\PerformanceTests_t.c:496.2
$LN1662:
                                ; LOE rbx rbp rsp r12 r13 r14 r15 rip zmm6 zmm7 zmm8 zmm9 zmm10 zmm11 zmm12 zmm13 zmm14 zmm15
.B9.8::                         ; Preds .B9.7
                                ; Execution count [0.00e+000]
$LN1663:
        mov       rax, QWORD PTR [24+rbp]                       ;\\Mac\Home\Documents\Studium\6. Semester\Bachelorarbeit\Code\PerformanceTests\Enclave\PerformanceTests_t.c:496.2
$LN1664:
        mov       rdx, QWORD PTR [40+rbp]                       ;\\Mac\Home\Documents\Studium\6. Semester\Bachelorarbeit\Code\PerformanceTests\Enclave\PerformanceTests_t.c:496.2
$LN1665:
        mov       rcx, rax                                      ;\\Mac\Home\Documents\Studium\6. Semester\Bachelorarbeit\Code\PerformanceTests\Enclave\PerformanceTests_t.c:496.2
$LN1666:
;       sgx_is_outside_enclave(const void *, size_t)
        call      sgx_is_outside_enclave                        ;\\Mac\Home\Documents\Studium\6. Semester\Bachelorarbeit\Code\PerformanceTests\Enclave\PerformanceTests_t.c:496.2
$LN1667:
                                ; LOE rbx rbp rsp r12 r13 r14 r15 rip eax zmm6 zmm7 zmm8 zmm9 zmm10 zmm11 zmm12 zmm13 zmm14 zmm15
.B9.38::                        ; Preds .B9.8
                                ; Execution count [0.00e+000]
$LN1668:
        mov       DWORD PTR [8+rbp], eax                        ;\\Mac\Home\Documents\Studium\6. Semester\Bachelorarbeit\Code\PerformanceTests\Enclave\PerformanceTests_t.c:496.2
$LN1669:
                                ; LOE rbx rbp rsp r12 r13 r14 r15 rip zmm6 zmm7 zmm8 zmm9 zmm10 zmm11 zmm12 zmm13 zmm14 zmm15
.B9.9::                         ; Preds .B9.38
                                ; Execution count [0.00e+000]
$LN1670:
        mov       eax, DWORD PTR [8+rbp]                        ;\\Mac\Home\Documents\Studium\6. Semester\Bachelorarbeit\Code\PerformanceTests\Enclave\PerformanceTests_t.c:496.2
$LN1671:
        test      eax, eax                                      ;\\Mac\Home\Documents\Studium\6. Semester\Bachelorarbeit\Code\PerformanceTests\Enclave\PerformanceTests_t.c:496.2
$LN1672:
        je        .B9.11        ; Prob 50%                      ;\\Mac\Home\Documents\Studium\6. Semester\Bachelorarbeit\Code\PerformanceTests\Enclave\PerformanceTests_t.c:496.2
$LN1673:
                                ; LOE rbx rbp rsp r12 r13 r14 r15 rip zmm6 zmm7 zmm8 zmm9 zmm10 zmm11 zmm12 zmm13 zmm14 zmm15
.B9.10::                        ; Preds .B9.9 .B9.7
                                ; Execution count [0.00e+000]
$LN1674:
        mov       eax, 0                                        ;\\Mac\Home\Documents\Studium\6. Semester\Bachelorarbeit\Code\PerformanceTests\Enclave\PerformanceTests_t.c:496.2
$LN1675:
        test      eax, eax                                      ;\\Mac\Home\Documents\Studium\6. Semester\Bachelorarbeit\Code\PerformanceTests\Enclave\PerformanceTests_t.c:496.2
$LN1676:
        jne       .B9.7         ; Prob 0%                       ;\\Mac\Home\Documents\Studium\6. Semester\Bachelorarbeit\Code\PerformanceTests\Enclave\PerformanceTests_t.c:496.2
$LN1677:
        jmp       .B9.12        ; Prob 100%                     ;\\Mac\Home\Documents\Studium\6. Semester\Bachelorarbeit\Code\PerformanceTests\Enclave\PerformanceTests_t.c:496.2
$LN1678:
                                ; LOE rbx rbp rsp r12 r13 r14 r15 rip zmm6 zmm7 zmm8 zmm9 zmm10 zmm11 zmm12 zmm13 zmm14 zmm15
.B9.11::                        ; Preds .B9.9
                                ; Execution count [0.00e+000]
$LN1679:
        mov       eax, 2                                        ;\\Mac\Home\Documents\Studium\6. Semester\Bachelorarbeit\Code\PerformanceTests\Enclave\PerformanceTests_t.c:496.2
$LN1680:
        mov       rsi, QWORD PTR [144+rbp]                      ;\\Mac\Home\Documents\Studium\6. Semester\Bachelorarbeit\Code\PerformanceTests\Enclave\PerformanceTests_t.c:496.2[spill]
$LN1681:
        mov       rdi, QWORD PTR [152+rbp]                      ;\\Mac\Home\Documents\Studium\6. Semester\Bachelorarbeit\Code\PerformanceTests\Enclave\PerformanceTests_t.c:496.2[spill]
$LN1682:
        lea       rsp, QWORD PTR [160+rbp]                      ;\\Mac\Home\Documents\Studium\6. Semester\Bachelorarbeit\Code\PerformanceTests\Enclave\PerformanceTests_t.c:496.2
$LN1683:
        pop       rbp                                           ;\\Mac\Home\Documents\Studium\6. Semester\Bachelorarbeit\Code\PerformanceTests\Enclave\PerformanceTests_t.c:496.2
$LN1684:
        ret                                                     ;\\Mac\Home\Documents\Studium\6. Semester\Bachelorarbeit\Code\PerformanceTests\Enclave\PerformanceTests_t.c:496.2
$LN1685:
                                ; LOE
.B9.12::                        ; Preds .B9.15 .B9.10
                                ; Execution count [0.00e+000]
$LN1686:

;;; 	CHECK_UNIQUE_POINTER(_tmp_out, _len_out);

        mov       rax, QWORD PTR [56+rbp]                       ;\\Mac\Home\Documents\Studium\6. Semester\Bachelorarbeit\Code\PerformanceTests\Enclave\PerformanceTests_t.c:497.2
$LN1687:
        test      rax, rax                                      ;\\Mac\Home\Documents\Studium\6. Semester\Bachelorarbeit\Code\PerformanceTests\Enclave\PerformanceTests_t.c:497.2
$LN1688:
        je        .B9.15        ; Prob 50%                      ;\\Mac\Home\Documents\Studium\6. Semester\Bachelorarbeit\Code\PerformanceTests\Enclave\PerformanceTests_t.c:497.2
$LN1689:
                                ; LOE rbx rbp rsp r12 r13 r14 r15 rip zmm6 zmm7 zmm8 zmm9 zmm10 zmm11 zmm12 zmm13 zmm14 zmm15
.B9.13::                        ; Preds .B9.12
                                ; Execution count [0.00e+000]
$LN1690:
        mov       rax, QWORD PTR [56+rbp]                       ;\\Mac\Home\Documents\Studium\6. Semester\Bachelorarbeit\Code\PerformanceTests\Enclave\PerformanceTests_t.c:497.2
$LN1691:
        mov       rdx, QWORD PTR [64+rbp]                       ;\\Mac\Home\Documents\Studium\6. Semester\Bachelorarbeit\Code\PerformanceTests\Enclave\PerformanceTests_t.c:497.2
$LN1692:
        mov       rcx, rax                                      ;\\Mac\Home\Documents\Studium\6. Semester\Bachelorarbeit\Code\PerformanceTests\Enclave\PerformanceTests_t.c:497.2
$LN1693:
;       sgx_is_outside_enclave(const void *, size_t)
        call      sgx_is_outside_enclave                        ;\\Mac\Home\Documents\Studium\6. Semester\Bachelorarbeit\Code\PerformanceTests\Enclave\PerformanceTests_t.c:497.2
$LN1694:
                                ; LOE rbx rbp rsp r12 r13 r14 r15 rip eax zmm6 zmm7 zmm8 zmm9 zmm10 zmm11 zmm12 zmm13 zmm14 zmm15
.B9.39::                        ; Preds .B9.13
                                ; Execution count [0.00e+000]
$LN1695:
        mov       DWORD PTR [12+rbp], eax                       ;\\Mac\Home\Documents\Studium\6. Semester\Bachelorarbeit\Code\PerformanceTests\Enclave\PerformanceTests_t.c:497.2
$LN1696:
                                ; LOE rbx rbp rsp r12 r13 r14 r15 rip zmm6 zmm7 zmm8 zmm9 zmm10 zmm11 zmm12 zmm13 zmm14 zmm15
.B9.14::                        ; Preds .B9.39
                                ; Execution count [0.00e+000]
$LN1697:
        mov       eax, DWORD PTR [12+rbp]                       ;\\Mac\Home\Documents\Studium\6. Semester\Bachelorarbeit\Code\PerformanceTests\Enclave\PerformanceTests_t.c:497.2
$LN1698:
        test      eax, eax                                      ;\\Mac\Home\Documents\Studium\6. Semester\Bachelorarbeit\Code\PerformanceTests\Enclave\PerformanceTests_t.c:497.2
$LN1699:
        je        .B9.16        ; Prob 50%                      ;\\Mac\Home\Documents\Studium\6. Semester\Bachelorarbeit\Code\PerformanceTests\Enclave\PerformanceTests_t.c:497.2
$LN1700:
                                ; LOE rbx rbp rsp r12 r13 r14 r15 rip zmm6 zmm7 zmm8 zmm9 zmm10 zmm11 zmm12 zmm13 zmm14 zmm15
.B9.15::                        ; Preds .B9.14 .B9.12
                                ; Execution count [0.00e+000]
$LN1701:
        mov       eax, 0                                        ;\\Mac\Home\Documents\Studium\6. Semester\Bachelorarbeit\Code\PerformanceTests\Enclave\PerformanceTests_t.c:497.2
$LN1702:
        test      eax, eax                                      ;\\Mac\Home\Documents\Studium\6. Semester\Bachelorarbeit\Code\PerformanceTests\Enclave\PerformanceTests_t.c:497.2
$LN1703:
        jne       .B9.12        ; Prob 0%                       ;\\Mac\Home\Documents\Studium\6. Semester\Bachelorarbeit\Code\PerformanceTests\Enclave\PerformanceTests_t.c:497.2
$LN1704:
        jmp       .B9.17        ; Prob 100%                     ;\\Mac\Home\Documents\Studium\6. Semester\Bachelorarbeit\Code\PerformanceTests\Enclave\PerformanceTests_t.c:497.2
$LN1705:
                                ; LOE rbx rbp rsp r12 r13 r14 r15 rip zmm6 zmm7 zmm8 zmm9 zmm10 zmm11 zmm12 zmm13 zmm14 zmm15
.B9.16::                        ; Preds .B9.14
                                ; Execution count [0.00e+000]
$LN1706:
        mov       eax, 2                                        ;\\Mac\Home\Documents\Studium\6. Semester\Bachelorarbeit\Code\PerformanceTests\Enclave\PerformanceTests_t.c:497.2
$LN1707:
        mov       rsi, QWORD PTR [144+rbp]                      ;\\Mac\Home\Documents\Studium\6. Semester\Bachelorarbeit\Code\PerformanceTests\Enclave\PerformanceTests_t.c:497.2[spill]
$LN1708:
        mov       rdi, QWORD PTR [152+rbp]                      ;\\Mac\Home\Documents\Studium\6. Semester\Bachelorarbeit\Code\PerformanceTests\Enclave\PerformanceTests_t.c:497.2[spill]
$LN1709:
        lea       rsp, QWORD PTR [160+rbp]                      ;\\Mac\Home\Documents\Studium\6. Semester\Bachelorarbeit\Code\PerformanceTests\Enclave\PerformanceTests_t.c:497.2
$LN1710:
        pop       rbp                                           ;\\Mac\Home\Documents\Studium\6. Semester\Bachelorarbeit\Code\PerformanceTests\Enclave\PerformanceTests_t.c:497.2
$LN1711:
        ret                                                     ;\\Mac\Home\Documents\Studium\6. Semester\Bachelorarbeit\Code\PerformanceTests\Enclave\PerformanceTests_t.c:497.2
$LN1712:
                                ; LOE
.B9.17::                        ; Preds .B9.15
                                ; Execution count [0.00e+000]
$LN1713:

;;; 
;;; 	if (_tmp_in != NULL) {

        mov       rax, QWORD PTR [24+rbp]                       ;\\Mac\Home\Documents\Studium\6. Semester\Bachelorarbeit\Code\PerformanceTests\Enclave\PerformanceTests_t.c:499.2
$LN1714:
        test      rax, rax                                      ;\\Mac\Home\Documents\Studium\6. Semester\Bachelorarbeit\Code\PerformanceTests\Enclave\PerformanceTests_t.c:499.2
$LN1715:
        je        .B9.22        ; Prob 50%                      ;\\Mac\Home\Documents\Studium\6. Semester\Bachelorarbeit\Code\PerformanceTests\Enclave\PerformanceTests_t.c:499.2
$LN1716:
                                ; LOE rbx rbp rsp r12 r13 r14 r15 rip zmm6 zmm7 zmm8 zmm9 zmm10 zmm11 zmm12 zmm13 zmm14 zmm15
.B9.18::                        ; Preds .B9.17
                                ; Execution count [0.00e+000]
$LN1717:

;;; 		_in_in = (uint8_t*)malloc(_len_in);

        mov       rax, QWORD PTR [40+rbp]                       ;\\Mac\Home\Documents\Studium\6. Semester\Bachelorarbeit\Code\PerformanceTests\Enclave\PerformanceTests_t.c:500.3
$LN1718:
        mov       rcx, rax                                      ;\\Mac\Home\Documents\Studium\6. Semester\Bachelorarbeit\Code\PerformanceTests\Enclave\PerformanceTests_t.c:500.3
$LN1719:
;       malloc(size_t)
        call      malloc                                        ;\\Mac\Home\Documents\Studium\6. Semester\Bachelorarbeit\Code\PerformanceTests\Enclave\PerformanceTests_t.c:500.3
$LN1720:
                                ; LOE rax rbx rbp rsp r12 r13 r14 r15 rip zmm6 zmm7 zmm8 zmm9 zmm10 zmm11 zmm12 zmm13 zmm14 zmm15
.B9.40::                        ; Preds .B9.18
                                ; Execution count [0.00e+000]
$LN1721:
        mov       QWORD PTR [80+rbp], rax                       ;\\Mac\Home\Documents\Studium\6. Semester\Bachelorarbeit\Code\PerformanceTests\Enclave\PerformanceTests_t.c:500.3
$LN1722:
                                ; LOE rbx rbp rsp r12 r13 r14 r15 rip zmm6 zmm7 zmm8 zmm9 zmm10 zmm11 zmm12 zmm13 zmm14 zmm15
.B9.19::                        ; Preds .B9.40
                                ; Execution count [0.00e+000]
$LN1723:
        mov       rax, QWORD PTR [80+rbp]                       ;\\Mac\Home\Documents\Studium\6. Semester\Bachelorarbeit\Code\PerformanceTests\Enclave\PerformanceTests_t.c:500.3
$LN1724:
        mov       QWORD PTR [48+rbp], rax                       ;\\Mac\Home\Documents\Studium\6. Semester\Bachelorarbeit\Code\PerformanceTests\Enclave\PerformanceTests_t.c:500.3
$LN1725:

;;; 		if (_in_in == NULL) {

        mov       rax, QWORD PTR [48+rbp]                       ;\\Mac\Home\Documents\Studium\6. Semester\Bachelorarbeit\Code\PerformanceTests\Enclave\PerformanceTests_t.c:501.3
$LN1726:
        test      rax, rax                                      ;\\Mac\Home\Documents\Studium\6. Semester\Bachelorarbeit\Code\PerformanceTests\Enclave\PerformanceTests_t.c:501.3
$LN1727:
        jne       .B9.21        ; Prob 50%                      ;\\Mac\Home\Documents\Studium\6. Semester\Bachelorarbeit\Code\PerformanceTests\Enclave\PerformanceTests_t.c:501.3
$LN1728:
                                ; LOE rbx rbp rsp r12 r13 r14 r15 rip zmm6 zmm7 zmm8 zmm9 zmm10 zmm11 zmm12 zmm13 zmm14 zmm15
.B9.20::                        ; Preds .B9.19
                                ; Execution count [0.00e+000]
$LN1729:

;;; 			status = SGX_ERROR_OUT_OF_MEMORY;

        mov       DWORD PTR [rbp], 3                            ;\\Mac\Home\Documents\Studium\6. Semester\Bachelorarbeit\Code\PerformanceTests\Enclave\PerformanceTests_t.c:502.4
$LN1730:
        jmp       .B9.29        ; Prob 100%                     ;\\Mac\Home\Documents\Studium\6. Semester\Bachelorarbeit\Code\PerformanceTests\Enclave\PerformanceTests_t.c:502.4
$LN1731:
                                ; LOE rbx rbp rsp r12 r13 r14 r15 rip zmm6 zmm7 zmm8 zmm9 zmm10 zmm11 zmm12 zmm13 zmm14 zmm15
.B9.21::                        ; Preds .B9.19
                                ; Execution count [0.00e+000]
$LN1732:

;;; 			goto err;
;;; 		}
;;; 
;;; 		memcpy(_in_in, _tmp_in, _len_in);

        mov       rax, QWORD PTR [48+rbp]                       ;\\Mac\Home\Documents\Studium\6. Semester\Bachelorarbeit\Code\PerformanceTests\Enclave\PerformanceTests_t.c:506.3
$LN1733:
        mov       rdx, QWORD PTR [24+rbp]                       ;\\Mac\Home\Documents\Studium\6. Semester\Bachelorarbeit\Code\PerformanceTests\Enclave\PerformanceTests_t.c:506.3
$LN1734:
        mov       rcx, QWORD PTR [40+rbp]                       ;\\Mac\Home\Documents\Studium\6. Semester\Bachelorarbeit\Code\PerformanceTests\Enclave\PerformanceTests_t.c:506.3
$LN1735:
        mov       rdi, rax                                      ;\\Mac\Home\Documents\Studium\6. Semester\Bachelorarbeit\Code\PerformanceTests\Enclave\PerformanceTests_t.c:506.3
$LN1736:
        mov       rsi, rdx                                      ;\\Mac\Home\Documents\Studium\6. Semester\Bachelorarbeit\Code\PerformanceTests\Enclave\PerformanceTests_t.c:506.3
$LN1737:
        mov       rdx, rdi                                      ;\\Mac\Home\Documents\Studium\6. Semester\Bachelorarbeit\Code\PerformanceTests\Enclave\PerformanceTests_t.c:506.3
$LN1738:
        mov       eax, ecx                                      ;\\Mac\Home\Documents\Studium\6. Semester\Bachelorarbeit\Code\PerformanceTests\Enclave\PerformanceTests_t.c:506.3
$LN1739:
        shr       rcx, 2                                        ;\\Mac\Home\Documents\Studium\6. Semester\Bachelorarbeit\Code\PerformanceTests\Enclave\PerformanceTests_t.c:506.3
$LN1740:
        rep   movsd                                             ;\\Mac\Home\Documents\Studium\6. Semester\Bachelorarbeit\Code\PerformanceTests\Enclave\PerformanceTests_t.c:506.3
$LN1741:
        mov       ecx, eax                                      ;\\Mac\Home\Documents\Studium\6. Semester\Bachelorarbeit\Code\PerformanceTests\Enclave\PerformanceTests_t.c:506.3
$LN1742:
        and       ecx, 3                                        ;\\Mac\Home\Documents\Studium\6. Semester\Bachelorarbeit\Code\PerformanceTests\Enclave\PerformanceTests_t.c:506.3
$LN1743:
        rep   movsb                                             ;\\Mac\Home\Documents\Studium\6. Semester\Bachelorarbeit\Code\PerformanceTests\Enclave\PerformanceTests_t.c:506.3
$LN1744:
        mov       rax, rdx                                      ;\\Mac\Home\Documents\Studium\6. Semester\Bachelorarbeit\Code\PerformanceTests\Enclave\PerformanceTests_t.c:506.3
$LN1745:
                                ; LOE rax rbx rbp rsp r12 r13 r14 r15 rip zmm6 zmm7 zmm8 zmm9 zmm10 zmm11 zmm12 zmm13 zmm14 zmm15
.B9.41::                        ; Preds .B9.21
                                ; Execution count [0.00e+000]
$LN1746:
        mov       QWORD PTR [104+rbp], rax                      ;\\Mac\Home\Documents\Studium\6. Semester\Bachelorarbeit\Code\PerformanceTests\Enclave\PerformanceTests_t.c:506.3
$LN1747:
                                ; LOE rbx rbp rsp r12 r13 r14 r15 rip zmm6 zmm7 zmm8 zmm9 zmm10 zmm11 zmm12 zmm13 zmm14 zmm15
.B9.22::                        ; Preds .B9.41 .B9.17
                                ; Execution count [0.00e+000]
$LN1748:

;;; 	}
;;; 	if (_tmp_out != NULL) {

        mov       rax, QWORD PTR [56+rbp]                       ;\\Mac\Home\Documents\Studium\6. Semester\Bachelorarbeit\Code\PerformanceTests\Enclave\PerformanceTests_t.c:508.2
$LN1749:
        test      rax, rax                                      ;\\Mac\Home\Documents\Studium\6. Semester\Bachelorarbeit\Code\PerformanceTests\Enclave\PerformanceTests_t.c:508.2
$LN1750:
        je        .B9.27        ; Prob 50%                      ;\\Mac\Home\Documents\Studium\6. Semester\Bachelorarbeit\Code\PerformanceTests\Enclave\PerformanceTests_t.c:508.2
$LN1751:
                                ; LOE rbx rbp rsp r12 r13 r14 r15 rip zmm6 zmm7 zmm8 zmm9 zmm10 zmm11 zmm12 zmm13 zmm14 zmm15
.B9.23::                        ; Preds .B9.22
                                ; Execution count [0.00e+000]
$LN1752:

;;; 		if ((_in_out = (uint8_t*)malloc(_len_out)) == NULL) {

        mov       rax, QWORD PTR [64+rbp]                       ;\\Mac\Home\Documents\Studium\6. Semester\Bachelorarbeit\Code\PerformanceTests\Enclave\PerformanceTests_t.c:509.3
$LN1753:
        mov       rcx, rax                                      ;\\Mac\Home\Documents\Studium\6. Semester\Bachelorarbeit\Code\PerformanceTests\Enclave\PerformanceTests_t.c:509.3
$LN1754:
;       malloc(size_t)
        call      malloc                                        ;\\Mac\Home\Documents\Studium\6. Semester\Bachelorarbeit\Code\PerformanceTests\Enclave\PerformanceTests_t.c:509.3
$LN1755:
                                ; LOE rax rbx rbp rsp r12 r13 r14 r15 rip zmm6 zmm7 zmm8 zmm9 zmm10 zmm11 zmm12 zmm13 zmm14 zmm15
.B9.42::                        ; Preds .B9.23
                                ; Execution count [0.00e+000]
$LN1756:
        mov       QWORD PTR [88+rbp], rax                       ;\\Mac\Home\Documents\Studium\6. Semester\Bachelorarbeit\Code\PerformanceTests\Enclave\PerformanceTests_t.c:509.3
$LN1757:
                                ; LOE rbx rbp rsp r12 r13 r14 r15 rip zmm6 zmm7 zmm8 zmm9 zmm10 zmm11 zmm12 zmm13 zmm14 zmm15
.B9.24::                        ; Preds .B9.42
                                ; Execution count [0.00e+000]
$LN1758:
        mov       rax, QWORD PTR [88+rbp]                       ;\\Mac\Home\Documents\Studium\6. Semester\Bachelorarbeit\Code\PerformanceTests\Enclave\PerformanceTests_t.c:509.3
$LN1759:
        mov       QWORD PTR [112+rbp], rax                      ;\\Mac\Home\Documents\Studium\6. Semester\Bachelorarbeit\Code\PerformanceTests\Enclave\PerformanceTests_t.c:509.3
$LN1760:
        mov       rax, QWORD PTR [112+rbp]                      ;\\Mac\Home\Documents\Studium\6. Semester\Bachelorarbeit\Code\PerformanceTests\Enclave\PerformanceTests_t.c:509.3
$LN1761:
        mov       QWORD PTR [72+rbp], rax                       ;\\Mac\Home\Documents\Studium\6. Semester\Bachelorarbeit\Code\PerformanceTests\Enclave\PerformanceTests_t.c:509.3
$LN1762:
        mov       rax, QWORD PTR [112+rbp]                      ;\\Mac\Home\Documents\Studium\6. Semester\Bachelorarbeit\Code\PerformanceTests\Enclave\PerformanceTests_t.c:509.3
$LN1763:
        test      rax, rax                                      ;\\Mac\Home\Documents\Studium\6. Semester\Bachelorarbeit\Code\PerformanceTests\Enclave\PerformanceTests_t.c:509.3
$LN1764:
        jne       .B9.26        ; Prob 50%                      ;\\Mac\Home\Documents\Studium\6. Semester\Bachelorarbeit\Code\PerformanceTests\Enclave\PerformanceTests_t.c:509.3
$LN1765:
                                ; LOE rbx rbp rsp r12 r13 r14 r15 rip zmm6 zmm7 zmm8 zmm9 zmm10 zmm11 zmm12 zmm13 zmm14 zmm15
.B9.25::                        ; Preds .B9.24
                                ; Execution count [0.00e+000]
$LN1766:

;;; 			status = SGX_ERROR_OUT_OF_MEMORY;

        mov       DWORD PTR [rbp], 3                            ;\\Mac\Home\Documents\Studium\6. Semester\Bachelorarbeit\Code\PerformanceTests\Enclave\PerformanceTests_t.c:510.4
$LN1767:
        jmp       .B9.29        ; Prob 100%                     ;\\Mac\Home\Documents\Studium\6. Semester\Bachelorarbeit\Code\PerformanceTests\Enclave\PerformanceTests_t.c:510.4
$LN1768:
                                ; LOE rbx rbp rsp r12 r13 r14 r15 rip zmm6 zmm7 zmm8 zmm9 zmm10 zmm11 zmm12 zmm13 zmm14 zmm15
.B9.26::                        ; Preds .B9.24
                                ; Execution count [0.00e+000]
$LN1769:

;;; 			goto err;
;;; 		}
;;; 
;;; 		memset((void*)_in_out, 0, _len_out);

        mov       rax, QWORD PTR [72+rbp]                       ;\\Mac\Home\Documents\Studium\6. Semester\Bachelorarbeit\Code\PerformanceTests\Enclave\PerformanceTests_t.c:514.3
$LN1770:
        mov       edx, 0                                        ;\\Mac\Home\Documents\Studium\6. Semester\Bachelorarbeit\Code\PerformanceTests\Enclave\PerformanceTests_t.c:514.3
$LN1771:
        mov       rcx, QWORD PTR [64+rbp]                       ;\\Mac\Home\Documents\Studium\6. Semester\Bachelorarbeit\Code\PerformanceTests\Enclave\PerformanceTests_t.c:514.3
$LN1772:
        mov       rdi, rax                                      ;\\Mac\Home\Documents\Studium\6. Semester\Bachelorarbeit\Code\PerformanceTests\Enclave\PerformanceTests_t.c:514.3
$LN1773:
        mov       eax, edx                                      ;\\Mac\Home\Documents\Studium\6. Semester\Bachelorarbeit\Code\PerformanceTests\Enclave\PerformanceTests_t.c:514.3
$LN1774:
        and       eax, 65535                                    ;\\Mac\Home\Documents\Studium\6. Semester\Bachelorarbeit\Code\PerformanceTests\Enclave\PerformanceTests_t.c:514.3
$LN1775:
        mov       ah, al                                        ;\\Mac\Home\Documents\Studium\6. Semester\Bachelorarbeit\Code\PerformanceTests\Enclave\PerformanceTests_t.c:514.3
$LN1776:
        mov       edx, eax                                      ;\\Mac\Home\Documents\Studium\6. Semester\Bachelorarbeit\Code\PerformanceTests\Enclave\PerformanceTests_t.c:514.3
$LN1777:
        shl       eax, 16                                       ;\\Mac\Home\Documents\Studium\6. Semester\Bachelorarbeit\Code\PerformanceTests\Enclave\PerformanceTests_t.c:514.3
$LN1778:
        or        eax, edx                                      ;\\Mac\Home\Documents\Studium\6. Semester\Bachelorarbeit\Code\PerformanceTests\Enclave\PerformanceTests_t.c:514.3
$LN1779:
        mov       esi, ecx                                      ;\\Mac\Home\Documents\Studium\6. Semester\Bachelorarbeit\Code\PerformanceTests\Enclave\PerformanceTests_t.c:514.3
$LN1780:
        shr       rcx, 2                                        ;\\Mac\Home\Documents\Studium\6. Semester\Bachelorarbeit\Code\PerformanceTests\Enclave\PerformanceTests_t.c:514.3
$LN1781:
        mov       rdx, rdi                                      ;\\Mac\Home\Documents\Studium\6. Semester\Bachelorarbeit\Code\PerformanceTests\Enclave\PerformanceTests_t.c:514.3
$LN1782:
        rep   stosd                                             ;\\Mac\Home\Documents\Studium\6. Semester\Bachelorarbeit\Code\PerformanceTests\Enclave\PerformanceTests_t.c:514.3
$LN1783:
        mov       ecx, esi                                      ;\\Mac\Home\Documents\Studium\6. Semester\Bachelorarbeit\Code\PerformanceTests\Enclave\PerformanceTests_t.c:514.3
$LN1784:
        and       ecx, 3                                        ;\\Mac\Home\Documents\Studium\6. Semester\Bachelorarbeit\Code\PerformanceTests\Enclave\PerformanceTests_t.c:514.3
$LN1785:
        rep   stosb                                             ;\\Mac\Home\Documents\Studium\6. Semester\Bachelorarbeit\Code\PerformanceTests\Enclave\PerformanceTests_t.c:514.3
$LN1786:
        mov       rax, rdx                                      ;\\Mac\Home\Documents\Studium\6. Semester\Bachelorarbeit\Code\PerformanceTests\Enclave\PerformanceTests_t.c:514.3
$LN1787:
                                ; LOE rax rbx rbp rsp r12 r13 r14 r15 rip zmm6 zmm7 zmm8 zmm9 zmm10 zmm11 zmm12 zmm13 zmm14 zmm15
.B9.43::                        ; Preds .B9.26
                                ; Execution count [0.00e+000]
$LN1788:
        mov       QWORD PTR [120+rbp], rax                      ;\\Mac\Home\Documents\Studium\6. Semester\Bachelorarbeit\Code\PerformanceTests\Enclave\PerformanceTests_t.c:514.3
$LN1789:
                                ; LOE rbx rbp rsp r12 r13 r14 r15 rip zmm6 zmm7 zmm8 zmm9 zmm10 zmm11 zmm12 zmm13 zmm14 zmm15
.B9.27::                        ; Preds .B9.43 .B9.22
                                ; Execution count [0.00e+000]
$LN1790:

;;; 	}
;;; 	ms->ms_retval = enclaveRunLengthEncodeAndSum(_in_in, _tmp_length, _in_out);

        mov       rax, QWORD PTR [48+rbp]                       ;\\Mac\Home\Documents\Studium\6. Semester\Bachelorarbeit\Code\PerformanceTests\Enclave\PerformanceTests_t.c:516.2
$LN1791:
        mov       rdx, QWORD PTR [32+rbp]                       ;\\Mac\Home\Documents\Studium\6. Semester\Bachelorarbeit\Code\PerformanceTests\Enclave\PerformanceTests_t.c:516.2
$LN1792:
        mov       rcx, QWORD PTR [72+rbp]                       ;\\Mac\Home\Documents\Studium\6. Semester\Bachelorarbeit\Code\PerformanceTests\Enclave\PerformanceTests_t.c:516.2
$LN1793:
        mov       QWORD PTR [136+rbp], rcx                      ;\\Mac\Home\Documents\Studium\6. Semester\Bachelorarbeit\Code\PerformanceTests\Enclave\PerformanceTests_t.c:516.2[spill]
$LN1794:
        mov       rcx, rax                                      ;\\Mac\Home\Documents\Studium\6. Semester\Bachelorarbeit\Code\PerformanceTests\Enclave\PerformanceTests_t.c:516.2
$LN1795:
        mov       rax, QWORD PTR [136+rbp]                      ;\\Mac\Home\Documents\Studium\6. Semester\Bachelorarbeit\Code\PerformanceTests\Enclave\PerformanceTests_t.c:516.2[spill]
$LN1796:
        mov       r8, rax                                       ;\\Mac\Home\Documents\Studium\6. Semester\Bachelorarbeit\Code\PerformanceTests\Enclave\PerformanceTests_t.c:516.2
$LN1797:
;       enclaveRunLengthEncodeAndSum(uint8_t *, size_t, uint8_t *)
        call      enclaveRunLengthEncodeAndSum                  ;\\Mac\Home\Documents\Studium\6. Semester\Bachelorarbeit\Code\PerformanceTests\Enclave\PerformanceTests_t.c:516.2
$LN1798:
                                ; LOE rax rbx rbp rsp r12 r13 r14 r15 rip zmm6 zmm7 zmm8 zmm9 zmm10 zmm11 zmm12 zmm13 zmm14 zmm15
.B9.44::                        ; Preds .B9.27
                                ; Execution count [0.00e+000]
$LN1799:
        mov       QWORD PTR [96+rbp], rax                       ;\\Mac\Home\Documents\Studium\6. Semester\Bachelorarbeit\Code\PerformanceTests\Enclave\PerformanceTests_t.c:516.2
$LN1800:
                                ; LOE rbx rbp rsp r12 r13 r14 r15 rip zmm6 zmm7 zmm8 zmm9 zmm10 zmm11 zmm12 zmm13 zmm14 zmm15
.B9.28::                        ; Preds .B9.44
                                ; Execution count [0.00e+000]
$LN1801:
        mov       rax, QWORD PTR [16+rbp]                       ;\\Mac\Home\Documents\Studium\6. Semester\Bachelorarbeit\Code\PerformanceTests\Enclave\PerformanceTests_t.c:516.2
$LN1802:
        mov       rdx, QWORD PTR [96+rbp]                       ;\\Mac\Home\Documents\Studium\6. Semester\Bachelorarbeit\Code\PerformanceTests\Enclave\PerformanceTests_t.c:516.2
$LN1803:
        mov       QWORD PTR [rax], rdx                          ;\\Mac\Home\Documents\Studium\6. Semester\Bachelorarbeit\Code\PerformanceTests\Enclave\PerformanceTests_t.c:516.2
$LN1804:
                                ; LOE rbx rbp rsp r12 r13 r14 r15 rip zmm6 zmm7 zmm8 zmm9 zmm10 zmm11 zmm12 zmm13 zmm14 zmm15
.B9.29::                        ; Preds .B9.28 .B9.25 .B9.20
                                ; Execution count [0.00e+000]
$LN1805:

;;; err:
;;; 	if (_in_in) free(_in_in);

        mov       rax, QWORD PTR [48+rbp]                       ;\\Mac\Home\Documents\Studium\6. Semester\Bachelorarbeit\Code\PerformanceTests\Enclave\PerformanceTests_t.c:518.2
$LN1806:
        test      rax, rax                                      ;\\Mac\Home\Documents\Studium\6. Semester\Bachelorarbeit\Code\PerformanceTests\Enclave\PerformanceTests_t.c:518.2
$LN1807:
        je        .B9.31        ; Prob 50%                      ;\\Mac\Home\Documents\Studium\6. Semester\Bachelorarbeit\Code\PerformanceTests\Enclave\PerformanceTests_t.c:518.2
$LN1808:
                                ; LOE rbx rbp rsp r12 r13 r14 r15 rip zmm6 zmm7 zmm8 zmm9 zmm10 zmm11 zmm12 zmm13 zmm14 zmm15
.B9.30::                        ; Preds .B9.29
                                ; Execution count [0.00e+000]
$LN1809:
        mov       rax, QWORD PTR [48+rbp]                       ;\\Mac\Home\Documents\Studium\6. Semester\Bachelorarbeit\Code\PerformanceTests\Enclave\PerformanceTests_t.c:518.14
$LN1810:
        mov       rcx, rax                                      ;\\Mac\Home\Documents\Studium\6. Semester\Bachelorarbeit\Code\PerformanceTests\Enclave\PerformanceTests_t.c:518.14
$LN1811:
;       free(void *)
        call      free                                          ;\\Mac\Home\Documents\Studium\6. Semester\Bachelorarbeit\Code\PerformanceTests\Enclave\PerformanceTests_t.c:518.14
$LN1812:
                                ; LOE rbx rbp rsp r12 r13 r14 r15 rip zmm6 zmm7 zmm8 zmm9 zmm10 zmm11 zmm12 zmm13 zmm14 zmm15
.B9.45::                        ; Preds .B9.30
                                ; Execution count [0.00e+000]
$LN1813:
                                ; LOE rbx rbp rsp r12 r13 r14 r15 rip zmm6 zmm7 zmm8 zmm9 zmm10 zmm11 zmm12 zmm13 zmm14 zmm15
.B9.31::                        ; Preds .B9.45 .B9.29
                                ; Execution count [0.00e+000]
$LN1814:

;;; 	if (_in_out) {

        mov       rax, QWORD PTR [72+rbp]                       ;\\Mac\Home\Documents\Studium\6. Semester\Bachelorarbeit\Code\PerformanceTests\Enclave\PerformanceTests_t.c:519.2
$LN1815:
        test      rax, rax                                      ;\\Mac\Home\Documents\Studium\6. Semester\Bachelorarbeit\Code\PerformanceTests\Enclave\PerformanceTests_t.c:519.2
$LN1816:
        je        .B9.34        ; Prob 50%                      ;\\Mac\Home\Documents\Studium\6. Semester\Bachelorarbeit\Code\PerformanceTests\Enclave\PerformanceTests_t.c:519.2
$LN1817:
                                ; LOE rbx rbp rsp r12 r13 r14 r15 rip zmm6 zmm7 zmm8 zmm9 zmm10 zmm11 zmm12 zmm13 zmm14 zmm15
.B9.32::                        ; Preds .B9.31
                                ; Execution count [0.00e+000]
$LN1818:

;;; 		memcpy(_tmp_out, _in_out, _len_out);

        mov       rax, QWORD PTR [56+rbp]                       ;\\Mac\Home\Documents\Studium\6. Semester\Bachelorarbeit\Code\PerformanceTests\Enclave\PerformanceTests_t.c:520.3
$LN1819:
        mov       rdx, QWORD PTR [72+rbp]                       ;\\Mac\Home\Documents\Studium\6. Semester\Bachelorarbeit\Code\PerformanceTests\Enclave\PerformanceTests_t.c:520.3
$LN1820:
        mov       rcx, QWORD PTR [64+rbp]                       ;\\Mac\Home\Documents\Studium\6. Semester\Bachelorarbeit\Code\PerformanceTests\Enclave\PerformanceTests_t.c:520.3
$LN1821:
        mov       rdi, rax                                      ;\\Mac\Home\Documents\Studium\6. Semester\Bachelorarbeit\Code\PerformanceTests\Enclave\PerformanceTests_t.c:520.3
$LN1822:
        mov       rsi, rdx                                      ;\\Mac\Home\Documents\Studium\6. Semester\Bachelorarbeit\Code\PerformanceTests\Enclave\PerformanceTests_t.c:520.3
$LN1823:
        mov       rdx, rdi                                      ;\\Mac\Home\Documents\Studium\6. Semester\Bachelorarbeit\Code\PerformanceTests\Enclave\PerformanceTests_t.c:520.3
$LN1824:
        mov       eax, ecx                                      ;\\Mac\Home\Documents\Studium\6. Semester\Bachelorarbeit\Code\PerformanceTests\Enclave\PerformanceTests_t.c:520.3
$LN1825:
        shr       rcx, 2                                        ;\\Mac\Home\Documents\Studium\6. Semester\Bachelorarbeit\Code\PerformanceTests\Enclave\PerformanceTests_t.c:520.3
$LN1826:
        rep   movsd                                             ;\\Mac\Home\Documents\Studium\6. Semester\Bachelorarbeit\Code\PerformanceTests\Enclave\PerformanceTests_t.c:520.3
$LN1827:
        mov       ecx, eax                                      ;\\Mac\Home\Documents\Studium\6. Semester\Bachelorarbeit\Code\PerformanceTests\Enclave\PerformanceTests_t.c:520.3
$LN1828:
        and       ecx, 3                                        ;\\Mac\Home\Documents\Studium\6. Semester\Bachelorarbeit\Code\PerformanceTests\Enclave\PerformanceTests_t.c:520.3
$LN1829:
        rep   movsb                                             ;\\Mac\Home\Documents\Studium\6. Semester\Bachelorarbeit\Code\PerformanceTests\Enclave\PerformanceTests_t.c:520.3
$LN1830:
        mov       rax, rdx                                      ;\\Mac\Home\Documents\Studium\6. Semester\Bachelorarbeit\Code\PerformanceTests\Enclave\PerformanceTests_t.c:520.3
$LN1831:
                                ; LOE rax rbx rbp rsp r12 r13 r14 r15 rip zmm6 zmm7 zmm8 zmm9 zmm10 zmm11 zmm12 zmm13 zmm14 zmm15
.B9.46::                        ; Preds .B9.32
                                ; Execution count [0.00e+000]
$LN1832:
        mov       QWORD PTR [128+rbp], rax                      ;\\Mac\Home\Documents\Studium\6. Semester\Bachelorarbeit\Code\PerformanceTests\Enclave\PerformanceTests_t.c:520.3
$LN1833:
                                ; LOE rbx rbp rsp r12 r13 r14 r15 rip zmm6 zmm7 zmm8 zmm9 zmm10 zmm11 zmm12 zmm13 zmm14 zmm15
.B9.33::                        ; Preds .B9.46
                                ; Execution count [0.00e+000]
$LN1834:

;;; 		free(_in_out);

        mov       rax, QWORD PTR [72+rbp]                       ;\\Mac\Home\Documents\Studium\6. Semester\Bachelorarbeit\Code\PerformanceTests\Enclave\PerformanceTests_t.c:521.3
$LN1835:
        mov       rcx, rax                                      ;\\Mac\Home\Documents\Studium\6. Semester\Bachelorarbeit\Code\PerformanceTests\Enclave\PerformanceTests_t.c:521.3
$LN1836:
;       free(void *)
        call      free                                          ;\\Mac\Home\Documents\Studium\6. Semester\Bachelorarbeit\Code\PerformanceTests\Enclave\PerformanceTests_t.c:521.3
$LN1837:
                                ; LOE rbx rbp rsp r12 r13 r14 r15 rip zmm6 zmm7 zmm8 zmm9 zmm10 zmm11 zmm12 zmm13 zmm14 zmm15
.B9.47::                        ; Preds .B9.33
                                ; Execution count [0.00e+000]
$LN1838:
                                ; LOE rbx rbp rsp r12 r13 r14 r15 rip zmm6 zmm7 zmm8 zmm9 zmm10 zmm11 zmm12 zmm13 zmm14 zmm15
.B9.34::                        ; Preds .B9.47 .B9.31
                                ; Execution count [0.00e+000]
$LN1839:

;;; 	}
;;; 
;;; 	return status;

        mov       eax, DWORD PTR [rbp]                          ;\\Mac\Home\Documents\Studium\6. Semester\Bachelorarbeit\Code\PerformanceTests\Enclave\PerformanceTests_t.c:524.2
$LN1840:
        mov       rsi, QWORD PTR [144+rbp]                      ;\\Mac\Home\Documents\Studium\6. Semester\Bachelorarbeit\Code\PerformanceTests\Enclave\PerformanceTests_t.c:524.2[spill]
$LN1841:
        mov       rdi, QWORD PTR [152+rbp]                      ;\\Mac\Home\Documents\Studium\6. Semester\Bachelorarbeit\Code\PerformanceTests\Enclave\PerformanceTests_t.c:524.2[spill]
$LN1842:
        lea       rsp, QWORD PTR [160+rbp]                      ;\\Mac\Home\Documents\Studium\6. Semester\Bachelorarbeit\Code\PerformanceTests\Enclave\PerformanceTests_t.c:524.2
$LN1843:
        pop       rbp                                           ;\\Mac\Home\Documents\Studium\6. Semester\Bachelorarbeit\Code\PerformanceTests\Enclave\PerformanceTests_t.c:524.2
$LN1844:
        ret                                                     ;\\Mac\Home\Documents\Studium\6. Semester\Bachelorarbeit\Code\PerformanceTests\Enclave\PerformanceTests_t.c:524.2
$LN1845:
                                ; LOE
.B9.35::
$LN1846:
; mark_end;
sgx_enclaveRunLengthEncodeAndSum ENDP
$LNsgx_enclaveRunLengthEncodeAndSum$1847:
_TEXT	ENDS
.xdata	SEGMENT  DWORD   READ  ''
	ALIGN 004H
.unwind.sgx_enclaveRunLengthEncodeAndSum.B1_B34	DD	621288193
	DD	1467419
	DD	1537044
	DD	17302285
	DD	1342242840
.xdata	ENDS
.pdata	SEGMENT  DWORD   READ  ''
	ALIGN 004H
.pdata.sgx_enclaveRunLengthEncodeAndSum.B1_B34	DD	imagerel .B9.1
	DD	imagerel .B9.35
	DD	imagerel .unwind.sgx_enclaveRunLengthEncodeAndSum.B1_B34
.pdata	ENDS
_DATA	SEGMENT      'DATA'
_DATA	ENDS
; -- End  sgx_enclaveRunLengthEncodeAndSum
_TEXT	SEGMENT      'CODE'
_2__routine_start_sgx_enclaveVByte_9:
; -- Begin  sgx_enclaveVByte
_TEXT	ENDS
_TEXT	SEGMENT      'CODE'
; mark_begin;

; --- sgx_enclaveVByte(void *)
sgx_enclaveVByte	PROC PRIVATE
; parameter 1(pms): rcx
.B10.1::                        ; Preds .B10.0
                                ; Execution count [0.00e+000]

;;; {

L79::
                                                          ;\\Mac\Home\Documents\Studium\6. Semester\Bachelorarbeit\Code\PerformanceTests\Enclave\PerformanceTests_t.c:528.1
$LN1848:
        push      rbp                                           ;\\Mac\Home\Documents\Studium\6. Semester\Bachelorarbeit\Code\PerformanceTests\Enclave\PerformanceTests_t.c:528.1
$LN1849:
        sub       rsp, 208                                      ;\\Mac\Home\Documents\Studium\6. Semester\Bachelorarbeit\Code\PerformanceTests\Enclave\PerformanceTests_t.c:528.1
$LN1850:
        lea       rbp, QWORD PTR [32+rsp]                       ;\\Mac\Home\Documents\Studium\6. Semester\Bachelorarbeit\Code\PerformanceTests\Enclave\PerformanceTests_t.c:528.1
$LN1851:
        mov       QWORD PTR [168+rbp], rdi                      ;\\Mac\Home\Documents\Studium\6. Semester\Bachelorarbeit\Code\PerformanceTests\Enclave\PerformanceTests_t.c:528.1[spill]
$LN1852:
        mov       QWORD PTR [160+rbp], rsi                      ;\\Mac\Home\Documents\Studium\6. Semester\Bachelorarbeit\Code\PerformanceTests\Enclave\PerformanceTests_t.c:528.1[spill]
$LN1853:
        mov       QWORD PTR [152+rbp], rbx                      ;\\Mac\Home\Documents\Studium\6. Semester\Bachelorarbeit\Code\PerformanceTests\Enclave\PerformanceTests_t.c:528.1[spill]
$LN1854:
        mov       QWORD PTR [192+rbp], rcx                      ;\\Mac\Home\Documents\Studium\6. Semester\Bachelorarbeit\Code\PerformanceTests\Enclave\PerformanceTests_t.c:528.1
$LN1855:

;;; 	ms_enclaveVByte_t* ms = SGX_CAST(ms_enclaveVByte_t*, pms);

        mov       rax, QWORD PTR [192+rbp]                      ;\\Mac\Home\Documents\Studium\6. Semester\Bachelorarbeit\Code\PerformanceTests\Enclave\PerformanceTests_t.c:529.24
$LN1856:
        mov       QWORD PTR [16+rbp], rax                       ;\\Mac\Home\Documents\Studium\6. Semester\Bachelorarbeit\Code\PerformanceTests\Enclave\PerformanceTests_t.c:529.24
$LN1857:

;;; 	sgx_status_t status = SGX_SUCCESS;

        mov       DWORD PTR [rbp], 0                            ;\\Mac\Home\Documents\Studium\6. Semester\Bachelorarbeit\Code\PerformanceTests\Enclave\PerformanceTests_t.c:530.22
$LN1858:

;;; 	uint8_t* _tmp_in = ms->ms_in;

        mov       rax, QWORD PTR [16+rbp]                       ;\\Mac\Home\Documents\Studium\6. Semester\Bachelorarbeit\Code\PerformanceTests\Enclave\PerformanceTests_t.c:531.19
$LN1859:
        mov       rax, QWORD PTR [8+rax]                        ;\\Mac\Home\Documents\Studium\6. Semester\Bachelorarbeit\Code\PerformanceTests\Enclave\PerformanceTests_t.c:531.19
$LN1860:
        mov       QWORD PTR [24+rbp], rax                       ;\\Mac\Home\Documents\Studium\6. Semester\Bachelorarbeit\Code\PerformanceTests\Enclave\PerformanceTests_t.c:531.19
$LN1861:

;;; 	size_t _tmp_inLength = ms->ms_inLength;

        mov       rax, QWORD PTR [16+rbp]                       ;\\Mac\Home\Documents\Studium\6. Semester\Bachelorarbeit\Code\PerformanceTests\Enclave\PerformanceTests_t.c:532.23
$LN1862:
        mov       rax, QWORD PTR [16+rax]                       ;\\Mac\Home\Documents\Studium\6. Semester\Bachelorarbeit\Code\PerformanceTests\Enclave\PerformanceTests_t.c:532.23
$LN1863:
        mov       QWORD PTR [32+rbp], rax                       ;\\Mac\Home\Documents\Studium\6. Semester\Bachelorarbeit\Code\PerformanceTests\Enclave\PerformanceTests_t.c:532.23
$LN1864:

;;; 	size_t _len_in = _tmp_inLength;

        mov       rax, QWORD PTR [32+rbp]                       ;\\Mac\Home\Documents\Studium\6. Semester\Bachelorarbeit\Code\PerformanceTests\Enclave\PerformanceTests_t.c:533.17
$LN1865:
        mov       QWORD PTR [40+rbp], rax                       ;\\Mac\Home\Documents\Studium\6. Semester\Bachelorarbeit\Code\PerformanceTests\Enclave\PerformanceTests_t.c:533.17
$LN1866:

;;; 	uint8_t* _in_in = NULL;

        mov       QWORD PTR [48+rbp], 0                         ;\\Mac\Home\Documents\Studium\6. Semester\Bachelorarbeit\Code\PerformanceTests\Enclave\PerformanceTests_t.c:534.18
$LN1867:

;;; 	uint8_t* _tmp_out = ms->ms_out;

        mov       rax, QWORD PTR [16+rbp]                       ;\\Mac\Home\Documents\Studium\6. Semester\Bachelorarbeit\Code\PerformanceTests\Enclave\PerformanceTests_t.c:535.20
$LN1868:
        mov       rax, QWORD PTR [24+rax]                       ;\\Mac\Home\Documents\Studium\6. Semester\Bachelorarbeit\Code\PerformanceTests\Enclave\PerformanceTests_t.c:535.20
$LN1869:
        mov       QWORD PTR [56+rbp], rax                       ;\\Mac\Home\Documents\Studium\6. Semester\Bachelorarbeit\Code\PerformanceTests\Enclave\PerformanceTests_t.c:535.20
$LN1870:

;;; 	size_t _tmp_outLength = ms->ms_outLength;

        mov       rax, QWORD PTR [16+rbp]                       ;\\Mac\Home\Documents\Studium\6. Semester\Bachelorarbeit\Code\PerformanceTests\Enclave\PerformanceTests_t.c:536.24
$LN1871:
        mov       rax, QWORD PTR [32+rax]                       ;\\Mac\Home\Documents\Studium\6. Semester\Bachelorarbeit\Code\PerformanceTests\Enclave\PerformanceTests_t.c:536.24
$LN1872:
        mov       QWORD PTR [64+rbp], rax                       ;\\Mac\Home\Documents\Studium\6. Semester\Bachelorarbeit\Code\PerformanceTests\Enclave\PerformanceTests_t.c:536.24
$LN1873:

;;; 	size_t _len_out = _tmp_outLength;

        mov       rax, QWORD PTR [64+rbp]                       ;\\Mac\Home\Documents\Studium\6. Semester\Bachelorarbeit\Code\PerformanceTests\Enclave\PerformanceTests_t.c:537.18
$LN1874:
        mov       QWORD PTR [72+rbp], rax                       ;\\Mac\Home\Documents\Studium\6. Semester\Bachelorarbeit\Code\PerformanceTests\Enclave\PerformanceTests_t.c:537.18
$LN1875:

;;; 	uint8_t* _in_out = NULL;

        mov       QWORD PTR [80+rbp], 0                         ;\\Mac\Home\Documents\Studium\6. Semester\Bachelorarbeit\Code\PerformanceTests\Enclave\PerformanceTests_t.c:538.19
$LN1876:
                                ; LOE rbp rsp r12 r13 r14 r15 rip zmm6 zmm7 zmm8 zmm9 zmm10 zmm11 zmm12 zmm13 zmm14 zmm15
.B10.2::                        ; Preds .B10.5 .B10.1
                                ; Execution count [0.00e+000]
$LN1877:

;;; 
;;; 	CHECK_REF_POINTER(pms, sizeof(ms_enclaveVByte_t));

        mov       rax, QWORD PTR [192+rbp]                      ;\\Mac\Home\Documents\Studium\6. Semester\Bachelorarbeit\Code\PerformanceTests\Enclave\PerformanceTests_t.c:540.2
$LN1878:
        test      rax, rax                                      ;\\Mac\Home\Documents\Studium\6. Semester\Bachelorarbeit\Code\PerformanceTests\Enclave\PerformanceTests_t.c:540.2
$LN1879:
        je        .B10.6        ; Prob 50%                      ;\\Mac\Home\Documents\Studium\6. Semester\Bachelorarbeit\Code\PerformanceTests\Enclave\PerformanceTests_t.c:540.2
$LN1880:
                                ; LOE rbp rsp r12 r13 r14 r15 rip zmm6 zmm7 zmm8 zmm9 zmm10 zmm11 zmm12 zmm13 zmm14 zmm15
.B10.3::                        ; Preds .B10.2
                                ; Execution count [0.00e+000]
$LN1881:
        mov       rax, QWORD PTR [192+rbp]                      ;\\Mac\Home\Documents\Studium\6. Semester\Bachelorarbeit\Code\PerformanceTests\Enclave\PerformanceTests_t.c:540.2
$LN1882:
        mov       edx, 40                                       ;\\Mac\Home\Documents\Studium\6. Semester\Bachelorarbeit\Code\PerformanceTests\Enclave\PerformanceTests_t.c:540.2
$LN1883:
        mov       rcx, rax                                      ;\\Mac\Home\Documents\Studium\6. Semester\Bachelorarbeit\Code\PerformanceTests\Enclave\PerformanceTests_t.c:540.2
$LN1884:
;       sgx_is_outside_enclave(const void *, size_t)
        call      sgx_is_outside_enclave                        ;\\Mac\Home\Documents\Studium\6. Semester\Bachelorarbeit\Code\PerformanceTests\Enclave\PerformanceTests_t.c:540.2
$LN1885:
                                ; LOE rbp rsp r12 r13 r14 r15 rip eax zmm6 zmm7 zmm8 zmm9 zmm10 zmm11 zmm12 zmm13 zmm14 zmm15
.B10.37::                       ; Preds .B10.3
                                ; Execution count [0.00e+000]
$LN1886:
        mov       DWORD PTR [4+rbp], eax                        ;\\Mac\Home\Documents\Studium\6. Semester\Bachelorarbeit\Code\PerformanceTests\Enclave\PerformanceTests_t.c:540.2
$LN1887:
                                ; LOE rbp rsp r12 r13 r14 r15 rip zmm6 zmm7 zmm8 zmm9 zmm10 zmm11 zmm12 zmm13 zmm14 zmm15
.B10.4::                        ; Preds .B10.37
                                ; Execution count [0.00e+000]
$LN1888:
        mov       eax, DWORD PTR [4+rbp]                        ;\\Mac\Home\Documents\Studium\6. Semester\Bachelorarbeit\Code\PerformanceTests\Enclave\PerformanceTests_t.c:540.2
$LN1889:
        test      eax, eax                                      ;\\Mac\Home\Documents\Studium\6. Semester\Bachelorarbeit\Code\PerformanceTests\Enclave\PerformanceTests_t.c:540.2
$LN1890:
        je        .B10.6        ; Prob 50%                      ;\\Mac\Home\Documents\Studium\6. Semester\Bachelorarbeit\Code\PerformanceTests\Enclave\PerformanceTests_t.c:540.2
$LN1891:
                                ; LOE rbp rsp r12 r13 r14 r15 rip zmm6 zmm7 zmm8 zmm9 zmm10 zmm11 zmm12 zmm13 zmm14 zmm15
.B10.5::                        ; Preds .B10.4
                                ; Execution count [0.00e+000]
$LN1892:
        mov       eax, 0                                        ;\\Mac\Home\Documents\Studium\6. Semester\Bachelorarbeit\Code\PerformanceTests\Enclave\PerformanceTests_t.c:540.2
$LN1893:
        test      eax, eax                                      ;\\Mac\Home\Documents\Studium\6. Semester\Bachelorarbeit\Code\PerformanceTests\Enclave\PerformanceTests_t.c:540.2
$LN1894:
        jne       .B10.2        ; Prob 0%                       ;\\Mac\Home\Documents\Studium\6. Semester\Bachelorarbeit\Code\PerformanceTests\Enclave\PerformanceTests_t.c:540.2
$LN1895:
        jmp       .B10.7        ; Prob 100%                     ;\\Mac\Home\Documents\Studium\6. Semester\Bachelorarbeit\Code\PerformanceTests\Enclave\PerformanceTests_t.c:540.2
$LN1896:
                                ; LOE rbp rsp r12 r13 r14 r15 rip zmm6 zmm7 zmm8 zmm9 zmm10 zmm11 zmm12 zmm13 zmm14 zmm15
.B10.6::                        ; Preds .B10.2 .B10.4
                                ; Execution count [0.00e+000]
$LN1897:
        mov       eax, 2                                        ;\\Mac\Home\Documents\Studium\6. Semester\Bachelorarbeit\Code\PerformanceTests\Enclave\PerformanceTests_t.c:540.2
$LN1898:
        mov       rbx, QWORD PTR [152+rbp]                      ;\\Mac\Home\Documents\Studium\6. Semester\Bachelorarbeit\Code\PerformanceTests\Enclave\PerformanceTests_t.c:540.2[spill]
$LN1899:
        mov       rsi, QWORD PTR [160+rbp]                      ;\\Mac\Home\Documents\Studium\6. Semester\Bachelorarbeit\Code\PerformanceTests\Enclave\PerformanceTests_t.c:540.2[spill]
$LN1900:
        mov       rdi, QWORD PTR [168+rbp]                      ;\\Mac\Home\Documents\Studium\6. Semester\Bachelorarbeit\Code\PerformanceTests\Enclave\PerformanceTests_t.c:540.2[spill]
$LN1901:
        lea       rsp, QWORD PTR [176+rbp]                      ;\\Mac\Home\Documents\Studium\6. Semester\Bachelorarbeit\Code\PerformanceTests\Enclave\PerformanceTests_t.c:540.2
$LN1902:
        pop       rbp                                           ;\\Mac\Home\Documents\Studium\6. Semester\Bachelorarbeit\Code\PerformanceTests\Enclave\PerformanceTests_t.c:540.2
$LN1903:
        ret                                                     ;\\Mac\Home\Documents\Studium\6. Semester\Bachelorarbeit\Code\PerformanceTests\Enclave\PerformanceTests_t.c:540.2
$LN1904:
                                ; LOE
.B10.7::                        ; Preds .B10.10 .B10.5
                                ; Execution count [0.00e+000]
$LN1905:

;;; 	CHECK_UNIQUE_POINTER(_tmp_in, _len_in);

        mov       rax, QWORD PTR [24+rbp]                       ;\\Mac\Home\Documents\Studium\6. Semester\Bachelorarbeit\Code\PerformanceTests\Enclave\PerformanceTests_t.c:541.2
$LN1906:
        test      rax, rax                                      ;\\Mac\Home\Documents\Studium\6. Semester\Bachelorarbeit\Code\PerformanceTests\Enclave\PerformanceTests_t.c:541.2
$LN1907:
        je        .B10.10       ; Prob 50%                      ;\\Mac\Home\Documents\Studium\6. Semester\Bachelorarbeit\Code\PerformanceTests\Enclave\PerformanceTests_t.c:541.2
$LN1908:
                                ; LOE rbp rsp r12 r13 r14 r15 rip zmm6 zmm7 zmm8 zmm9 zmm10 zmm11 zmm12 zmm13 zmm14 zmm15
.B10.8::                        ; Preds .B10.7
                                ; Execution count [0.00e+000]
$LN1909:
        mov       rax, QWORD PTR [24+rbp]                       ;\\Mac\Home\Documents\Studium\6. Semester\Bachelorarbeit\Code\PerformanceTests\Enclave\PerformanceTests_t.c:541.2
$LN1910:
        mov       rdx, QWORD PTR [40+rbp]                       ;\\Mac\Home\Documents\Studium\6. Semester\Bachelorarbeit\Code\PerformanceTests\Enclave\PerformanceTests_t.c:541.2
$LN1911:
        mov       rcx, rax                                      ;\\Mac\Home\Documents\Studium\6. Semester\Bachelorarbeit\Code\PerformanceTests\Enclave\PerformanceTests_t.c:541.2
$LN1912:
;       sgx_is_outside_enclave(const void *, size_t)
        call      sgx_is_outside_enclave                        ;\\Mac\Home\Documents\Studium\6. Semester\Bachelorarbeit\Code\PerformanceTests\Enclave\PerformanceTests_t.c:541.2
$LN1913:
                                ; LOE rbp rsp r12 r13 r14 r15 rip eax zmm6 zmm7 zmm8 zmm9 zmm10 zmm11 zmm12 zmm13 zmm14 zmm15
.B10.38::                       ; Preds .B10.8
                                ; Execution count [0.00e+000]
$LN1914:
        mov       DWORD PTR [8+rbp], eax                        ;\\Mac\Home\Documents\Studium\6. Semester\Bachelorarbeit\Code\PerformanceTests\Enclave\PerformanceTests_t.c:541.2
$LN1915:
                                ; LOE rbp rsp r12 r13 r14 r15 rip zmm6 zmm7 zmm8 zmm9 zmm10 zmm11 zmm12 zmm13 zmm14 zmm15
.B10.9::                        ; Preds .B10.38
                                ; Execution count [0.00e+000]
$LN1916:
        mov       eax, DWORD PTR [8+rbp]                        ;\\Mac\Home\Documents\Studium\6. Semester\Bachelorarbeit\Code\PerformanceTests\Enclave\PerformanceTests_t.c:541.2
$LN1917:
        test      eax, eax                                      ;\\Mac\Home\Documents\Studium\6. Semester\Bachelorarbeit\Code\PerformanceTests\Enclave\PerformanceTests_t.c:541.2
$LN1918:
        je        .B10.11       ; Prob 50%                      ;\\Mac\Home\Documents\Studium\6. Semester\Bachelorarbeit\Code\PerformanceTests\Enclave\PerformanceTests_t.c:541.2
$LN1919:
                                ; LOE rbp rsp r12 r13 r14 r15 rip zmm6 zmm7 zmm8 zmm9 zmm10 zmm11 zmm12 zmm13 zmm14 zmm15
.B10.10::                       ; Preds .B10.9 .B10.7
                                ; Execution count [0.00e+000]
$LN1920:
        mov       eax, 0                                        ;\\Mac\Home\Documents\Studium\6. Semester\Bachelorarbeit\Code\PerformanceTests\Enclave\PerformanceTests_t.c:541.2
$LN1921:
        test      eax, eax                                      ;\\Mac\Home\Documents\Studium\6. Semester\Bachelorarbeit\Code\PerformanceTests\Enclave\PerformanceTests_t.c:541.2
$LN1922:
        jne       .B10.7        ; Prob 0%                       ;\\Mac\Home\Documents\Studium\6. Semester\Bachelorarbeit\Code\PerformanceTests\Enclave\PerformanceTests_t.c:541.2
$LN1923:
        jmp       .B10.12       ; Prob 100%                     ;\\Mac\Home\Documents\Studium\6. Semester\Bachelorarbeit\Code\PerformanceTests\Enclave\PerformanceTests_t.c:541.2
$LN1924:
                                ; LOE rbp rsp r12 r13 r14 r15 rip zmm6 zmm7 zmm8 zmm9 zmm10 zmm11 zmm12 zmm13 zmm14 zmm15
.B10.11::                       ; Preds .B10.9
                                ; Execution count [0.00e+000]
$LN1925:
        mov       eax, 2                                        ;\\Mac\Home\Documents\Studium\6. Semester\Bachelorarbeit\Code\PerformanceTests\Enclave\PerformanceTests_t.c:541.2
$LN1926:
        mov       rbx, QWORD PTR [152+rbp]                      ;\\Mac\Home\Documents\Studium\6. Semester\Bachelorarbeit\Code\PerformanceTests\Enclave\PerformanceTests_t.c:541.2[spill]
$LN1927:
        mov       rsi, QWORD PTR [160+rbp]                      ;\\Mac\Home\Documents\Studium\6. Semester\Bachelorarbeit\Code\PerformanceTests\Enclave\PerformanceTests_t.c:541.2[spill]
$LN1928:
        mov       rdi, QWORD PTR [168+rbp]                      ;\\Mac\Home\Documents\Studium\6. Semester\Bachelorarbeit\Code\PerformanceTests\Enclave\PerformanceTests_t.c:541.2[spill]
$LN1929:
        lea       rsp, QWORD PTR [176+rbp]                      ;\\Mac\Home\Documents\Studium\6. Semester\Bachelorarbeit\Code\PerformanceTests\Enclave\PerformanceTests_t.c:541.2
$LN1930:
        pop       rbp                                           ;\\Mac\Home\Documents\Studium\6. Semester\Bachelorarbeit\Code\PerformanceTests\Enclave\PerformanceTests_t.c:541.2
$LN1931:
        ret                                                     ;\\Mac\Home\Documents\Studium\6. Semester\Bachelorarbeit\Code\PerformanceTests\Enclave\PerformanceTests_t.c:541.2
$LN1932:
                                ; LOE
.B10.12::                       ; Preds .B10.15 .B10.10
                                ; Execution count [0.00e+000]
$LN1933:

;;; 	CHECK_UNIQUE_POINTER(_tmp_out, _len_out);

        mov       rax, QWORD PTR [56+rbp]                       ;\\Mac\Home\Documents\Studium\6. Semester\Bachelorarbeit\Code\PerformanceTests\Enclave\PerformanceTests_t.c:542.2
$LN1934:
        test      rax, rax                                      ;\\Mac\Home\Documents\Studium\6. Semester\Bachelorarbeit\Code\PerformanceTests\Enclave\PerformanceTests_t.c:542.2
$LN1935:
        je        .B10.15       ; Prob 50%                      ;\\Mac\Home\Documents\Studium\6. Semester\Bachelorarbeit\Code\PerformanceTests\Enclave\PerformanceTests_t.c:542.2
$LN1936:
                                ; LOE rbp rsp r12 r13 r14 r15 rip zmm6 zmm7 zmm8 zmm9 zmm10 zmm11 zmm12 zmm13 zmm14 zmm15
.B10.13::                       ; Preds .B10.12
                                ; Execution count [0.00e+000]
$LN1937:
        mov       rax, QWORD PTR [56+rbp]                       ;\\Mac\Home\Documents\Studium\6. Semester\Bachelorarbeit\Code\PerformanceTests\Enclave\PerformanceTests_t.c:542.2
$LN1938:
        mov       rdx, QWORD PTR [72+rbp]                       ;\\Mac\Home\Documents\Studium\6. Semester\Bachelorarbeit\Code\PerformanceTests\Enclave\PerformanceTests_t.c:542.2
$LN1939:
        mov       rcx, rax                                      ;\\Mac\Home\Documents\Studium\6. Semester\Bachelorarbeit\Code\PerformanceTests\Enclave\PerformanceTests_t.c:542.2
$LN1940:
;       sgx_is_outside_enclave(const void *, size_t)
        call      sgx_is_outside_enclave                        ;\\Mac\Home\Documents\Studium\6. Semester\Bachelorarbeit\Code\PerformanceTests\Enclave\PerformanceTests_t.c:542.2
$LN1941:
                                ; LOE rbp rsp r12 r13 r14 r15 rip eax zmm6 zmm7 zmm8 zmm9 zmm10 zmm11 zmm12 zmm13 zmm14 zmm15
.B10.39::                       ; Preds .B10.13
                                ; Execution count [0.00e+000]
$LN1942:
        mov       DWORD PTR [12+rbp], eax                       ;\\Mac\Home\Documents\Studium\6. Semester\Bachelorarbeit\Code\PerformanceTests\Enclave\PerformanceTests_t.c:542.2
$LN1943:
                                ; LOE rbp rsp r12 r13 r14 r15 rip zmm6 zmm7 zmm8 zmm9 zmm10 zmm11 zmm12 zmm13 zmm14 zmm15
.B10.14::                       ; Preds .B10.39
                                ; Execution count [0.00e+000]
$LN1944:
        mov       eax, DWORD PTR [12+rbp]                       ;\\Mac\Home\Documents\Studium\6. Semester\Bachelorarbeit\Code\PerformanceTests\Enclave\PerformanceTests_t.c:542.2
$LN1945:
        test      eax, eax                                      ;\\Mac\Home\Documents\Studium\6. Semester\Bachelorarbeit\Code\PerformanceTests\Enclave\PerformanceTests_t.c:542.2
$LN1946:
        je        .B10.16       ; Prob 50%                      ;\\Mac\Home\Documents\Studium\6. Semester\Bachelorarbeit\Code\PerformanceTests\Enclave\PerformanceTests_t.c:542.2
$LN1947:
                                ; LOE rbp rsp r12 r13 r14 r15 rip zmm6 zmm7 zmm8 zmm9 zmm10 zmm11 zmm12 zmm13 zmm14 zmm15
.B10.15::                       ; Preds .B10.14 .B10.12
                                ; Execution count [0.00e+000]
$LN1948:
        mov       eax, 0                                        ;\\Mac\Home\Documents\Studium\6. Semester\Bachelorarbeit\Code\PerformanceTests\Enclave\PerformanceTests_t.c:542.2
$LN1949:
        test      eax, eax                                      ;\\Mac\Home\Documents\Studium\6. Semester\Bachelorarbeit\Code\PerformanceTests\Enclave\PerformanceTests_t.c:542.2
$LN1950:
        jne       .B10.12       ; Prob 0%                       ;\\Mac\Home\Documents\Studium\6. Semester\Bachelorarbeit\Code\PerformanceTests\Enclave\PerformanceTests_t.c:542.2
$LN1951:
        jmp       .B10.17       ; Prob 100%                     ;\\Mac\Home\Documents\Studium\6. Semester\Bachelorarbeit\Code\PerformanceTests\Enclave\PerformanceTests_t.c:542.2
$LN1952:
                                ; LOE rbp rsp r12 r13 r14 r15 rip zmm6 zmm7 zmm8 zmm9 zmm10 zmm11 zmm12 zmm13 zmm14 zmm15
.B10.16::                       ; Preds .B10.14
                                ; Execution count [0.00e+000]
$LN1953:
        mov       eax, 2                                        ;\\Mac\Home\Documents\Studium\6. Semester\Bachelorarbeit\Code\PerformanceTests\Enclave\PerformanceTests_t.c:542.2
$LN1954:
        mov       rbx, QWORD PTR [152+rbp]                      ;\\Mac\Home\Documents\Studium\6. Semester\Bachelorarbeit\Code\PerformanceTests\Enclave\PerformanceTests_t.c:542.2[spill]
$LN1955:
        mov       rsi, QWORD PTR [160+rbp]                      ;\\Mac\Home\Documents\Studium\6. Semester\Bachelorarbeit\Code\PerformanceTests\Enclave\PerformanceTests_t.c:542.2[spill]
$LN1956:
        mov       rdi, QWORD PTR [168+rbp]                      ;\\Mac\Home\Documents\Studium\6. Semester\Bachelorarbeit\Code\PerformanceTests\Enclave\PerformanceTests_t.c:542.2[spill]
$LN1957:
        lea       rsp, QWORD PTR [176+rbp]                      ;\\Mac\Home\Documents\Studium\6. Semester\Bachelorarbeit\Code\PerformanceTests\Enclave\PerformanceTests_t.c:542.2
$LN1958:
        pop       rbp                                           ;\\Mac\Home\Documents\Studium\6. Semester\Bachelorarbeit\Code\PerformanceTests\Enclave\PerformanceTests_t.c:542.2
$LN1959:
        ret                                                     ;\\Mac\Home\Documents\Studium\6. Semester\Bachelorarbeit\Code\PerformanceTests\Enclave\PerformanceTests_t.c:542.2
$LN1960:
                                ; LOE
.B10.17::                       ; Preds .B10.15
                                ; Execution count [0.00e+000]
$LN1961:

;;; 
;;; 	if (_tmp_in != NULL) {

        mov       rax, QWORD PTR [24+rbp]                       ;\\Mac\Home\Documents\Studium\6. Semester\Bachelorarbeit\Code\PerformanceTests\Enclave\PerformanceTests_t.c:544.2
$LN1962:
        test      rax, rax                                      ;\\Mac\Home\Documents\Studium\6. Semester\Bachelorarbeit\Code\PerformanceTests\Enclave\PerformanceTests_t.c:544.2
$LN1963:
        je        .B10.22       ; Prob 50%                      ;\\Mac\Home\Documents\Studium\6. Semester\Bachelorarbeit\Code\PerformanceTests\Enclave\PerformanceTests_t.c:544.2
$LN1964:
                                ; LOE rbp rsp r12 r13 r14 r15 rip zmm6 zmm7 zmm8 zmm9 zmm10 zmm11 zmm12 zmm13 zmm14 zmm15
.B10.18::                       ; Preds .B10.17
                                ; Execution count [0.00e+000]
$LN1965:

;;; 		_in_in = (uint8_t*)malloc(_len_in);

        mov       rax, QWORD PTR [40+rbp]                       ;\\Mac\Home\Documents\Studium\6. Semester\Bachelorarbeit\Code\PerformanceTests\Enclave\PerformanceTests_t.c:545.3
$LN1966:
        mov       rcx, rax                                      ;\\Mac\Home\Documents\Studium\6. Semester\Bachelorarbeit\Code\PerformanceTests\Enclave\PerformanceTests_t.c:545.3
$LN1967:
;       malloc(size_t)
        call      malloc                                        ;\\Mac\Home\Documents\Studium\6. Semester\Bachelorarbeit\Code\PerformanceTests\Enclave\PerformanceTests_t.c:545.3
$LN1968:
                                ; LOE rax rbp rsp r12 r13 r14 r15 rip zmm6 zmm7 zmm8 zmm9 zmm10 zmm11 zmm12 zmm13 zmm14 zmm15
.B10.40::                       ; Preds .B10.18
                                ; Execution count [0.00e+000]
$LN1969:
        mov       QWORD PTR [88+rbp], rax                       ;\\Mac\Home\Documents\Studium\6. Semester\Bachelorarbeit\Code\PerformanceTests\Enclave\PerformanceTests_t.c:545.3
$LN1970:
                                ; LOE rbp rsp r12 r13 r14 r15 rip zmm6 zmm7 zmm8 zmm9 zmm10 zmm11 zmm12 zmm13 zmm14 zmm15
.B10.19::                       ; Preds .B10.40
                                ; Execution count [0.00e+000]
$LN1971:
        mov       rax, QWORD PTR [88+rbp]                       ;\\Mac\Home\Documents\Studium\6. Semester\Bachelorarbeit\Code\PerformanceTests\Enclave\PerformanceTests_t.c:545.3
$LN1972:
        mov       QWORD PTR [48+rbp], rax                       ;\\Mac\Home\Documents\Studium\6. Semester\Bachelorarbeit\Code\PerformanceTests\Enclave\PerformanceTests_t.c:545.3
$LN1973:

;;; 		if (_in_in == NULL) {

        mov       rax, QWORD PTR [48+rbp]                       ;\\Mac\Home\Documents\Studium\6. Semester\Bachelorarbeit\Code\PerformanceTests\Enclave\PerformanceTests_t.c:546.3
$LN1974:
        test      rax, rax                                      ;\\Mac\Home\Documents\Studium\6. Semester\Bachelorarbeit\Code\PerformanceTests\Enclave\PerformanceTests_t.c:546.3
$LN1975:
        jne       .B10.21       ; Prob 50%                      ;\\Mac\Home\Documents\Studium\6. Semester\Bachelorarbeit\Code\PerformanceTests\Enclave\PerformanceTests_t.c:546.3
$LN1976:
                                ; LOE rbp rsp r12 r13 r14 r15 rip zmm6 zmm7 zmm8 zmm9 zmm10 zmm11 zmm12 zmm13 zmm14 zmm15
.B10.20::                       ; Preds .B10.19
                                ; Execution count [0.00e+000]
$LN1977:

;;; 			status = SGX_ERROR_OUT_OF_MEMORY;

        mov       DWORD PTR [rbp], 3                            ;\\Mac\Home\Documents\Studium\6. Semester\Bachelorarbeit\Code\PerformanceTests\Enclave\PerformanceTests_t.c:547.4
$LN1978:
        jmp       .B10.29       ; Prob 100%                     ;\\Mac\Home\Documents\Studium\6. Semester\Bachelorarbeit\Code\PerformanceTests\Enclave\PerformanceTests_t.c:547.4
$LN1979:
                                ; LOE rbp rsp r12 r13 r14 r15 rip zmm6 zmm7 zmm8 zmm9 zmm10 zmm11 zmm12 zmm13 zmm14 zmm15
.B10.21::                       ; Preds .B10.19
                                ; Execution count [0.00e+000]
$LN1980:

;;; 			goto err;
;;; 		}
;;; 
;;; 		memcpy(_in_in, _tmp_in, _len_in);

        mov       rax, QWORD PTR [48+rbp]                       ;\\Mac\Home\Documents\Studium\6. Semester\Bachelorarbeit\Code\PerformanceTests\Enclave\PerformanceTests_t.c:551.3
$LN1981:
        mov       rdx, QWORD PTR [24+rbp]                       ;\\Mac\Home\Documents\Studium\6. Semester\Bachelorarbeit\Code\PerformanceTests\Enclave\PerformanceTests_t.c:551.3
$LN1982:
        mov       rcx, QWORD PTR [40+rbp]                       ;\\Mac\Home\Documents\Studium\6. Semester\Bachelorarbeit\Code\PerformanceTests\Enclave\PerformanceTests_t.c:551.3
$LN1983:
        mov       rdi, rax                                      ;\\Mac\Home\Documents\Studium\6. Semester\Bachelorarbeit\Code\PerformanceTests\Enclave\PerformanceTests_t.c:551.3
$LN1984:
        mov       rsi, rdx                                      ;\\Mac\Home\Documents\Studium\6. Semester\Bachelorarbeit\Code\PerformanceTests\Enclave\PerformanceTests_t.c:551.3
$LN1985:
        mov       rdx, rdi                                      ;\\Mac\Home\Documents\Studium\6. Semester\Bachelorarbeit\Code\PerformanceTests\Enclave\PerformanceTests_t.c:551.3
$LN1986:
        mov       eax, ecx                                      ;\\Mac\Home\Documents\Studium\6. Semester\Bachelorarbeit\Code\PerformanceTests\Enclave\PerformanceTests_t.c:551.3
$LN1987:
        shr       rcx, 2                                        ;\\Mac\Home\Documents\Studium\6. Semester\Bachelorarbeit\Code\PerformanceTests\Enclave\PerformanceTests_t.c:551.3
$LN1988:
        rep   movsd                                             ;\\Mac\Home\Documents\Studium\6. Semester\Bachelorarbeit\Code\PerformanceTests\Enclave\PerformanceTests_t.c:551.3
$LN1989:
        mov       ecx, eax                                      ;\\Mac\Home\Documents\Studium\6. Semester\Bachelorarbeit\Code\PerformanceTests\Enclave\PerformanceTests_t.c:551.3
$LN1990:
        and       ecx, 3                                        ;\\Mac\Home\Documents\Studium\6. Semester\Bachelorarbeit\Code\PerformanceTests\Enclave\PerformanceTests_t.c:551.3
$LN1991:
        rep   movsb                                             ;\\Mac\Home\Documents\Studium\6. Semester\Bachelorarbeit\Code\PerformanceTests\Enclave\PerformanceTests_t.c:551.3
$LN1992:
        mov       rax, rdx                                      ;\\Mac\Home\Documents\Studium\6. Semester\Bachelorarbeit\Code\PerformanceTests\Enclave\PerformanceTests_t.c:551.3
$LN1993:
                                ; LOE rax rbp rsp r12 r13 r14 r15 rip zmm6 zmm7 zmm8 zmm9 zmm10 zmm11 zmm12 zmm13 zmm14 zmm15
.B10.41::                       ; Preds .B10.21
                                ; Execution count [0.00e+000]
$LN1994:
        mov       QWORD PTR [112+rbp], rax                      ;\\Mac\Home\Documents\Studium\6. Semester\Bachelorarbeit\Code\PerformanceTests\Enclave\PerformanceTests_t.c:551.3
$LN1995:
                                ; LOE rbp rsp r12 r13 r14 r15 rip zmm6 zmm7 zmm8 zmm9 zmm10 zmm11 zmm12 zmm13 zmm14 zmm15
.B10.22::                       ; Preds .B10.41 .B10.17
                                ; Execution count [0.00e+000]
$LN1996:

;;; 	}
;;; 	if (_tmp_out != NULL) {

        mov       rax, QWORD PTR [56+rbp]                       ;\\Mac\Home\Documents\Studium\6. Semester\Bachelorarbeit\Code\PerformanceTests\Enclave\PerformanceTests_t.c:553.2
$LN1997:
        test      rax, rax                                      ;\\Mac\Home\Documents\Studium\6. Semester\Bachelorarbeit\Code\PerformanceTests\Enclave\PerformanceTests_t.c:553.2
$LN1998:
        je        .B10.27       ; Prob 50%                      ;\\Mac\Home\Documents\Studium\6. Semester\Bachelorarbeit\Code\PerformanceTests\Enclave\PerformanceTests_t.c:553.2
$LN1999:
                                ; LOE rbp rsp r12 r13 r14 r15 rip zmm6 zmm7 zmm8 zmm9 zmm10 zmm11 zmm12 zmm13 zmm14 zmm15
.B10.23::                       ; Preds .B10.22
                                ; Execution count [0.00e+000]
$LN2000:

;;; 		if ((_in_out = (uint8_t*)malloc(_len_out)) == NULL) {

        mov       rax, QWORD PTR [72+rbp]                       ;\\Mac\Home\Documents\Studium\6. Semester\Bachelorarbeit\Code\PerformanceTests\Enclave\PerformanceTests_t.c:554.3
$LN2001:
        mov       rcx, rax                                      ;\\Mac\Home\Documents\Studium\6. Semester\Bachelorarbeit\Code\PerformanceTests\Enclave\PerformanceTests_t.c:554.3
$LN2002:
;       malloc(size_t)
        call      malloc                                        ;\\Mac\Home\Documents\Studium\6. Semester\Bachelorarbeit\Code\PerformanceTests\Enclave\PerformanceTests_t.c:554.3
$LN2003:
                                ; LOE rax rbp rsp r12 r13 r14 r15 rip zmm6 zmm7 zmm8 zmm9 zmm10 zmm11 zmm12 zmm13 zmm14 zmm15
.B10.42::                       ; Preds .B10.23
                                ; Execution count [0.00e+000]
$LN2004:
        mov       QWORD PTR [96+rbp], rax                       ;\\Mac\Home\Documents\Studium\6. Semester\Bachelorarbeit\Code\PerformanceTests\Enclave\PerformanceTests_t.c:554.3
$LN2005:
                                ; LOE rbp rsp r12 r13 r14 r15 rip zmm6 zmm7 zmm8 zmm9 zmm10 zmm11 zmm12 zmm13 zmm14 zmm15
.B10.24::                       ; Preds .B10.42
                                ; Execution count [0.00e+000]
$LN2006:
        mov       rax, QWORD PTR [96+rbp]                       ;\\Mac\Home\Documents\Studium\6. Semester\Bachelorarbeit\Code\PerformanceTests\Enclave\PerformanceTests_t.c:554.3
$LN2007:
        mov       QWORD PTR [120+rbp], rax                      ;\\Mac\Home\Documents\Studium\6. Semester\Bachelorarbeit\Code\PerformanceTests\Enclave\PerformanceTests_t.c:554.3
$LN2008:
        mov       rax, QWORD PTR [120+rbp]                      ;\\Mac\Home\Documents\Studium\6. Semester\Bachelorarbeit\Code\PerformanceTests\Enclave\PerformanceTests_t.c:554.3
$LN2009:
        mov       QWORD PTR [80+rbp], rax                       ;\\Mac\Home\Documents\Studium\6. Semester\Bachelorarbeit\Code\PerformanceTests\Enclave\PerformanceTests_t.c:554.3
$LN2010:
        mov       rax, QWORD PTR [120+rbp]                      ;\\Mac\Home\Documents\Studium\6. Semester\Bachelorarbeit\Code\PerformanceTests\Enclave\PerformanceTests_t.c:554.3
$LN2011:
        test      rax, rax                                      ;\\Mac\Home\Documents\Studium\6. Semester\Bachelorarbeit\Code\PerformanceTests\Enclave\PerformanceTests_t.c:554.3
$LN2012:
        jne       .B10.26       ; Prob 50%                      ;\\Mac\Home\Documents\Studium\6. Semester\Bachelorarbeit\Code\PerformanceTests\Enclave\PerformanceTests_t.c:554.3
$LN2013:
                                ; LOE rbp rsp r12 r13 r14 r15 rip zmm6 zmm7 zmm8 zmm9 zmm10 zmm11 zmm12 zmm13 zmm14 zmm15
.B10.25::                       ; Preds .B10.24
                                ; Execution count [0.00e+000]
$LN2014:

;;; 			status = SGX_ERROR_OUT_OF_MEMORY;

        mov       DWORD PTR [rbp], 3                            ;\\Mac\Home\Documents\Studium\6. Semester\Bachelorarbeit\Code\PerformanceTests\Enclave\PerformanceTests_t.c:555.4
$LN2015:
        jmp       .B10.29       ; Prob 100%                     ;\\Mac\Home\Documents\Studium\6. Semester\Bachelorarbeit\Code\PerformanceTests\Enclave\PerformanceTests_t.c:555.4
$LN2016:
                                ; LOE rbp rsp r12 r13 r14 r15 rip zmm6 zmm7 zmm8 zmm9 zmm10 zmm11 zmm12 zmm13 zmm14 zmm15
.B10.26::                       ; Preds .B10.24
                                ; Execution count [0.00e+000]
$LN2017:

;;; 			goto err;
;;; 		}
;;; 
;;; 		memset((void*)_in_out, 0, _len_out);

        mov       rax, QWORD PTR [80+rbp]                       ;\\Mac\Home\Documents\Studium\6. Semester\Bachelorarbeit\Code\PerformanceTests\Enclave\PerformanceTests_t.c:559.3
$LN2018:
        mov       edx, 0                                        ;\\Mac\Home\Documents\Studium\6. Semester\Bachelorarbeit\Code\PerformanceTests\Enclave\PerformanceTests_t.c:559.3
$LN2019:
        mov       rcx, QWORD PTR [72+rbp]                       ;\\Mac\Home\Documents\Studium\6. Semester\Bachelorarbeit\Code\PerformanceTests\Enclave\PerformanceTests_t.c:559.3
$LN2020:
        mov       rdi, rax                                      ;\\Mac\Home\Documents\Studium\6. Semester\Bachelorarbeit\Code\PerformanceTests\Enclave\PerformanceTests_t.c:559.3
$LN2021:
        mov       eax, edx                                      ;\\Mac\Home\Documents\Studium\6. Semester\Bachelorarbeit\Code\PerformanceTests\Enclave\PerformanceTests_t.c:559.3
$LN2022:
        and       eax, 65535                                    ;\\Mac\Home\Documents\Studium\6. Semester\Bachelorarbeit\Code\PerformanceTests\Enclave\PerformanceTests_t.c:559.3
$LN2023:
        mov       ah, al                                        ;\\Mac\Home\Documents\Studium\6. Semester\Bachelorarbeit\Code\PerformanceTests\Enclave\PerformanceTests_t.c:559.3
$LN2024:
        mov       edx, eax                                      ;\\Mac\Home\Documents\Studium\6. Semester\Bachelorarbeit\Code\PerformanceTests\Enclave\PerformanceTests_t.c:559.3
$LN2025:
        shl       eax, 16                                       ;\\Mac\Home\Documents\Studium\6. Semester\Bachelorarbeit\Code\PerformanceTests\Enclave\PerformanceTests_t.c:559.3
$LN2026:
        or        eax, edx                                      ;\\Mac\Home\Documents\Studium\6. Semester\Bachelorarbeit\Code\PerformanceTests\Enclave\PerformanceTests_t.c:559.3
$LN2027:
        mov       esi, ecx                                      ;\\Mac\Home\Documents\Studium\6. Semester\Bachelorarbeit\Code\PerformanceTests\Enclave\PerformanceTests_t.c:559.3
$LN2028:
        shr       rcx, 2                                        ;\\Mac\Home\Documents\Studium\6. Semester\Bachelorarbeit\Code\PerformanceTests\Enclave\PerformanceTests_t.c:559.3
$LN2029:
        mov       rdx, rdi                                      ;\\Mac\Home\Documents\Studium\6. Semester\Bachelorarbeit\Code\PerformanceTests\Enclave\PerformanceTests_t.c:559.3
$LN2030:
        rep   stosd                                             ;\\Mac\Home\Documents\Studium\6. Semester\Bachelorarbeit\Code\PerformanceTests\Enclave\PerformanceTests_t.c:559.3
$LN2031:
        mov       ecx, esi                                      ;\\Mac\Home\Documents\Studium\6. Semester\Bachelorarbeit\Code\PerformanceTests\Enclave\PerformanceTests_t.c:559.3
$LN2032:
        and       ecx, 3                                        ;\\Mac\Home\Documents\Studium\6. Semester\Bachelorarbeit\Code\PerformanceTests\Enclave\PerformanceTests_t.c:559.3
$LN2033:
        rep   stosb                                             ;\\Mac\Home\Documents\Studium\6. Semester\Bachelorarbeit\Code\PerformanceTests\Enclave\PerformanceTests_t.c:559.3
$LN2034:
        mov       rax, rdx                                      ;\\Mac\Home\Documents\Studium\6. Semester\Bachelorarbeit\Code\PerformanceTests\Enclave\PerformanceTests_t.c:559.3
$LN2035:
                                ; LOE rax rbp rsp r12 r13 r14 r15 rip zmm6 zmm7 zmm8 zmm9 zmm10 zmm11 zmm12 zmm13 zmm14 zmm15
.B10.43::                       ; Preds .B10.26
                                ; Execution count [0.00e+000]
$LN2036:
        mov       QWORD PTR [128+rbp], rax                      ;\\Mac\Home\Documents\Studium\6. Semester\Bachelorarbeit\Code\PerformanceTests\Enclave\PerformanceTests_t.c:559.3
$LN2037:
                                ; LOE rbp rsp r12 r13 r14 r15 rip zmm6 zmm7 zmm8 zmm9 zmm10 zmm11 zmm12 zmm13 zmm14 zmm15
.B10.27::                       ; Preds .B10.43 .B10.22
                                ; Execution count [0.00e+000]
$LN2038:

;;; 	}
;;; 	ms->ms_retval = enclaveVByte(_in_in, _tmp_inLength, _in_out, _tmp_outLength);

        mov       rax, QWORD PTR [48+rbp]                       ;\\Mac\Home\Documents\Studium\6. Semester\Bachelorarbeit\Code\PerformanceTests\Enclave\PerformanceTests_t.c:561.2
$LN2039:
        mov       rdx, QWORD PTR [32+rbp]                       ;\\Mac\Home\Documents\Studium\6. Semester\Bachelorarbeit\Code\PerformanceTests\Enclave\PerformanceTests_t.c:561.2
$LN2040:
        mov       rcx, QWORD PTR [80+rbp]                       ;\\Mac\Home\Documents\Studium\6. Semester\Bachelorarbeit\Code\PerformanceTests\Enclave\PerformanceTests_t.c:561.2
$LN2041:
        mov       rbx, QWORD PTR [64+rbp]                       ;\\Mac\Home\Documents\Studium\6. Semester\Bachelorarbeit\Code\PerformanceTests\Enclave\PerformanceTests_t.c:561.2
$LN2042:
        mov       QWORD PTR [144+rbp], rcx                      ;\\Mac\Home\Documents\Studium\6. Semester\Bachelorarbeit\Code\PerformanceTests\Enclave\PerformanceTests_t.c:561.2[spill]
$LN2043:
        mov       rcx, rax                                      ;\\Mac\Home\Documents\Studium\6. Semester\Bachelorarbeit\Code\PerformanceTests\Enclave\PerformanceTests_t.c:561.2
$LN2044:
        mov       rax, QWORD PTR [144+rbp]                      ;\\Mac\Home\Documents\Studium\6. Semester\Bachelorarbeit\Code\PerformanceTests\Enclave\PerformanceTests_t.c:561.2[spill]
$LN2045:
        mov       r8, rax                                       ;\\Mac\Home\Documents\Studium\6. Semester\Bachelorarbeit\Code\PerformanceTests\Enclave\PerformanceTests_t.c:561.2
$LN2046:
        mov       r9, rbx                                       ;\\Mac\Home\Documents\Studium\6. Semester\Bachelorarbeit\Code\PerformanceTests\Enclave\PerformanceTests_t.c:561.2
$LN2047:
;       enclaveVByte(uint8_t *, size_t, uint8_t *, size_t)
        call      enclaveVByte                                  ;\\Mac\Home\Documents\Studium\6. Semester\Bachelorarbeit\Code\PerformanceTests\Enclave\PerformanceTests_t.c:561.2
$LN2048:
                                ; LOE rax rbp rsp r12 r13 r14 r15 rip zmm6 zmm7 zmm8 zmm9 zmm10 zmm11 zmm12 zmm13 zmm14 zmm15
.B10.44::                       ; Preds .B10.27
                                ; Execution count [0.00e+000]
$LN2049:
        mov       QWORD PTR [104+rbp], rax                      ;\\Mac\Home\Documents\Studium\6. Semester\Bachelorarbeit\Code\PerformanceTests\Enclave\PerformanceTests_t.c:561.2
$LN2050:
                                ; LOE rbp rsp r12 r13 r14 r15 rip zmm6 zmm7 zmm8 zmm9 zmm10 zmm11 zmm12 zmm13 zmm14 zmm15
.B10.28::                       ; Preds .B10.44
                                ; Execution count [0.00e+000]
$LN2051:
        mov       rax, QWORD PTR [16+rbp]                       ;\\Mac\Home\Documents\Studium\6. Semester\Bachelorarbeit\Code\PerformanceTests\Enclave\PerformanceTests_t.c:561.2
$LN2052:
        mov       rdx, QWORD PTR [104+rbp]                      ;\\Mac\Home\Documents\Studium\6. Semester\Bachelorarbeit\Code\PerformanceTests\Enclave\PerformanceTests_t.c:561.2
$LN2053:
        mov       QWORD PTR [rax], rdx                          ;\\Mac\Home\Documents\Studium\6. Semester\Bachelorarbeit\Code\PerformanceTests\Enclave\PerformanceTests_t.c:561.2
$LN2054:
                                ; LOE rbp rsp r12 r13 r14 r15 rip zmm6 zmm7 zmm8 zmm9 zmm10 zmm11 zmm12 zmm13 zmm14 zmm15
.B10.29::                       ; Preds .B10.28 .B10.25 .B10.20
                                ; Execution count [0.00e+000]
$LN2055:

;;; err:
;;; 	if (_in_in) free(_in_in);

        mov       rax, QWORD PTR [48+rbp]                       ;\\Mac\Home\Documents\Studium\6. Semester\Bachelorarbeit\Code\PerformanceTests\Enclave\PerformanceTests_t.c:563.2
$LN2056:
        test      rax, rax                                      ;\\Mac\Home\Documents\Studium\6. Semester\Bachelorarbeit\Code\PerformanceTests\Enclave\PerformanceTests_t.c:563.2
$LN2057:
        je        .B10.31       ; Prob 50%                      ;\\Mac\Home\Documents\Studium\6. Semester\Bachelorarbeit\Code\PerformanceTests\Enclave\PerformanceTests_t.c:563.2
$LN2058:
                                ; LOE rbp rsp r12 r13 r14 r15 rip zmm6 zmm7 zmm8 zmm9 zmm10 zmm11 zmm12 zmm13 zmm14 zmm15
.B10.30::                       ; Preds .B10.29
                                ; Execution count [0.00e+000]
$LN2059:
        mov       rax, QWORD PTR [48+rbp]                       ;\\Mac\Home\Documents\Studium\6. Semester\Bachelorarbeit\Code\PerformanceTests\Enclave\PerformanceTests_t.c:563.14
$LN2060:
        mov       rcx, rax                                      ;\\Mac\Home\Documents\Studium\6. Semester\Bachelorarbeit\Code\PerformanceTests\Enclave\PerformanceTests_t.c:563.14
$LN2061:
;       free(void *)
        call      free                                          ;\\Mac\Home\Documents\Studium\6. Semester\Bachelorarbeit\Code\PerformanceTests\Enclave\PerformanceTests_t.c:563.14
$LN2062:
                                ; LOE rbp rsp r12 r13 r14 r15 rip zmm6 zmm7 zmm8 zmm9 zmm10 zmm11 zmm12 zmm13 zmm14 zmm15
.B10.45::                       ; Preds .B10.30
                                ; Execution count [0.00e+000]
$LN2063:
                                ; LOE rbp rsp r12 r13 r14 r15 rip zmm6 zmm7 zmm8 zmm9 zmm10 zmm11 zmm12 zmm13 zmm14 zmm15
.B10.31::                       ; Preds .B10.45 .B10.29
                                ; Execution count [0.00e+000]
$LN2064:

;;; 	if (_in_out) {

        mov       rax, QWORD PTR [80+rbp]                       ;\\Mac\Home\Documents\Studium\6. Semester\Bachelorarbeit\Code\PerformanceTests\Enclave\PerformanceTests_t.c:564.2
$LN2065:
        test      rax, rax                                      ;\\Mac\Home\Documents\Studium\6. Semester\Bachelorarbeit\Code\PerformanceTests\Enclave\PerformanceTests_t.c:564.2
$LN2066:
        je        .B10.34       ; Prob 50%                      ;\\Mac\Home\Documents\Studium\6. Semester\Bachelorarbeit\Code\PerformanceTests\Enclave\PerformanceTests_t.c:564.2
$LN2067:
                                ; LOE rbp rsp r12 r13 r14 r15 rip zmm6 zmm7 zmm8 zmm9 zmm10 zmm11 zmm12 zmm13 zmm14 zmm15
.B10.32::                       ; Preds .B10.31
                                ; Execution count [0.00e+000]
$LN2068:

;;; 		memcpy(_tmp_out, _in_out, _len_out);

        mov       rax, QWORD PTR [56+rbp]                       ;\\Mac\Home\Documents\Studium\6. Semester\Bachelorarbeit\Code\PerformanceTests\Enclave\PerformanceTests_t.c:565.3
$LN2069:
        mov       rdx, QWORD PTR [80+rbp]                       ;\\Mac\Home\Documents\Studium\6. Semester\Bachelorarbeit\Code\PerformanceTests\Enclave\PerformanceTests_t.c:565.3
$LN2070:
        mov       rcx, QWORD PTR [72+rbp]                       ;\\Mac\Home\Documents\Studium\6. Semester\Bachelorarbeit\Code\PerformanceTests\Enclave\PerformanceTests_t.c:565.3
$LN2071:
        mov       rdi, rax                                      ;\\Mac\Home\Documents\Studium\6. Semester\Bachelorarbeit\Code\PerformanceTests\Enclave\PerformanceTests_t.c:565.3
$LN2072:
        mov       rsi, rdx                                      ;\\Mac\Home\Documents\Studium\6. Semester\Bachelorarbeit\Code\PerformanceTests\Enclave\PerformanceTests_t.c:565.3
$LN2073:
        mov       rdx, rdi                                      ;\\Mac\Home\Documents\Studium\6. Semester\Bachelorarbeit\Code\PerformanceTests\Enclave\PerformanceTests_t.c:565.3
$LN2074:
        mov       eax, ecx                                      ;\\Mac\Home\Documents\Studium\6. Semester\Bachelorarbeit\Code\PerformanceTests\Enclave\PerformanceTests_t.c:565.3
$LN2075:
        shr       rcx, 2                                        ;\\Mac\Home\Documents\Studium\6. Semester\Bachelorarbeit\Code\PerformanceTests\Enclave\PerformanceTests_t.c:565.3
$LN2076:
        rep   movsd                                             ;\\Mac\Home\Documents\Studium\6. Semester\Bachelorarbeit\Code\PerformanceTests\Enclave\PerformanceTests_t.c:565.3
$LN2077:
        mov       ecx, eax                                      ;\\Mac\Home\Documents\Studium\6. Semester\Bachelorarbeit\Code\PerformanceTests\Enclave\PerformanceTests_t.c:565.3
$LN2078:
        and       ecx, 3                                        ;\\Mac\Home\Documents\Studium\6. Semester\Bachelorarbeit\Code\PerformanceTests\Enclave\PerformanceTests_t.c:565.3
$LN2079:
        rep   movsb                                             ;\\Mac\Home\Documents\Studium\6. Semester\Bachelorarbeit\Code\PerformanceTests\Enclave\PerformanceTests_t.c:565.3
$LN2080:
        mov       rax, rdx                                      ;\\Mac\Home\Documents\Studium\6. Semester\Bachelorarbeit\Code\PerformanceTests\Enclave\PerformanceTests_t.c:565.3
$LN2081:
                                ; LOE rax rbp rsp r12 r13 r14 r15 rip zmm6 zmm7 zmm8 zmm9 zmm10 zmm11 zmm12 zmm13 zmm14 zmm15
.B10.46::                       ; Preds .B10.32
                                ; Execution count [0.00e+000]
$LN2082:
        mov       QWORD PTR [136+rbp], rax                      ;\\Mac\Home\Documents\Studium\6. Semester\Bachelorarbeit\Code\PerformanceTests\Enclave\PerformanceTests_t.c:565.3
$LN2083:
                                ; LOE rbp rsp r12 r13 r14 r15 rip zmm6 zmm7 zmm8 zmm9 zmm10 zmm11 zmm12 zmm13 zmm14 zmm15
.B10.33::                       ; Preds .B10.46
                                ; Execution count [0.00e+000]
$LN2084:

;;; 		free(_in_out);

        mov       rax, QWORD PTR [80+rbp]                       ;\\Mac\Home\Documents\Studium\6. Semester\Bachelorarbeit\Code\PerformanceTests\Enclave\PerformanceTests_t.c:566.3
$LN2085:
        mov       rcx, rax                                      ;\\Mac\Home\Documents\Studium\6. Semester\Bachelorarbeit\Code\PerformanceTests\Enclave\PerformanceTests_t.c:566.3
$LN2086:
;       free(void *)
        call      free                                          ;\\Mac\Home\Documents\Studium\6. Semester\Bachelorarbeit\Code\PerformanceTests\Enclave\PerformanceTests_t.c:566.3
$LN2087:
                                ; LOE rbp rsp r12 r13 r14 r15 rip zmm6 zmm7 zmm8 zmm9 zmm10 zmm11 zmm12 zmm13 zmm14 zmm15
.B10.47::                       ; Preds .B10.33
                                ; Execution count [0.00e+000]
$LN2088:
                                ; LOE rbp rsp r12 r13 r14 r15 rip zmm6 zmm7 zmm8 zmm9 zmm10 zmm11 zmm12 zmm13 zmm14 zmm15
.B10.34::                       ; Preds .B10.47 .B10.31
                                ; Execution count [0.00e+000]
$LN2089:

;;; 	}
;;; 
;;; 	return status;

        mov       eax, DWORD PTR [rbp]                          ;\\Mac\Home\Documents\Studium\6. Semester\Bachelorarbeit\Code\PerformanceTests\Enclave\PerformanceTests_t.c:569.2
$LN2090:
        mov       rbx, QWORD PTR [152+rbp]                      ;\\Mac\Home\Documents\Studium\6. Semester\Bachelorarbeit\Code\PerformanceTests\Enclave\PerformanceTests_t.c:569.2[spill]
$LN2091:
        mov       rsi, QWORD PTR [160+rbp]                      ;\\Mac\Home\Documents\Studium\6. Semester\Bachelorarbeit\Code\PerformanceTests\Enclave\PerformanceTests_t.c:569.2[spill]
$LN2092:
        mov       rdi, QWORD PTR [168+rbp]                      ;\\Mac\Home\Documents\Studium\6. Semester\Bachelorarbeit\Code\PerformanceTests\Enclave\PerformanceTests_t.c:569.2[spill]
$LN2093:
        lea       rsp, QWORD PTR [176+rbp]                      ;\\Mac\Home\Documents\Studium\6. Semester\Bachelorarbeit\Code\PerformanceTests\Enclave\PerformanceTests_t.c:569.2
$LN2094:
        pop       rbp                                           ;\\Mac\Home\Documents\Studium\6. Semester\Bachelorarbeit\Code\PerformanceTests\Enclave\PerformanceTests_t.c:569.2
$LN2095:
        ret                                                     ;\\Mac\Home\Documents\Studium\6. Semester\Bachelorarbeit\Code\PerformanceTests\Enclave\PerformanceTests_t.c:569.2
$LN2096:
                                ; LOE
.B10.35::
$LN2097:
; mark_end;
sgx_enclaveVByte ENDP
$LNsgx_enclaveVByte$2098:
_TEXT	ENDS
.xdata	SEGMENT  DWORD   READ  ''
	ALIGN 004H
.unwind.sgx_enclaveVByte.B1_B34	DD	621421057
	DD	1520674
	DD	1598491
	DD	1668116
	DD	17302285
	DD	1342242842
.xdata	ENDS
.pdata	SEGMENT  DWORD   READ  ''
	ALIGN 004H
.pdata.sgx_enclaveVByte.B1_B34	DD	imagerel .B10.1
	DD	imagerel .B10.35
	DD	imagerel .unwind.sgx_enclaveVByte.B1_B34
.pdata	ENDS
_DATA	SEGMENT      'DATA'
_DATA	ENDS
; -- End  sgx_enclaveVByte
_TEXT	SEGMENT      'CODE'
_2__routine_start_sgx_enclaveVByteDecodeEncrypted_10:
; -- Begin  sgx_enclaveVByteDecodeEncrypted
_TEXT	ENDS
_TEXT	SEGMENT      'CODE'
; mark_begin;

; --- sgx_enclaveVByteDecodeEncrypted(void *)
sgx_enclaveVByteDecodeEncrypted	PROC PRIVATE
; parameter 1(pms): rcx
.B11.1::                        ; Preds .B11.0
                                ; Execution count [0.00e+000]

;;; {

L88::
                                                          ;\\Mac\Home\Documents\Studium\6. Semester\Bachelorarbeit\Code\PerformanceTests\Enclave\PerformanceTests_t.c:573.1
$LN2099:
        push      rbp                                           ;\\Mac\Home\Documents\Studium\6. Semester\Bachelorarbeit\Code\PerformanceTests\Enclave\PerformanceTests_t.c:573.1
$LN2100:
        sub       rsp, 80                                       ;\\Mac\Home\Documents\Studium\6. Semester\Bachelorarbeit\Code\PerformanceTests\Enclave\PerformanceTests_t.c:573.1
$LN2101:
        lea       rbp, QWORD PTR [32+rsp]                       ;\\Mac\Home\Documents\Studium\6. Semester\Bachelorarbeit\Code\PerformanceTests\Enclave\PerformanceTests_t.c:573.1
$LN2102:
        mov       QWORD PTR [64+rbp], rcx                       ;\\Mac\Home\Documents\Studium\6. Semester\Bachelorarbeit\Code\PerformanceTests\Enclave\PerformanceTests_t.c:573.1
$LN2103:

;;; 	ms_enclaveVByteDecodeEncrypted_t* ms = SGX_CAST(ms_enclaveVByteDecodeEncrypted_t*, pms);

        mov       rax, QWORD PTR [64+rbp]                       ;\\Mac\Home\Documents\Studium\6. Semester\Bachelorarbeit\Code\PerformanceTests\Enclave\PerformanceTests_t.c:574.39
$LN2104:
        mov       QWORD PTR [8+rbp], rax                        ;\\Mac\Home\Documents\Studium\6. Semester\Bachelorarbeit\Code\PerformanceTests\Enclave\PerformanceTests_t.c:574.39
$LN2105:

;;; 	sgx_status_t status = SGX_SUCCESS;

        mov       DWORD PTR [rbp], 0                            ;\\Mac\Home\Documents\Studium\6. Semester\Bachelorarbeit\Code\PerformanceTests\Enclave\PerformanceTests_t.c:575.22
$LN2106:

;;; 	uint8_t* _tmp_in = ms->ms_in;

        mov       rax, QWORD PTR [8+rbp]                        ;\\Mac\Home\Documents\Studium\6. Semester\Bachelorarbeit\Code\PerformanceTests\Enclave\PerformanceTests_t.c:576.19
$LN2107:
        mov       rax, QWORD PTR [8+rax]                        ;\\Mac\Home\Documents\Studium\6. Semester\Bachelorarbeit\Code\PerformanceTests\Enclave\PerformanceTests_t.c:576.19
$LN2108:
        mov       QWORD PTR [16+rbp], rax                       ;\\Mac\Home\Documents\Studium\6. Semester\Bachelorarbeit\Code\PerformanceTests\Enclave\PerformanceTests_t.c:576.19
$LN2109:

;;; 	uint8_t* _tmp_out = ms->ms_out;

        mov       rax, QWORD PTR [8+rbp]                        ;\\Mac\Home\Documents\Studium\6. Semester\Bachelorarbeit\Code\PerformanceTests\Enclave\PerformanceTests_t.c:577.20
$LN2110:
        mov       rax, QWORD PTR [24+rax]                       ;\\Mac\Home\Documents\Studium\6. Semester\Bachelorarbeit\Code\PerformanceTests\Enclave\PerformanceTests_t.c:577.20
$LN2111:
        mov       QWORD PTR [24+rbp], rax                       ;\\Mac\Home\Documents\Studium\6. Semester\Bachelorarbeit\Code\PerformanceTests\Enclave\PerformanceTests_t.c:577.20
$LN2112:
                                ; LOE rbx rbp rsi rdi rsp r12 r13 r14 r15 rip zmm6 zmm7 zmm8 zmm9 zmm10 zmm11 zmm12 zmm13 zmm14 zmm15
.B11.2::                        ; Preds .B11.5 .B11.1
                                ; Execution count [0.00e+000]
$LN2113:

;;; 
;;; 	CHECK_REF_POINTER(pms, sizeof(ms_enclaveVByteDecodeEncrypted_t));

        mov       rax, QWORD PTR [64+rbp]                       ;\\Mac\Home\Documents\Studium\6. Semester\Bachelorarbeit\Code\PerformanceTests\Enclave\PerformanceTests_t.c:579.2
$LN2114:
        test      rax, rax                                      ;\\Mac\Home\Documents\Studium\6. Semester\Bachelorarbeit\Code\PerformanceTests\Enclave\PerformanceTests_t.c:579.2
$LN2115:
        je        .B11.6        ; Prob 50%                      ;\\Mac\Home\Documents\Studium\6. Semester\Bachelorarbeit\Code\PerformanceTests\Enclave\PerformanceTests_t.c:579.2
$LN2116:
                                ; LOE rbx rbp rsi rdi rsp r12 r13 r14 r15 rip zmm6 zmm7 zmm8 zmm9 zmm10 zmm11 zmm12 zmm13 zmm14 zmm15
.B11.3::                        ; Preds .B11.2
                                ; Execution count [0.00e+000]
$LN2117:
        mov       rax, QWORD PTR [64+rbp]                       ;\\Mac\Home\Documents\Studium\6. Semester\Bachelorarbeit\Code\PerformanceTests\Enclave\PerformanceTests_t.c:579.2
$LN2118:
        mov       edx, 32                                       ;\\Mac\Home\Documents\Studium\6. Semester\Bachelorarbeit\Code\PerformanceTests\Enclave\PerformanceTests_t.c:579.2
$LN2119:
        mov       rcx, rax                                      ;\\Mac\Home\Documents\Studium\6. Semester\Bachelorarbeit\Code\PerformanceTests\Enclave\PerformanceTests_t.c:579.2
$LN2120:
;       sgx_is_outside_enclave(const void *, size_t)
        call      sgx_is_outside_enclave                        ;\\Mac\Home\Documents\Studium\6. Semester\Bachelorarbeit\Code\PerformanceTests\Enclave\PerformanceTests_t.c:579.2
$LN2121:
                                ; LOE rbx rbp rsi rdi rsp r12 r13 r14 r15 rip eax zmm6 zmm7 zmm8 zmm9 zmm10 zmm11 zmm12 zmm13 zmm14 zmm15
.B11.11::                       ; Preds .B11.3
                                ; Execution count [0.00e+000]
$LN2122:
        mov       DWORD PTR [4+rbp], eax                        ;\\Mac\Home\Documents\Studium\6. Semester\Bachelorarbeit\Code\PerformanceTests\Enclave\PerformanceTests_t.c:579.2
$LN2123:
                                ; LOE rbx rbp rsi rdi rsp r12 r13 r14 r15 rip zmm6 zmm7 zmm8 zmm9 zmm10 zmm11 zmm12 zmm13 zmm14 zmm15
.B11.4::                        ; Preds .B11.11
                                ; Execution count [0.00e+000]
$LN2124:
        mov       eax, DWORD PTR [4+rbp]                        ;\\Mac\Home\Documents\Studium\6. Semester\Bachelorarbeit\Code\PerformanceTests\Enclave\PerformanceTests_t.c:579.2
$LN2125:
        test      eax, eax                                      ;\\Mac\Home\Documents\Studium\6. Semester\Bachelorarbeit\Code\PerformanceTests\Enclave\PerformanceTests_t.c:579.2
$LN2126:
        je        .B11.6        ; Prob 50%                      ;\\Mac\Home\Documents\Studium\6. Semester\Bachelorarbeit\Code\PerformanceTests\Enclave\PerformanceTests_t.c:579.2
$LN2127:
                                ; LOE rbx rbp rsi rdi rsp r12 r13 r14 r15 rip zmm6 zmm7 zmm8 zmm9 zmm10 zmm11 zmm12 zmm13 zmm14 zmm15
.B11.5::                        ; Preds .B11.4
                                ; Execution count [0.00e+000]
$LN2128:
        mov       eax, 0                                        ;\\Mac\Home\Documents\Studium\6. Semester\Bachelorarbeit\Code\PerformanceTests\Enclave\PerformanceTests_t.c:579.2
$LN2129:
        test      eax, eax                                      ;\\Mac\Home\Documents\Studium\6. Semester\Bachelorarbeit\Code\PerformanceTests\Enclave\PerformanceTests_t.c:579.2
$LN2130:
        jne       .B11.2        ; Prob 0%                       ;\\Mac\Home\Documents\Studium\6. Semester\Bachelorarbeit\Code\PerformanceTests\Enclave\PerformanceTests_t.c:579.2
$LN2131:
        jmp       .B11.7        ; Prob 100%                     ;\\Mac\Home\Documents\Studium\6. Semester\Bachelorarbeit\Code\PerformanceTests\Enclave\PerformanceTests_t.c:579.2
$LN2132:
                                ; LOE rbx rbp rsi rdi rsp r12 r13 r14 r15 rip zmm6 zmm7 zmm8 zmm9 zmm10 zmm11 zmm12 zmm13 zmm14 zmm15
.B11.6::                        ; Preds .B11.2 .B11.4
                                ; Execution count [0.00e+000]
$LN2133:
        mov       eax, 2                                        ;\\Mac\Home\Documents\Studium\6. Semester\Bachelorarbeit\Code\PerformanceTests\Enclave\PerformanceTests_t.c:579.2
$LN2134:
        lea       rsp, QWORD PTR [48+rbp]                       ;\\Mac\Home\Documents\Studium\6. Semester\Bachelorarbeit\Code\PerformanceTests\Enclave\PerformanceTests_t.c:579.2
$LN2135:
        pop       rbp                                           ;\\Mac\Home\Documents\Studium\6. Semester\Bachelorarbeit\Code\PerformanceTests\Enclave\PerformanceTests_t.c:579.2
$LN2136:
        ret                                                     ;\\Mac\Home\Documents\Studium\6. Semester\Bachelorarbeit\Code\PerformanceTests\Enclave\PerformanceTests_t.c:579.2
$LN2137:
                                ; LOE
.B11.7::                        ; Preds .B11.5
                                ; Execution count [0.00e+000]
$LN2138:

;;; 
;;; 	ms->ms_retval = enclaveVByteDecodeEncrypted(_tmp_in, ms->ms_length, _tmp_out);

        mov       rax, QWORD PTR [16+rbp]                       ;\\Mac\Home\Documents\Studium\6. Semester\Bachelorarbeit\Code\PerformanceTests\Enclave\PerformanceTests_t.c:581.2
$LN2139:
        mov       rdx, QWORD PTR [8+rbp]                        ;\\Mac\Home\Documents\Studium\6. Semester\Bachelorarbeit\Code\PerformanceTests\Enclave\PerformanceTests_t.c:581.2
$LN2140:
        mov       rdx, QWORD PTR [16+rdx]                       ;\\Mac\Home\Documents\Studium\6. Semester\Bachelorarbeit\Code\PerformanceTests\Enclave\PerformanceTests_t.c:581.2
$LN2141:
        mov       rcx, QWORD PTR [24+rbp]                       ;\\Mac\Home\Documents\Studium\6. Semester\Bachelorarbeit\Code\PerformanceTests\Enclave\PerformanceTests_t.c:581.2
$LN2142:
        mov       QWORD PTR [40+rbp], rcx                       ;\\Mac\Home\Documents\Studium\6. Semester\Bachelorarbeit\Code\PerformanceTests\Enclave\PerformanceTests_t.c:581.2[spill]
$LN2143:
        mov       rcx, rax                                      ;\\Mac\Home\Documents\Studium\6. Semester\Bachelorarbeit\Code\PerformanceTests\Enclave\PerformanceTests_t.c:581.2
$LN2144:
        mov       rax, QWORD PTR [40+rbp]                       ;\\Mac\Home\Documents\Studium\6. Semester\Bachelorarbeit\Code\PerformanceTests\Enclave\PerformanceTests_t.c:581.2[spill]
$LN2145:
        mov       r8, rax                                       ;\\Mac\Home\Documents\Studium\6. Semester\Bachelorarbeit\Code\PerformanceTests\Enclave\PerformanceTests_t.c:581.2
$LN2146:
;       enclaveVByteDecodeEncrypted(uint8_t *, size_t, uint8_t *)
        call      enclaveVByteDecodeEncrypted                   ;\\Mac\Home\Documents\Studium\6. Semester\Bachelorarbeit\Code\PerformanceTests\Enclave\PerformanceTests_t.c:581.2
$LN2147:
                                ; LOE rax rbx rbp rsi rdi rsp r12 r13 r14 r15 rip zmm6 zmm7 zmm8 zmm9 zmm10 zmm11 zmm12 zmm13 zmm14 zmm15
.B11.12::                       ; Preds .B11.7
                                ; Execution count [0.00e+000]
$LN2148:
        mov       QWORD PTR [32+rbp], rax                       ;\\Mac\Home\Documents\Studium\6. Semester\Bachelorarbeit\Code\PerformanceTests\Enclave\PerformanceTests_t.c:581.2
$LN2149:
                                ; LOE rbx rbp rsi rdi rsp r12 r13 r14 r15 rip zmm6 zmm7 zmm8 zmm9 zmm10 zmm11 zmm12 zmm13 zmm14 zmm15
.B11.8::                        ; Preds .B11.12
                                ; Execution count [0.00e+000]
$LN2150:
        mov       rax, QWORD PTR [8+rbp]                        ;\\Mac\Home\Documents\Studium\6. Semester\Bachelorarbeit\Code\PerformanceTests\Enclave\PerformanceTests_t.c:581.2
$LN2151:
        mov       rdx, QWORD PTR [32+rbp]                       ;\\Mac\Home\Documents\Studium\6. Semester\Bachelorarbeit\Code\PerformanceTests\Enclave\PerformanceTests_t.c:581.2
$LN2152:
        mov       QWORD PTR [rax], rdx                          ;\\Mac\Home\Documents\Studium\6. Semester\Bachelorarbeit\Code\PerformanceTests\Enclave\PerformanceTests_t.c:581.2
$LN2153:

;;; 
;;; 
;;; 	return status;

        mov       eax, DWORD PTR [rbp]                          ;\\Mac\Home\Documents\Studium\6. Semester\Bachelorarbeit\Code\PerformanceTests\Enclave\PerformanceTests_t.c:584.2
$LN2154:
        lea       rsp, QWORD PTR [48+rbp]                       ;\\Mac\Home\Documents\Studium\6. Semester\Bachelorarbeit\Code\PerformanceTests\Enclave\PerformanceTests_t.c:584.2
$LN2155:
        pop       rbp                                           ;\\Mac\Home\Documents\Studium\6. Semester\Bachelorarbeit\Code\PerformanceTests\Enclave\PerformanceTests_t.c:584.2
$LN2156:
        ret                                                     ;\\Mac\Home\Documents\Studium\6. Semester\Bachelorarbeit\Code\PerformanceTests\Enclave\PerformanceTests_t.c:584.2
$LN2157:
                                ; LOE
.B11.9::
$LN2158:
; mark_end;
sgx_enclaveVByteDecodeEncrypted ENDP
$LNsgx_enclaveVByteDecodeEncrypted$2159:
_TEXT	ENDS
.xdata	SEGMENT  DWORD   READ  ''
	ALIGN 004H
.unwind.sgx_enclaveVByteDecodeEncrypted.B1_B8	DD	620956161
	DD	2449801994
	DD	20481
.xdata	ENDS
.pdata	SEGMENT  DWORD   READ  ''
	ALIGN 004H
.pdata.sgx_enclaveVByteDecodeEncrypted.B1_B8	DD	imagerel .B11.1
	DD	imagerel .B11.9
	DD	imagerel .unwind.sgx_enclaveVByteDecodeEncrypted.B1_B8
.pdata	ENDS
_DATA	SEGMENT      'DATA'
_DATA	ENDS
; -- End  sgx_enclaveVByteDecodeEncrypted
_TEXT	SEGMENT      'CODE'
_2__routine_start_sgx_enclaveVByteEncodeEncrypted_11:
; -- Begin  sgx_enclaveVByteEncodeEncrypted
_TEXT	ENDS
_TEXT	SEGMENT      'CODE'
; mark_begin;

; --- sgx_enclaveVByteEncodeEncrypted(void *)
sgx_enclaveVByteEncodeEncrypted	PROC PRIVATE
; parameter 1(pms): rcx
.B12.1::                        ; Preds .B12.0
                                ; Execution count [0.00e+000]

;;; {

L95::
                                                          ;\\Mac\Home\Documents\Studium\6. Semester\Bachelorarbeit\Code\PerformanceTests\Enclave\PerformanceTests_t.c:588.1
$LN2160:
        push      rbp                                           ;\\Mac\Home\Documents\Studium\6. Semester\Bachelorarbeit\Code\PerformanceTests\Enclave\PerformanceTests_t.c:588.1
$LN2161:
        sub       rsp, 80                                       ;\\Mac\Home\Documents\Studium\6. Semester\Bachelorarbeit\Code\PerformanceTests\Enclave\PerformanceTests_t.c:588.1
$LN2162:
        lea       rbp, QWORD PTR [32+rsp]                       ;\\Mac\Home\Documents\Studium\6. Semester\Bachelorarbeit\Code\PerformanceTests\Enclave\PerformanceTests_t.c:588.1
$LN2163:
        mov       QWORD PTR [64+rbp], rcx                       ;\\Mac\Home\Documents\Studium\6. Semester\Bachelorarbeit\Code\PerformanceTests\Enclave\PerformanceTests_t.c:588.1
$LN2164:

;;; 	ms_enclaveVByteEncodeEncrypted_t* ms = SGX_CAST(ms_enclaveVByteEncodeEncrypted_t*, pms);

        mov       rax, QWORD PTR [64+rbp]                       ;\\Mac\Home\Documents\Studium\6. Semester\Bachelorarbeit\Code\PerformanceTests\Enclave\PerformanceTests_t.c:589.39
$LN2165:
        mov       QWORD PTR [8+rbp], rax                        ;\\Mac\Home\Documents\Studium\6. Semester\Bachelorarbeit\Code\PerformanceTests\Enclave\PerformanceTests_t.c:589.39
$LN2166:

;;; 	sgx_status_t status = SGX_SUCCESS;

        mov       DWORD PTR [rbp], 0                            ;\\Mac\Home\Documents\Studium\6. Semester\Bachelorarbeit\Code\PerformanceTests\Enclave\PerformanceTests_t.c:590.22
$LN2167:

;;; 	uint8_t* _tmp_in = ms->ms_in;

        mov       rax, QWORD PTR [8+rbp]                        ;\\Mac\Home\Documents\Studium\6. Semester\Bachelorarbeit\Code\PerformanceTests\Enclave\PerformanceTests_t.c:591.19
$LN2168:
        mov       rax, QWORD PTR [8+rax]                        ;\\Mac\Home\Documents\Studium\6. Semester\Bachelorarbeit\Code\PerformanceTests\Enclave\PerformanceTests_t.c:591.19
$LN2169:
        mov       QWORD PTR [16+rbp], rax                       ;\\Mac\Home\Documents\Studium\6. Semester\Bachelorarbeit\Code\PerformanceTests\Enclave\PerformanceTests_t.c:591.19
$LN2170:

;;; 	uint8_t* _tmp_out = ms->ms_out;

        mov       rax, QWORD PTR [8+rbp]                        ;\\Mac\Home\Documents\Studium\6. Semester\Bachelorarbeit\Code\PerformanceTests\Enclave\PerformanceTests_t.c:592.20
$LN2171:
        mov       rax, QWORD PTR [24+rax]                       ;\\Mac\Home\Documents\Studium\6. Semester\Bachelorarbeit\Code\PerformanceTests\Enclave\PerformanceTests_t.c:592.20
$LN2172:
        mov       QWORD PTR [24+rbp], rax                       ;\\Mac\Home\Documents\Studium\6. Semester\Bachelorarbeit\Code\PerformanceTests\Enclave\PerformanceTests_t.c:592.20
$LN2173:
                                ; LOE rbx rbp rsi rdi rsp r12 r13 r14 r15 rip zmm6 zmm7 zmm8 zmm9 zmm10 zmm11 zmm12 zmm13 zmm14 zmm15
.B12.2::                        ; Preds .B12.5 .B12.1
                                ; Execution count [0.00e+000]
$LN2174:

;;; 
;;; 	CHECK_REF_POINTER(pms, sizeof(ms_enclaveVByteEncodeEncrypted_t));

        mov       rax, QWORD PTR [64+rbp]                       ;\\Mac\Home\Documents\Studium\6. Semester\Bachelorarbeit\Code\PerformanceTests\Enclave\PerformanceTests_t.c:594.2
$LN2175:
        test      rax, rax                                      ;\\Mac\Home\Documents\Studium\6. Semester\Bachelorarbeit\Code\PerformanceTests\Enclave\PerformanceTests_t.c:594.2
$LN2176:
        je        .B12.6        ; Prob 50%                      ;\\Mac\Home\Documents\Studium\6. Semester\Bachelorarbeit\Code\PerformanceTests\Enclave\PerformanceTests_t.c:594.2
$LN2177:
                                ; LOE rbx rbp rsi rdi rsp r12 r13 r14 r15 rip zmm6 zmm7 zmm8 zmm9 zmm10 zmm11 zmm12 zmm13 zmm14 zmm15
.B12.3::                        ; Preds .B12.2
                                ; Execution count [0.00e+000]
$LN2178:
        mov       rax, QWORD PTR [64+rbp]                       ;\\Mac\Home\Documents\Studium\6. Semester\Bachelorarbeit\Code\PerformanceTests\Enclave\PerformanceTests_t.c:594.2
$LN2179:
        mov       edx, 32                                       ;\\Mac\Home\Documents\Studium\6. Semester\Bachelorarbeit\Code\PerformanceTests\Enclave\PerformanceTests_t.c:594.2
$LN2180:
        mov       rcx, rax                                      ;\\Mac\Home\Documents\Studium\6. Semester\Bachelorarbeit\Code\PerformanceTests\Enclave\PerformanceTests_t.c:594.2
$LN2181:
;       sgx_is_outside_enclave(const void *, size_t)
        call      sgx_is_outside_enclave                        ;\\Mac\Home\Documents\Studium\6. Semester\Bachelorarbeit\Code\PerformanceTests\Enclave\PerformanceTests_t.c:594.2
$LN2182:
                                ; LOE rbx rbp rsi rdi rsp r12 r13 r14 r15 rip eax zmm6 zmm7 zmm8 zmm9 zmm10 zmm11 zmm12 zmm13 zmm14 zmm15
.B12.11::                       ; Preds .B12.3
                                ; Execution count [0.00e+000]
$LN2183:
        mov       DWORD PTR [4+rbp], eax                        ;\\Mac\Home\Documents\Studium\6. Semester\Bachelorarbeit\Code\PerformanceTests\Enclave\PerformanceTests_t.c:594.2
$LN2184:
                                ; LOE rbx rbp rsi rdi rsp r12 r13 r14 r15 rip zmm6 zmm7 zmm8 zmm9 zmm10 zmm11 zmm12 zmm13 zmm14 zmm15
.B12.4::                        ; Preds .B12.11
                                ; Execution count [0.00e+000]
$LN2185:
        mov       eax, DWORD PTR [4+rbp]                        ;\\Mac\Home\Documents\Studium\6. Semester\Bachelorarbeit\Code\PerformanceTests\Enclave\PerformanceTests_t.c:594.2
$LN2186:
        test      eax, eax                                      ;\\Mac\Home\Documents\Studium\6. Semester\Bachelorarbeit\Code\PerformanceTests\Enclave\PerformanceTests_t.c:594.2
$LN2187:
        je        .B12.6        ; Prob 50%                      ;\\Mac\Home\Documents\Studium\6. Semester\Bachelorarbeit\Code\PerformanceTests\Enclave\PerformanceTests_t.c:594.2
$LN2188:
                                ; LOE rbx rbp rsi rdi rsp r12 r13 r14 r15 rip zmm6 zmm7 zmm8 zmm9 zmm10 zmm11 zmm12 zmm13 zmm14 zmm15
.B12.5::                        ; Preds .B12.4
                                ; Execution count [0.00e+000]
$LN2189:
        mov       eax, 0                                        ;\\Mac\Home\Documents\Studium\6. Semester\Bachelorarbeit\Code\PerformanceTests\Enclave\PerformanceTests_t.c:594.2
$LN2190:
        test      eax, eax                                      ;\\Mac\Home\Documents\Studium\6. Semester\Bachelorarbeit\Code\PerformanceTests\Enclave\PerformanceTests_t.c:594.2
$LN2191:
        jne       .B12.2        ; Prob 0%                       ;\\Mac\Home\Documents\Studium\6. Semester\Bachelorarbeit\Code\PerformanceTests\Enclave\PerformanceTests_t.c:594.2
$LN2192:
        jmp       .B12.7        ; Prob 100%                     ;\\Mac\Home\Documents\Studium\6. Semester\Bachelorarbeit\Code\PerformanceTests\Enclave\PerformanceTests_t.c:594.2
$LN2193:
                                ; LOE rbx rbp rsi rdi rsp r12 r13 r14 r15 rip zmm6 zmm7 zmm8 zmm9 zmm10 zmm11 zmm12 zmm13 zmm14 zmm15
.B12.6::                        ; Preds .B12.2 .B12.4
                                ; Execution count [0.00e+000]
$LN2194:
        mov       eax, 2                                        ;\\Mac\Home\Documents\Studium\6. Semester\Bachelorarbeit\Code\PerformanceTests\Enclave\PerformanceTests_t.c:594.2
$LN2195:
        lea       rsp, QWORD PTR [48+rbp]                       ;\\Mac\Home\Documents\Studium\6. Semester\Bachelorarbeit\Code\PerformanceTests\Enclave\PerformanceTests_t.c:594.2
$LN2196:
        pop       rbp                                           ;\\Mac\Home\Documents\Studium\6. Semester\Bachelorarbeit\Code\PerformanceTests\Enclave\PerformanceTests_t.c:594.2
$LN2197:
        ret                                                     ;\\Mac\Home\Documents\Studium\6. Semester\Bachelorarbeit\Code\PerformanceTests\Enclave\PerformanceTests_t.c:594.2
$LN2198:
                                ; LOE
.B12.7::                        ; Preds .B12.5
                                ; Execution count [0.00e+000]
$LN2199:

;;; 
;;; 	ms->ms_retval = enclaveVByteEncodeEncrypted(_tmp_in, ms->ms_length, _tmp_out);

        mov       rax, QWORD PTR [16+rbp]                       ;\\Mac\Home\Documents\Studium\6. Semester\Bachelorarbeit\Code\PerformanceTests\Enclave\PerformanceTests_t.c:596.2
$LN2200:
        mov       rdx, QWORD PTR [8+rbp]                        ;\\Mac\Home\Documents\Studium\6. Semester\Bachelorarbeit\Code\PerformanceTests\Enclave\PerformanceTests_t.c:596.2
$LN2201:
        mov       rdx, QWORD PTR [16+rdx]                       ;\\Mac\Home\Documents\Studium\6. Semester\Bachelorarbeit\Code\PerformanceTests\Enclave\PerformanceTests_t.c:596.2
$LN2202:
        mov       rcx, QWORD PTR [24+rbp]                       ;\\Mac\Home\Documents\Studium\6. Semester\Bachelorarbeit\Code\PerformanceTests\Enclave\PerformanceTests_t.c:596.2
$LN2203:
        mov       QWORD PTR [40+rbp], rcx                       ;\\Mac\Home\Documents\Studium\6. Semester\Bachelorarbeit\Code\PerformanceTests\Enclave\PerformanceTests_t.c:596.2[spill]
$LN2204:
        mov       rcx, rax                                      ;\\Mac\Home\Documents\Studium\6. Semester\Bachelorarbeit\Code\PerformanceTests\Enclave\PerformanceTests_t.c:596.2
$LN2205:
        mov       rax, QWORD PTR [40+rbp]                       ;\\Mac\Home\Documents\Studium\6. Semester\Bachelorarbeit\Code\PerformanceTests\Enclave\PerformanceTests_t.c:596.2[spill]
$LN2206:
        mov       r8, rax                                       ;\\Mac\Home\Documents\Studium\6. Semester\Bachelorarbeit\Code\PerformanceTests\Enclave\PerformanceTests_t.c:596.2
$LN2207:
;       enclaveVByteEncodeEncrypted(uint8_t *, size_t, uint8_t *)
        call      enclaveVByteEncodeEncrypted                   ;\\Mac\Home\Documents\Studium\6. Semester\Bachelorarbeit\Code\PerformanceTests\Enclave\PerformanceTests_t.c:596.2
$LN2208:
                                ; LOE rax rbx rbp rsi rdi rsp r12 r13 r14 r15 rip zmm6 zmm7 zmm8 zmm9 zmm10 zmm11 zmm12 zmm13 zmm14 zmm15
.B12.12::                       ; Preds .B12.7
                                ; Execution count [0.00e+000]
$LN2209:
        mov       QWORD PTR [32+rbp], rax                       ;\\Mac\Home\Documents\Studium\6. Semester\Bachelorarbeit\Code\PerformanceTests\Enclave\PerformanceTests_t.c:596.2
$LN2210:
                                ; LOE rbx rbp rsi rdi rsp r12 r13 r14 r15 rip zmm6 zmm7 zmm8 zmm9 zmm10 zmm11 zmm12 zmm13 zmm14 zmm15
.B12.8::                        ; Preds .B12.12
                                ; Execution count [0.00e+000]
$LN2211:
        mov       rax, QWORD PTR [8+rbp]                        ;\\Mac\Home\Documents\Studium\6. Semester\Bachelorarbeit\Code\PerformanceTests\Enclave\PerformanceTests_t.c:596.2
$LN2212:
        mov       rdx, QWORD PTR [32+rbp]                       ;\\Mac\Home\Documents\Studium\6. Semester\Bachelorarbeit\Code\PerformanceTests\Enclave\PerformanceTests_t.c:596.2
$LN2213:
        mov       QWORD PTR [rax], rdx                          ;\\Mac\Home\Documents\Studium\6. Semester\Bachelorarbeit\Code\PerformanceTests\Enclave\PerformanceTests_t.c:596.2
$LN2214:

;;; 
;;; 
;;; 	return status;

        mov       eax, DWORD PTR [rbp]                          ;\\Mac\Home\Documents\Studium\6. Semester\Bachelorarbeit\Code\PerformanceTests\Enclave\PerformanceTests_t.c:599.2
$LN2215:
        lea       rsp, QWORD PTR [48+rbp]                       ;\\Mac\Home\Documents\Studium\6. Semester\Bachelorarbeit\Code\PerformanceTests\Enclave\PerformanceTests_t.c:599.2
$LN2216:
        pop       rbp                                           ;\\Mac\Home\Documents\Studium\6. Semester\Bachelorarbeit\Code\PerformanceTests\Enclave\PerformanceTests_t.c:599.2
$LN2217:
        ret                                                     ;\\Mac\Home\Documents\Studium\6. Semester\Bachelorarbeit\Code\PerformanceTests\Enclave\PerformanceTests_t.c:599.2
$LN2218:
                                ; LOE
.B12.9::
$LN2219:
; mark_end;
sgx_enclaveVByteEncodeEncrypted ENDP
$LNsgx_enclaveVByteEncodeEncrypted$2220:
_TEXT	ENDS
.xdata	SEGMENT  DWORD   READ  ''
	ALIGN 004H
.unwind.sgx_enclaveVByteEncodeEncrypted.B1_B8	DD	620956161
	DD	2449801994
	DD	20481
.xdata	ENDS
.pdata	SEGMENT  DWORD   READ  ''
	ALIGN 004H
.pdata.sgx_enclaveVByteEncodeEncrypted.B1_B8	DD	imagerel .B12.1
	DD	imagerel .B12.9
	DD	imagerel .unwind.sgx_enclaveVByteEncodeEncrypted.B1_B8
.pdata	ENDS
_DATA	SEGMENT      'DATA'
_DATA	ENDS
; -- End  sgx_enclaveVByteEncodeEncrypted
_TEXT	SEGMENT      'CODE'
_2__routine_start_sgx_enclaveVByteEncodeEncryptedPreproc_12:
; -- Begin  sgx_enclaveVByteEncodeEncryptedPreproc
_TEXT	ENDS
_TEXT	SEGMENT      'CODE'
; mark_begin;

; --- sgx_enclaveVByteEncodeEncryptedPreproc(void *)
sgx_enclaveVByteEncodeEncryptedPreproc	PROC PRIVATE
; parameter 1(pms): rcx
.B13.1::                        ; Preds .B13.0
                                ; Execution count [0.00e+000]

;;; {

L102::
                                                         ;\\Mac\Home\Documents\Studium\6. Semester\Bachelorarbeit\Code\PerformanceTests\Enclave\PerformanceTests_t.c:603.1
$LN2221:
        push      rbp                                           ;\\Mac\Home\Documents\Studium\6. Semester\Bachelorarbeit\Code\PerformanceTests\Enclave\PerformanceTests_t.c:603.1
$LN2222:
        sub       rsp, 80                                       ;\\Mac\Home\Documents\Studium\6. Semester\Bachelorarbeit\Code\PerformanceTests\Enclave\PerformanceTests_t.c:603.1
$LN2223:
        lea       rbp, QWORD PTR [32+rsp]                       ;\\Mac\Home\Documents\Studium\6. Semester\Bachelorarbeit\Code\PerformanceTests\Enclave\PerformanceTests_t.c:603.1
$LN2224:
        mov       QWORD PTR [64+rbp], rcx                       ;\\Mac\Home\Documents\Studium\6. Semester\Bachelorarbeit\Code\PerformanceTests\Enclave\PerformanceTests_t.c:603.1
$LN2225:

;;; 	ms_enclaveVByteEncodeEncryptedPreproc_t* ms = SGX_CAST(ms_enclaveVByteEncodeEncryptedPreproc_t*, pms);

        mov       rax, QWORD PTR [64+rbp]                       ;\\Mac\Home\Documents\Studium\6. Semester\Bachelorarbeit\Code\PerformanceTests\Enclave\PerformanceTests_t.c:604.46
$LN2226:
        mov       QWORD PTR [8+rbp], rax                        ;\\Mac\Home\Documents\Studium\6. Semester\Bachelorarbeit\Code\PerformanceTests\Enclave\PerformanceTests_t.c:604.46
$LN2227:

;;; 	sgx_status_t status = SGX_SUCCESS;

        mov       DWORD PTR [rbp], 0                            ;\\Mac\Home\Documents\Studium\6. Semester\Bachelorarbeit\Code\PerformanceTests\Enclave\PerformanceTests_t.c:605.22
$LN2228:

;;; 	uint8_t* _tmp_in = ms->ms_in;

        mov       rax, QWORD PTR [8+rbp]                        ;\\Mac\Home\Documents\Studium\6. Semester\Bachelorarbeit\Code\PerformanceTests\Enclave\PerformanceTests_t.c:606.19
$LN2229:
        mov       rax, QWORD PTR [8+rax]                        ;\\Mac\Home\Documents\Studium\6. Semester\Bachelorarbeit\Code\PerformanceTests\Enclave\PerformanceTests_t.c:606.19
$LN2230:
        mov       QWORD PTR [16+rbp], rax                       ;\\Mac\Home\Documents\Studium\6. Semester\Bachelorarbeit\Code\PerformanceTests\Enclave\PerformanceTests_t.c:606.19
$LN2231:

;;; 	uint8_t* _tmp_out = ms->ms_out;

        mov       rax, QWORD PTR [8+rbp]                        ;\\Mac\Home\Documents\Studium\6. Semester\Bachelorarbeit\Code\PerformanceTests\Enclave\PerformanceTests_t.c:607.20
$LN2232:
        mov       rax, QWORD PTR [24+rax]                       ;\\Mac\Home\Documents\Studium\6. Semester\Bachelorarbeit\Code\PerformanceTests\Enclave\PerformanceTests_t.c:607.20
$LN2233:
        mov       QWORD PTR [24+rbp], rax                       ;\\Mac\Home\Documents\Studium\6. Semester\Bachelorarbeit\Code\PerformanceTests\Enclave\PerformanceTests_t.c:607.20
$LN2234:
                                ; LOE rbx rbp rsi rdi rsp r12 r13 r14 r15 rip zmm6 zmm7 zmm8 zmm9 zmm10 zmm11 zmm12 zmm13 zmm14 zmm15
.B13.2::                        ; Preds .B13.5 .B13.1
                                ; Execution count [0.00e+000]
$LN2235:

;;; 
;;; 	CHECK_REF_POINTER(pms, sizeof(ms_enclaveVByteEncodeEncryptedPreproc_t));

        mov       rax, QWORD PTR [64+rbp]                       ;\\Mac\Home\Documents\Studium\6. Semester\Bachelorarbeit\Code\PerformanceTests\Enclave\PerformanceTests_t.c:609.2
$LN2236:
        test      rax, rax                                      ;\\Mac\Home\Documents\Studium\6. Semester\Bachelorarbeit\Code\PerformanceTests\Enclave\PerformanceTests_t.c:609.2
$LN2237:
        je        .B13.6        ; Prob 50%                      ;\\Mac\Home\Documents\Studium\6. Semester\Bachelorarbeit\Code\PerformanceTests\Enclave\PerformanceTests_t.c:609.2
$LN2238:
                                ; LOE rbx rbp rsi rdi rsp r12 r13 r14 r15 rip zmm6 zmm7 zmm8 zmm9 zmm10 zmm11 zmm12 zmm13 zmm14 zmm15
.B13.3::                        ; Preds .B13.2
                                ; Execution count [0.00e+000]
$LN2239:
        mov       rax, QWORD PTR [64+rbp]                       ;\\Mac\Home\Documents\Studium\6. Semester\Bachelorarbeit\Code\PerformanceTests\Enclave\PerformanceTests_t.c:609.2
$LN2240:
        mov       edx, 32                                       ;\\Mac\Home\Documents\Studium\6. Semester\Bachelorarbeit\Code\PerformanceTests\Enclave\PerformanceTests_t.c:609.2
$LN2241:
        mov       rcx, rax                                      ;\\Mac\Home\Documents\Studium\6. Semester\Bachelorarbeit\Code\PerformanceTests\Enclave\PerformanceTests_t.c:609.2
$LN2242:
;       sgx_is_outside_enclave(const void *, size_t)
        call      sgx_is_outside_enclave                        ;\\Mac\Home\Documents\Studium\6. Semester\Bachelorarbeit\Code\PerformanceTests\Enclave\PerformanceTests_t.c:609.2
$LN2243:
                                ; LOE rbx rbp rsi rdi rsp r12 r13 r14 r15 rip eax zmm6 zmm7 zmm8 zmm9 zmm10 zmm11 zmm12 zmm13 zmm14 zmm15
.B13.11::                       ; Preds .B13.3
                                ; Execution count [0.00e+000]
$LN2244:
        mov       DWORD PTR [4+rbp], eax                        ;\\Mac\Home\Documents\Studium\6. Semester\Bachelorarbeit\Code\PerformanceTests\Enclave\PerformanceTests_t.c:609.2
$LN2245:
                                ; LOE rbx rbp rsi rdi rsp r12 r13 r14 r15 rip zmm6 zmm7 zmm8 zmm9 zmm10 zmm11 zmm12 zmm13 zmm14 zmm15
.B13.4::                        ; Preds .B13.11
                                ; Execution count [0.00e+000]
$LN2246:
        mov       eax, DWORD PTR [4+rbp]                        ;\\Mac\Home\Documents\Studium\6. Semester\Bachelorarbeit\Code\PerformanceTests\Enclave\PerformanceTests_t.c:609.2
$LN2247:
        test      eax, eax                                      ;\\Mac\Home\Documents\Studium\6. Semester\Bachelorarbeit\Code\PerformanceTests\Enclave\PerformanceTests_t.c:609.2
$LN2248:
        je        .B13.6        ; Prob 50%                      ;\\Mac\Home\Documents\Studium\6. Semester\Bachelorarbeit\Code\PerformanceTests\Enclave\PerformanceTests_t.c:609.2
$LN2249:
                                ; LOE rbx rbp rsi rdi rsp r12 r13 r14 r15 rip zmm6 zmm7 zmm8 zmm9 zmm10 zmm11 zmm12 zmm13 zmm14 zmm15
.B13.5::                        ; Preds .B13.4
                                ; Execution count [0.00e+000]
$LN2250:
        mov       eax, 0                                        ;\\Mac\Home\Documents\Studium\6. Semester\Bachelorarbeit\Code\PerformanceTests\Enclave\PerformanceTests_t.c:609.2
$LN2251:
        test      eax, eax                                      ;\\Mac\Home\Documents\Studium\6. Semester\Bachelorarbeit\Code\PerformanceTests\Enclave\PerformanceTests_t.c:609.2
$LN2252:
        jne       .B13.2        ; Prob 0%                       ;\\Mac\Home\Documents\Studium\6. Semester\Bachelorarbeit\Code\PerformanceTests\Enclave\PerformanceTests_t.c:609.2
$LN2253:
        jmp       .B13.7        ; Prob 100%                     ;\\Mac\Home\Documents\Studium\6. Semester\Bachelorarbeit\Code\PerformanceTests\Enclave\PerformanceTests_t.c:609.2
$LN2254:
                                ; LOE rbx rbp rsi rdi rsp r12 r13 r14 r15 rip zmm6 zmm7 zmm8 zmm9 zmm10 zmm11 zmm12 zmm13 zmm14 zmm15
.B13.6::                        ; Preds .B13.2 .B13.4
                                ; Execution count [0.00e+000]
$LN2255:
        mov       eax, 2                                        ;\\Mac\Home\Documents\Studium\6. Semester\Bachelorarbeit\Code\PerformanceTests\Enclave\PerformanceTests_t.c:609.2
$LN2256:
        lea       rsp, QWORD PTR [48+rbp]                       ;\\Mac\Home\Documents\Studium\6. Semester\Bachelorarbeit\Code\PerformanceTests\Enclave\PerformanceTests_t.c:609.2
$LN2257:
        pop       rbp                                           ;\\Mac\Home\Documents\Studium\6. Semester\Bachelorarbeit\Code\PerformanceTests\Enclave\PerformanceTests_t.c:609.2
$LN2258:
        ret                                                     ;\\Mac\Home\Documents\Studium\6. Semester\Bachelorarbeit\Code\PerformanceTests\Enclave\PerformanceTests_t.c:609.2
$LN2259:
                                ; LOE
.B13.7::                        ; Preds .B13.5
                                ; Execution count [0.00e+000]
$LN2260:

;;; 
;;; 	ms->ms_retval = enclaveVByteEncodeEncryptedPreproc(_tmp_in, ms->ms_length, _tmp_out);

        mov       rax, QWORD PTR [16+rbp]                       ;\\Mac\Home\Documents\Studium\6. Semester\Bachelorarbeit\Code\PerformanceTests\Enclave\PerformanceTests_t.c:611.2
$LN2261:
        mov       rdx, QWORD PTR [8+rbp]                        ;\\Mac\Home\Documents\Studium\6. Semester\Bachelorarbeit\Code\PerformanceTests\Enclave\PerformanceTests_t.c:611.2
$LN2262:
        mov       rdx, QWORD PTR [16+rdx]                       ;\\Mac\Home\Documents\Studium\6. Semester\Bachelorarbeit\Code\PerformanceTests\Enclave\PerformanceTests_t.c:611.2
$LN2263:
        mov       rcx, QWORD PTR [24+rbp]                       ;\\Mac\Home\Documents\Studium\6. Semester\Bachelorarbeit\Code\PerformanceTests\Enclave\PerformanceTests_t.c:611.2
$LN2264:
        mov       QWORD PTR [40+rbp], rcx                       ;\\Mac\Home\Documents\Studium\6. Semester\Bachelorarbeit\Code\PerformanceTests\Enclave\PerformanceTests_t.c:611.2[spill]
$LN2265:
        mov       rcx, rax                                      ;\\Mac\Home\Documents\Studium\6. Semester\Bachelorarbeit\Code\PerformanceTests\Enclave\PerformanceTests_t.c:611.2
$LN2266:
        mov       rax, QWORD PTR [40+rbp]                       ;\\Mac\Home\Documents\Studium\6. Semester\Bachelorarbeit\Code\PerformanceTests\Enclave\PerformanceTests_t.c:611.2[spill]
$LN2267:
        mov       r8, rax                                       ;\\Mac\Home\Documents\Studium\6. Semester\Bachelorarbeit\Code\PerformanceTests\Enclave\PerformanceTests_t.c:611.2
$LN2268:
;       enclaveVByteEncodeEncryptedPreproc(uint8_t *, size_t, uint8_t *)
        call      enclaveVByteEncodeEncryptedPreproc            ;\\Mac\Home\Documents\Studium\6. Semester\Bachelorarbeit\Code\PerformanceTests\Enclave\PerformanceTests_t.c:611.2
$LN2269:
                                ; LOE rax rbx rbp rsi rdi rsp r12 r13 r14 r15 rip zmm6 zmm7 zmm8 zmm9 zmm10 zmm11 zmm12 zmm13 zmm14 zmm15
.B13.12::                       ; Preds .B13.7
                                ; Execution count [0.00e+000]
$LN2270:
        mov       QWORD PTR [32+rbp], rax                       ;\\Mac\Home\Documents\Studium\6. Semester\Bachelorarbeit\Code\PerformanceTests\Enclave\PerformanceTests_t.c:611.2
$LN2271:
                                ; LOE rbx rbp rsi rdi rsp r12 r13 r14 r15 rip zmm6 zmm7 zmm8 zmm9 zmm10 zmm11 zmm12 zmm13 zmm14 zmm15
.B13.8::                        ; Preds .B13.12
                                ; Execution count [0.00e+000]
$LN2272:
        mov       rax, QWORD PTR [8+rbp]                        ;\\Mac\Home\Documents\Studium\6. Semester\Bachelorarbeit\Code\PerformanceTests\Enclave\PerformanceTests_t.c:611.2
$LN2273:
        mov       rdx, QWORD PTR [32+rbp]                       ;\\Mac\Home\Documents\Studium\6. Semester\Bachelorarbeit\Code\PerformanceTests\Enclave\PerformanceTests_t.c:611.2
$LN2274:
        mov       QWORD PTR [rax], rdx                          ;\\Mac\Home\Documents\Studium\6. Semester\Bachelorarbeit\Code\PerformanceTests\Enclave\PerformanceTests_t.c:611.2
$LN2275:

;;; 
;;; 
;;; 	return status;

        mov       eax, DWORD PTR [rbp]                          ;\\Mac\Home\Documents\Studium\6. Semester\Bachelorarbeit\Code\PerformanceTests\Enclave\PerformanceTests_t.c:614.2
$LN2276:
        lea       rsp, QWORD PTR [48+rbp]                       ;\\Mac\Home\Documents\Studium\6. Semester\Bachelorarbeit\Code\PerformanceTests\Enclave\PerformanceTests_t.c:614.2
$LN2277:
        pop       rbp                                           ;\\Mac\Home\Documents\Studium\6. Semester\Bachelorarbeit\Code\PerformanceTests\Enclave\PerformanceTests_t.c:614.2
$LN2278:
        ret                                                     ;\\Mac\Home\Documents\Studium\6. Semester\Bachelorarbeit\Code\PerformanceTests\Enclave\PerformanceTests_t.c:614.2
$LN2279:
                                ; LOE
.B13.9::
$LN2280:
; mark_end;
sgx_enclaveVByteEncodeEncryptedPreproc ENDP
$LNsgx_enclaveVByteEncodeEncryptedPreproc$2281:
_TEXT	ENDS
.xdata	SEGMENT  DWORD   READ  ''
	ALIGN 004H
.unwind.sgx_enclaveVByteEncodeEncryptedPreproc.B1_B8	DD	620956161
	DD	2449801994
	DD	20481
.xdata	ENDS
.pdata	SEGMENT  DWORD   READ  ''
	ALIGN 004H
.pdata.sgx_enclaveVByteEncodeEncryptedPreproc.B1_B8	DD	imagerel .B13.1
	DD	imagerel .B13.9
	DD	imagerel .unwind.sgx_enclaveVByteEncodeEncryptedPreproc.B1_B8
.pdata	ENDS
_DATA	SEGMENT      'DATA'
_DATA	ENDS
; -- End  sgx_enclaveVByteEncodeEncryptedPreproc
_TEXT	SEGMENT      'CODE'
_2__routine_start_sgx_enclaveCrypto_13:
; -- Begin  sgx_enclaveCrypto
_TEXT	ENDS
_TEXT	SEGMENT      'CODE'
; mark_begin;

; --- sgx_enclaveCrypto(void *)
sgx_enclaveCrypto	PROC PRIVATE
; parameter 1(pms): rcx
.B14.1::                        ; Preds .B14.0
                                ; Execution count [0.00e+000]

;;; {

L109::
                                                         ;\\Mac\Home\Documents\Studium\6. Semester\Bachelorarbeit\Code\PerformanceTests\Enclave\PerformanceTests_t.c:618.1
$LN2282:
        push      rbp                                           ;\\Mac\Home\Documents\Studium\6. Semester\Bachelorarbeit\Code\PerformanceTests\Enclave\PerformanceTests_t.c:618.1
$LN2283:
        sub       rsp, 208                                      ;\\Mac\Home\Documents\Studium\6. Semester\Bachelorarbeit\Code\PerformanceTests\Enclave\PerformanceTests_t.c:618.1
$LN2284:
        lea       rbp, QWORD PTR [32+rsp]                       ;\\Mac\Home\Documents\Studium\6. Semester\Bachelorarbeit\Code\PerformanceTests\Enclave\PerformanceTests_t.c:618.1
$LN2285:
        mov       QWORD PTR [168+rbp], rdi                      ;\\Mac\Home\Documents\Studium\6. Semester\Bachelorarbeit\Code\PerformanceTests\Enclave\PerformanceTests_t.c:618.1[spill]
$LN2286:
        mov       QWORD PTR [160+rbp], rsi                      ;\\Mac\Home\Documents\Studium\6. Semester\Bachelorarbeit\Code\PerformanceTests\Enclave\PerformanceTests_t.c:618.1[spill]
$LN2287:
        mov       QWORD PTR [152+rbp], rbx                      ;\\Mac\Home\Documents\Studium\6. Semester\Bachelorarbeit\Code\PerformanceTests\Enclave\PerformanceTests_t.c:618.1[spill]
$LN2288:
        mov       QWORD PTR [192+rbp], rcx                      ;\\Mac\Home\Documents\Studium\6. Semester\Bachelorarbeit\Code\PerformanceTests\Enclave\PerformanceTests_t.c:618.1
$LN2289:

;;; 	ms_enclaveCrypto_t* ms = SGX_CAST(ms_enclaveCrypto_t*, pms);

        mov       rax, QWORD PTR [192+rbp]                      ;\\Mac\Home\Documents\Studium\6. Semester\Bachelorarbeit\Code\PerformanceTests\Enclave\PerformanceTests_t.c:619.25
$LN2290:
        mov       QWORD PTR [16+rbp], rax                       ;\\Mac\Home\Documents\Studium\6. Semester\Bachelorarbeit\Code\PerformanceTests\Enclave\PerformanceTests_t.c:619.25
$LN2291:

;;; 	sgx_status_t status = SGX_SUCCESS;

        mov       DWORD PTR [rbp], 0                            ;\\Mac\Home\Documents\Studium\6. Semester\Bachelorarbeit\Code\PerformanceTests\Enclave\PerformanceTests_t.c:620.22
$LN2292:

;;; 	uint8_t* _tmp_in = ms->ms_in;

        mov       rax, QWORD PTR [16+rbp]                       ;\\Mac\Home\Documents\Studium\6. Semester\Bachelorarbeit\Code\PerformanceTests\Enclave\PerformanceTests_t.c:621.19
$LN2293:
        mov       rax, QWORD PTR [8+rax]                        ;\\Mac\Home\Documents\Studium\6. Semester\Bachelorarbeit\Code\PerformanceTests\Enclave\PerformanceTests_t.c:621.19
$LN2294:
        mov       QWORD PTR [24+rbp], rax                       ;\\Mac\Home\Documents\Studium\6. Semester\Bachelorarbeit\Code\PerformanceTests\Enclave\PerformanceTests_t.c:621.19
$LN2295:

;;; 	size_t _tmp_inLength = ms->ms_inLength;

        mov       rax, QWORD PTR [16+rbp]                       ;\\Mac\Home\Documents\Studium\6. Semester\Bachelorarbeit\Code\PerformanceTests\Enclave\PerformanceTests_t.c:622.23
$LN2296:
        mov       rax, QWORD PTR [16+rax]                       ;\\Mac\Home\Documents\Studium\6. Semester\Bachelorarbeit\Code\PerformanceTests\Enclave\PerformanceTests_t.c:622.23
$LN2297:
        mov       QWORD PTR [32+rbp], rax                       ;\\Mac\Home\Documents\Studium\6. Semester\Bachelorarbeit\Code\PerformanceTests\Enclave\PerformanceTests_t.c:622.23
$LN2298:

;;; 	size_t _len_in = _tmp_inLength;

        mov       rax, QWORD PTR [32+rbp]                       ;\\Mac\Home\Documents\Studium\6. Semester\Bachelorarbeit\Code\PerformanceTests\Enclave\PerformanceTests_t.c:623.17
$LN2299:
        mov       QWORD PTR [40+rbp], rax                       ;\\Mac\Home\Documents\Studium\6. Semester\Bachelorarbeit\Code\PerformanceTests\Enclave\PerformanceTests_t.c:623.17
$LN2300:

;;; 	uint8_t* _in_in = NULL;

        mov       QWORD PTR [48+rbp], 0                         ;\\Mac\Home\Documents\Studium\6. Semester\Bachelorarbeit\Code\PerformanceTests\Enclave\PerformanceTests_t.c:624.18
$LN2301:

;;; 	uint8_t* _tmp_out = ms->ms_out;

        mov       rax, QWORD PTR [16+rbp]                       ;\\Mac\Home\Documents\Studium\6. Semester\Bachelorarbeit\Code\PerformanceTests\Enclave\PerformanceTests_t.c:625.20
$LN2302:
        mov       rax, QWORD PTR [24+rax]                       ;\\Mac\Home\Documents\Studium\6. Semester\Bachelorarbeit\Code\PerformanceTests\Enclave\PerformanceTests_t.c:625.20
$LN2303:
        mov       QWORD PTR [56+rbp], rax                       ;\\Mac\Home\Documents\Studium\6. Semester\Bachelorarbeit\Code\PerformanceTests\Enclave\PerformanceTests_t.c:625.20
$LN2304:

;;; 	size_t _tmp_outLength = ms->ms_outLength;

        mov       rax, QWORD PTR [16+rbp]                       ;\\Mac\Home\Documents\Studium\6. Semester\Bachelorarbeit\Code\PerformanceTests\Enclave\PerformanceTests_t.c:626.24
$LN2305:
        mov       rax, QWORD PTR [32+rax]                       ;\\Mac\Home\Documents\Studium\6. Semester\Bachelorarbeit\Code\PerformanceTests\Enclave\PerformanceTests_t.c:626.24
$LN2306:
        mov       QWORD PTR [64+rbp], rax                       ;\\Mac\Home\Documents\Studium\6. Semester\Bachelorarbeit\Code\PerformanceTests\Enclave\PerformanceTests_t.c:626.24
$LN2307:

;;; 	size_t _len_out = _tmp_outLength;

        mov       rax, QWORD PTR [64+rbp]                       ;\\Mac\Home\Documents\Studium\6. Semester\Bachelorarbeit\Code\PerformanceTests\Enclave\PerformanceTests_t.c:627.18
$LN2308:
        mov       QWORD PTR [72+rbp], rax                       ;\\Mac\Home\Documents\Studium\6. Semester\Bachelorarbeit\Code\PerformanceTests\Enclave\PerformanceTests_t.c:627.18
$LN2309:

;;; 	uint8_t* _in_out = NULL;

        mov       QWORD PTR [80+rbp], 0                         ;\\Mac\Home\Documents\Studium\6. Semester\Bachelorarbeit\Code\PerformanceTests\Enclave\PerformanceTests_t.c:628.19
$LN2310:
                                ; LOE rbp rsp r12 r13 r14 r15 rip zmm6 zmm7 zmm8 zmm9 zmm10 zmm11 zmm12 zmm13 zmm14 zmm15
.B14.2::                        ; Preds .B14.5 .B14.1
                                ; Execution count [0.00e+000]
$LN2311:

;;; 
;;; 	CHECK_REF_POINTER(pms, sizeof(ms_enclaveCrypto_t));

        mov       rax, QWORD PTR [192+rbp]                      ;\\Mac\Home\Documents\Studium\6. Semester\Bachelorarbeit\Code\PerformanceTests\Enclave\PerformanceTests_t.c:630.2
$LN2312:
        test      rax, rax                                      ;\\Mac\Home\Documents\Studium\6. Semester\Bachelorarbeit\Code\PerformanceTests\Enclave\PerformanceTests_t.c:630.2
$LN2313:
        je        .B14.6        ; Prob 50%                      ;\\Mac\Home\Documents\Studium\6. Semester\Bachelorarbeit\Code\PerformanceTests\Enclave\PerformanceTests_t.c:630.2
$LN2314:
                                ; LOE rbp rsp r12 r13 r14 r15 rip zmm6 zmm7 zmm8 zmm9 zmm10 zmm11 zmm12 zmm13 zmm14 zmm15
.B14.3::                        ; Preds .B14.2
                                ; Execution count [0.00e+000]
$LN2315:
        mov       rax, QWORD PTR [192+rbp]                      ;\\Mac\Home\Documents\Studium\6. Semester\Bachelorarbeit\Code\PerformanceTests\Enclave\PerformanceTests_t.c:630.2
$LN2316:
        mov       edx, 40                                       ;\\Mac\Home\Documents\Studium\6. Semester\Bachelorarbeit\Code\PerformanceTests\Enclave\PerformanceTests_t.c:630.2
$LN2317:
        mov       rcx, rax                                      ;\\Mac\Home\Documents\Studium\6. Semester\Bachelorarbeit\Code\PerformanceTests\Enclave\PerformanceTests_t.c:630.2
$LN2318:
;       sgx_is_outside_enclave(const void *, size_t)
        call      sgx_is_outside_enclave                        ;\\Mac\Home\Documents\Studium\6. Semester\Bachelorarbeit\Code\PerformanceTests\Enclave\PerformanceTests_t.c:630.2
$LN2319:
                                ; LOE rbp rsp r12 r13 r14 r15 rip eax zmm6 zmm7 zmm8 zmm9 zmm10 zmm11 zmm12 zmm13 zmm14 zmm15
.B14.37::                       ; Preds .B14.3
                                ; Execution count [0.00e+000]
$LN2320:
        mov       DWORD PTR [4+rbp], eax                        ;\\Mac\Home\Documents\Studium\6. Semester\Bachelorarbeit\Code\PerformanceTests\Enclave\PerformanceTests_t.c:630.2
$LN2321:
                                ; LOE rbp rsp r12 r13 r14 r15 rip zmm6 zmm7 zmm8 zmm9 zmm10 zmm11 zmm12 zmm13 zmm14 zmm15
.B14.4::                        ; Preds .B14.37
                                ; Execution count [0.00e+000]
$LN2322:
        mov       eax, DWORD PTR [4+rbp]                        ;\\Mac\Home\Documents\Studium\6. Semester\Bachelorarbeit\Code\PerformanceTests\Enclave\PerformanceTests_t.c:630.2
$LN2323:
        test      eax, eax                                      ;\\Mac\Home\Documents\Studium\6. Semester\Bachelorarbeit\Code\PerformanceTests\Enclave\PerformanceTests_t.c:630.2
$LN2324:
        je        .B14.6        ; Prob 50%                      ;\\Mac\Home\Documents\Studium\6. Semester\Bachelorarbeit\Code\PerformanceTests\Enclave\PerformanceTests_t.c:630.2
$LN2325:
                                ; LOE rbp rsp r12 r13 r14 r15 rip zmm6 zmm7 zmm8 zmm9 zmm10 zmm11 zmm12 zmm13 zmm14 zmm15
.B14.5::                        ; Preds .B14.4
                                ; Execution count [0.00e+000]
$LN2326:
        mov       eax, 0                                        ;\\Mac\Home\Documents\Studium\6. Semester\Bachelorarbeit\Code\PerformanceTests\Enclave\PerformanceTests_t.c:630.2
$LN2327:
        test      eax, eax                                      ;\\Mac\Home\Documents\Studium\6. Semester\Bachelorarbeit\Code\PerformanceTests\Enclave\PerformanceTests_t.c:630.2
$LN2328:
        jne       .B14.2        ; Prob 0%                       ;\\Mac\Home\Documents\Studium\6. Semester\Bachelorarbeit\Code\PerformanceTests\Enclave\PerformanceTests_t.c:630.2
$LN2329:
        jmp       .B14.7        ; Prob 100%                     ;\\Mac\Home\Documents\Studium\6. Semester\Bachelorarbeit\Code\PerformanceTests\Enclave\PerformanceTests_t.c:630.2
$LN2330:
                                ; LOE rbp rsp r12 r13 r14 r15 rip zmm6 zmm7 zmm8 zmm9 zmm10 zmm11 zmm12 zmm13 zmm14 zmm15
.B14.6::                        ; Preds .B14.2 .B14.4
                                ; Execution count [0.00e+000]
$LN2331:
        mov       eax, 2                                        ;\\Mac\Home\Documents\Studium\6. Semester\Bachelorarbeit\Code\PerformanceTests\Enclave\PerformanceTests_t.c:630.2
$LN2332:
        mov       rbx, QWORD PTR [152+rbp]                      ;\\Mac\Home\Documents\Studium\6. Semester\Bachelorarbeit\Code\PerformanceTests\Enclave\PerformanceTests_t.c:630.2[spill]
$LN2333:
        mov       rsi, QWORD PTR [160+rbp]                      ;\\Mac\Home\Documents\Studium\6. Semester\Bachelorarbeit\Code\PerformanceTests\Enclave\PerformanceTests_t.c:630.2[spill]
$LN2334:
        mov       rdi, QWORD PTR [168+rbp]                      ;\\Mac\Home\Documents\Studium\6. Semester\Bachelorarbeit\Code\PerformanceTests\Enclave\PerformanceTests_t.c:630.2[spill]
$LN2335:
        lea       rsp, QWORD PTR [176+rbp]                      ;\\Mac\Home\Documents\Studium\6. Semester\Bachelorarbeit\Code\PerformanceTests\Enclave\PerformanceTests_t.c:630.2
$LN2336:
        pop       rbp                                           ;\\Mac\Home\Documents\Studium\6. Semester\Bachelorarbeit\Code\PerformanceTests\Enclave\PerformanceTests_t.c:630.2
$LN2337:
        ret                                                     ;\\Mac\Home\Documents\Studium\6. Semester\Bachelorarbeit\Code\PerformanceTests\Enclave\PerformanceTests_t.c:630.2
$LN2338:
                                ; LOE
.B14.7::                        ; Preds .B14.10 .B14.5
                                ; Execution count [0.00e+000]
$LN2339:

;;; 	CHECK_UNIQUE_POINTER(_tmp_in, _len_in);

        mov       rax, QWORD PTR [24+rbp]                       ;\\Mac\Home\Documents\Studium\6. Semester\Bachelorarbeit\Code\PerformanceTests\Enclave\PerformanceTests_t.c:631.2
$LN2340:
        test      rax, rax                                      ;\\Mac\Home\Documents\Studium\6. Semester\Bachelorarbeit\Code\PerformanceTests\Enclave\PerformanceTests_t.c:631.2
$LN2341:
        je        .B14.10       ; Prob 50%                      ;\\Mac\Home\Documents\Studium\6. Semester\Bachelorarbeit\Code\PerformanceTests\Enclave\PerformanceTests_t.c:631.2
$LN2342:
                                ; LOE rbp rsp r12 r13 r14 r15 rip zmm6 zmm7 zmm8 zmm9 zmm10 zmm11 zmm12 zmm13 zmm14 zmm15
.B14.8::                        ; Preds .B14.7
                                ; Execution count [0.00e+000]
$LN2343:
        mov       rax, QWORD PTR [24+rbp]                       ;\\Mac\Home\Documents\Studium\6. Semester\Bachelorarbeit\Code\PerformanceTests\Enclave\PerformanceTests_t.c:631.2
$LN2344:
        mov       rdx, QWORD PTR [40+rbp]                       ;\\Mac\Home\Documents\Studium\6. Semester\Bachelorarbeit\Code\PerformanceTests\Enclave\PerformanceTests_t.c:631.2
$LN2345:
        mov       rcx, rax                                      ;\\Mac\Home\Documents\Studium\6. Semester\Bachelorarbeit\Code\PerformanceTests\Enclave\PerformanceTests_t.c:631.2
$LN2346:
;       sgx_is_outside_enclave(const void *, size_t)
        call      sgx_is_outside_enclave                        ;\\Mac\Home\Documents\Studium\6. Semester\Bachelorarbeit\Code\PerformanceTests\Enclave\PerformanceTests_t.c:631.2
$LN2347:
                                ; LOE rbp rsp r12 r13 r14 r15 rip eax zmm6 zmm7 zmm8 zmm9 zmm10 zmm11 zmm12 zmm13 zmm14 zmm15
.B14.38::                       ; Preds .B14.8
                                ; Execution count [0.00e+000]
$LN2348:
        mov       DWORD PTR [8+rbp], eax                        ;\\Mac\Home\Documents\Studium\6. Semester\Bachelorarbeit\Code\PerformanceTests\Enclave\PerformanceTests_t.c:631.2
$LN2349:
                                ; LOE rbp rsp r12 r13 r14 r15 rip zmm6 zmm7 zmm8 zmm9 zmm10 zmm11 zmm12 zmm13 zmm14 zmm15
.B14.9::                        ; Preds .B14.38
                                ; Execution count [0.00e+000]
$LN2350:
        mov       eax, DWORD PTR [8+rbp]                        ;\\Mac\Home\Documents\Studium\6. Semester\Bachelorarbeit\Code\PerformanceTests\Enclave\PerformanceTests_t.c:631.2
$LN2351:
        test      eax, eax                                      ;\\Mac\Home\Documents\Studium\6. Semester\Bachelorarbeit\Code\PerformanceTests\Enclave\PerformanceTests_t.c:631.2
$LN2352:
        je        .B14.11       ; Prob 50%                      ;\\Mac\Home\Documents\Studium\6. Semester\Bachelorarbeit\Code\PerformanceTests\Enclave\PerformanceTests_t.c:631.2
$LN2353:
                                ; LOE rbp rsp r12 r13 r14 r15 rip zmm6 zmm7 zmm8 zmm9 zmm10 zmm11 zmm12 zmm13 zmm14 zmm15
.B14.10::                       ; Preds .B14.9 .B14.7
                                ; Execution count [0.00e+000]
$LN2354:
        mov       eax, 0                                        ;\\Mac\Home\Documents\Studium\6. Semester\Bachelorarbeit\Code\PerformanceTests\Enclave\PerformanceTests_t.c:631.2
$LN2355:
        test      eax, eax                                      ;\\Mac\Home\Documents\Studium\6. Semester\Bachelorarbeit\Code\PerformanceTests\Enclave\PerformanceTests_t.c:631.2
$LN2356:
        jne       .B14.7        ; Prob 0%                       ;\\Mac\Home\Documents\Studium\6. Semester\Bachelorarbeit\Code\PerformanceTests\Enclave\PerformanceTests_t.c:631.2
$LN2357:
        jmp       .B14.12       ; Prob 100%                     ;\\Mac\Home\Documents\Studium\6. Semester\Bachelorarbeit\Code\PerformanceTests\Enclave\PerformanceTests_t.c:631.2
$LN2358:
                                ; LOE rbp rsp r12 r13 r14 r15 rip zmm6 zmm7 zmm8 zmm9 zmm10 zmm11 zmm12 zmm13 zmm14 zmm15
.B14.11::                       ; Preds .B14.9
                                ; Execution count [0.00e+000]
$LN2359:
        mov       eax, 2                                        ;\\Mac\Home\Documents\Studium\6. Semester\Bachelorarbeit\Code\PerformanceTests\Enclave\PerformanceTests_t.c:631.2
$LN2360:
        mov       rbx, QWORD PTR [152+rbp]                      ;\\Mac\Home\Documents\Studium\6. Semester\Bachelorarbeit\Code\PerformanceTests\Enclave\PerformanceTests_t.c:631.2[spill]
$LN2361:
        mov       rsi, QWORD PTR [160+rbp]                      ;\\Mac\Home\Documents\Studium\6. Semester\Bachelorarbeit\Code\PerformanceTests\Enclave\PerformanceTests_t.c:631.2[spill]
$LN2362:
        mov       rdi, QWORD PTR [168+rbp]                      ;\\Mac\Home\Documents\Studium\6. Semester\Bachelorarbeit\Code\PerformanceTests\Enclave\PerformanceTests_t.c:631.2[spill]
$LN2363:
        lea       rsp, QWORD PTR [176+rbp]                      ;\\Mac\Home\Documents\Studium\6. Semester\Bachelorarbeit\Code\PerformanceTests\Enclave\PerformanceTests_t.c:631.2
$LN2364:
        pop       rbp                                           ;\\Mac\Home\Documents\Studium\6. Semester\Bachelorarbeit\Code\PerformanceTests\Enclave\PerformanceTests_t.c:631.2
$LN2365:
        ret                                                     ;\\Mac\Home\Documents\Studium\6. Semester\Bachelorarbeit\Code\PerformanceTests\Enclave\PerformanceTests_t.c:631.2
$LN2366:
                                ; LOE
.B14.12::                       ; Preds .B14.15 .B14.10
                                ; Execution count [0.00e+000]
$LN2367:

;;; 	CHECK_UNIQUE_POINTER(_tmp_out, _len_out);

        mov       rax, QWORD PTR [56+rbp]                       ;\\Mac\Home\Documents\Studium\6. Semester\Bachelorarbeit\Code\PerformanceTests\Enclave\PerformanceTests_t.c:632.2
$LN2368:
        test      rax, rax                                      ;\\Mac\Home\Documents\Studium\6. Semester\Bachelorarbeit\Code\PerformanceTests\Enclave\PerformanceTests_t.c:632.2
$LN2369:
        je        .B14.15       ; Prob 50%                      ;\\Mac\Home\Documents\Studium\6. Semester\Bachelorarbeit\Code\PerformanceTests\Enclave\PerformanceTests_t.c:632.2
$LN2370:
                                ; LOE rbp rsp r12 r13 r14 r15 rip zmm6 zmm7 zmm8 zmm9 zmm10 zmm11 zmm12 zmm13 zmm14 zmm15
.B14.13::                       ; Preds .B14.12
                                ; Execution count [0.00e+000]
$LN2371:
        mov       rax, QWORD PTR [56+rbp]                       ;\\Mac\Home\Documents\Studium\6. Semester\Bachelorarbeit\Code\PerformanceTests\Enclave\PerformanceTests_t.c:632.2
$LN2372:
        mov       rdx, QWORD PTR [72+rbp]                       ;\\Mac\Home\Documents\Studium\6. Semester\Bachelorarbeit\Code\PerformanceTests\Enclave\PerformanceTests_t.c:632.2
$LN2373:
        mov       rcx, rax                                      ;\\Mac\Home\Documents\Studium\6. Semester\Bachelorarbeit\Code\PerformanceTests\Enclave\PerformanceTests_t.c:632.2
$LN2374:
;       sgx_is_outside_enclave(const void *, size_t)
        call      sgx_is_outside_enclave                        ;\\Mac\Home\Documents\Studium\6. Semester\Bachelorarbeit\Code\PerformanceTests\Enclave\PerformanceTests_t.c:632.2
$LN2375:
                                ; LOE rbp rsp r12 r13 r14 r15 rip eax zmm6 zmm7 zmm8 zmm9 zmm10 zmm11 zmm12 zmm13 zmm14 zmm15
.B14.39::                       ; Preds .B14.13
                                ; Execution count [0.00e+000]
$LN2376:
        mov       DWORD PTR [12+rbp], eax                       ;\\Mac\Home\Documents\Studium\6. Semester\Bachelorarbeit\Code\PerformanceTests\Enclave\PerformanceTests_t.c:632.2
$LN2377:
                                ; LOE rbp rsp r12 r13 r14 r15 rip zmm6 zmm7 zmm8 zmm9 zmm10 zmm11 zmm12 zmm13 zmm14 zmm15
.B14.14::                       ; Preds .B14.39
                                ; Execution count [0.00e+000]
$LN2378:
        mov       eax, DWORD PTR [12+rbp]                       ;\\Mac\Home\Documents\Studium\6. Semester\Bachelorarbeit\Code\PerformanceTests\Enclave\PerformanceTests_t.c:632.2
$LN2379:
        test      eax, eax                                      ;\\Mac\Home\Documents\Studium\6. Semester\Bachelorarbeit\Code\PerformanceTests\Enclave\PerformanceTests_t.c:632.2
$LN2380:
        je        .B14.16       ; Prob 50%                      ;\\Mac\Home\Documents\Studium\6. Semester\Bachelorarbeit\Code\PerformanceTests\Enclave\PerformanceTests_t.c:632.2
$LN2381:
                                ; LOE rbp rsp r12 r13 r14 r15 rip zmm6 zmm7 zmm8 zmm9 zmm10 zmm11 zmm12 zmm13 zmm14 zmm15
.B14.15::                       ; Preds .B14.14 .B14.12
                                ; Execution count [0.00e+000]
$LN2382:
        mov       eax, 0                                        ;\\Mac\Home\Documents\Studium\6. Semester\Bachelorarbeit\Code\PerformanceTests\Enclave\PerformanceTests_t.c:632.2
$LN2383:
        test      eax, eax                                      ;\\Mac\Home\Documents\Studium\6. Semester\Bachelorarbeit\Code\PerformanceTests\Enclave\PerformanceTests_t.c:632.2
$LN2384:
        jne       .B14.12       ; Prob 0%                       ;\\Mac\Home\Documents\Studium\6. Semester\Bachelorarbeit\Code\PerformanceTests\Enclave\PerformanceTests_t.c:632.2
$LN2385:
        jmp       .B14.17       ; Prob 100%                     ;\\Mac\Home\Documents\Studium\6. Semester\Bachelorarbeit\Code\PerformanceTests\Enclave\PerformanceTests_t.c:632.2
$LN2386:
                                ; LOE rbp rsp r12 r13 r14 r15 rip zmm6 zmm7 zmm8 zmm9 zmm10 zmm11 zmm12 zmm13 zmm14 zmm15
.B14.16::                       ; Preds .B14.14
                                ; Execution count [0.00e+000]
$LN2387:
        mov       eax, 2                                        ;\\Mac\Home\Documents\Studium\6. Semester\Bachelorarbeit\Code\PerformanceTests\Enclave\PerformanceTests_t.c:632.2
$LN2388:
        mov       rbx, QWORD PTR [152+rbp]                      ;\\Mac\Home\Documents\Studium\6. Semester\Bachelorarbeit\Code\PerformanceTests\Enclave\PerformanceTests_t.c:632.2[spill]
$LN2389:
        mov       rsi, QWORD PTR [160+rbp]                      ;\\Mac\Home\Documents\Studium\6. Semester\Bachelorarbeit\Code\PerformanceTests\Enclave\PerformanceTests_t.c:632.2[spill]
$LN2390:
        mov       rdi, QWORD PTR [168+rbp]                      ;\\Mac\Home\Documents\Studium\6. Semester\Bachelorarbeit\Code\PerformanceTests\Enclave\PerformanceTests_t.c:632.2[spill]
$LN2391:
        lea       rsp, QWORD PTR [176+rbp]                      ;\\Mac\Home\Documents\Studium\6. Semester\Bachelorarbeit\Code\PerformanceTests\Enclave\PerformanceTests_t.c:632.2
$LN2392:
        pop       rbp                                           ;\\Mac\Home\Documents\Studium\6. Semester\Bachelorarbeit\Code\PerformanceTests\Enclave\PerformanceTests_t.c:632.2
$LN2393:
        ret                                                     ;\\Mac\Home\Documents\Studium\6. Semester\Bachelorarbeit\Code\PerformanceTests\Enclave\PerformanceTests_t.c:632.2
$LN2394:
                                ; LOE
.B14.17::                       ; Preds .B14.15
                                ; Execution count [0.00e+000]
$LN2395:

;;; 
;;; 	if (_tmp_in != NULL) {

        mov       rax, QWORD PTR [24+rbp]                       ;\\Mac\Home\Documents\Studium\6. Semester\Bachelorarbeit\Code\PerformanceTests\Enclave\PerformanceTests_t.c:634.2
$LN2396:
        test      rax, rax                                      ;\\Mac\Home\Documents\Studium\6. Semester\Bachelorarbeit\Code\PerformanceTests\Enclave\PerformanceTests_t.c:634.2
$LN2397:
        je        .B14.22       ; Prob 50%                      ;\\Mac\Home\Documents\Studium\6. Semester\Bachelorarbeit\Code\PerformanceTests\Enclave\PerformanceTests_t.c:634.2
$LN2398:
                                ; LOE rbp rsp r12 r13 r14 r15 rip zmm6 zmm7 zmm8 zmm9 zmm10 zmm11 zmm12 zmm13 zmm14 zmm15
.B14.18::                       ; Preds .B14.17
                                ; Execution count [0.00e+000]
$LN2399:

;;; 		_in_in = (uint8_t*)malloc(_len_in);

        mov       rax, QWORD PTR [40+rbp]                       ;\\Mac\Home\Documents\Studium\6. Semester\Bachelorarbeit\Code\PerformanceTests\Enclave\PerformanceTests_t.c:635.3
$LN2400:
        mov       rcx, rax                                      ;\\Mac\Home\Documents\Studium\6. Semester\Bachelorarbeit\Code\PerformanceTests\Enclave\PerformanceTests_t.c:635.3
$LN2401:
;       malloc(size_t)
        call      malloc                                        ;\\Mac\Home\Documents\Studium\6. Semester\Bachelorarbeit\Code\PerformanceTests\Enclave\PerformanceTests_t.c:635.3
$LN2402:
                                ; LOE rax rbp rsp r12 r13 r14 r15 rip zmm6 zmm7 zmm8 zmm9 zmm10 zmm11 zmm12 zmm13 zmm14 zmm15
.B14.40::                       ; Preds .B14.18
                                ; Execution count [0.00e+000]
$LN2403:
        mov       QWORD PTR [88+rbp], rax                       ;\\Mac\Home\Documents\Studium\6. Semester\Bachelorarbeit\Code\PerformanceTests\Enclave\PerformanceTests_t.c:635.3
$LN2404:
                                ; LOE rbp rsp r12 r13 r14 r15 rip zmm6 zmm7 zmm8 zmm9 zmm10 zmm11 zmm12 zmm13 zmm14 zmm15
.B14.19::                       ; Preds .B14.40
                                ; Execution count [0.00e+000]
$LN2405:
        mov       rax, QWORD PTR [88+rbp]                       ;\\Mac\Home\Documents\Studium\6. Semester\Bachelorarbeit\Code\PerformanceTests\Enclave\PerformanceTests_t.c:635.3
$LN2406:
        mov       QWORD PTR [48+rbp], rax                       ;\\Mac\Home\Documents\Studium\6. Semester\Bachelorarbeit\Code\PerformanceTests\Enclave\PerformanceTests_t.c:635.3
$LN2407:

;;; 		if (_in_in == NULL) {

        mov       rax, QWORD PTR [48+rbp]                       ;\\Mac\Home\Documents\Studium\6. Semester\Bachelorarbeit\Code\PerformanceTests\Enclave\PerformanceTests_t.c:636.3
$LN2408:
        test      rax, rax                                      ;\\Mac\Home\Documents\Studium\6. Semester\Bachelorarbeit\Code\PerformanceTests\Enclave\PerformanceTests_t.c:636.3
$LN2409:
        jne       .B14.21       ; Prob 50%                      ;\\Mac\Home\Documents\Studium\6. Semester\Bachelorarbeit\Code\PerformanceTests\Enclave\PerformanceTests_t.c:636.3
$LN2410:
                                ; LOE rbp rsp r12 r13 r14 r15 rip zmm6 zmm7 zmm8 zmm9 zmm10 zmm11 zmm12 zmm13 zmm14 zmm15
.B14.20::                       ; Preds .B14.19
                                ; Execution count [0.00e+000]
$LN2411:

;;; 			status = SGX_ERROR_OUT_OF_MEMORY;

        mov       DWORD PTR [rbp], 3                            ;\\Mac\Home\Documents\Studium\6. Semester\Bachelorarbeit\Code\PerformanceTests\Enclave\PerformanceTests_t.c:637.4
$LN2412:
        jmp       .B14.29       ; Prob 100%                     ;\\Mac\Home\Documents\Studium\6. Semester\Bachelorarbeit\Code\PerformanceTests\Enclave\PerformanceTests_t.c:637.4
$LN2413:
                                ; LOE rbp rsp r12 r13 r14 r15 rip zmm6 zmm7 zmm8 zmm9 zmm10 zmm11 zmm12 zmm13 zmm14 zmm15
.B14.21::                       ; Preds .B14.19
                                ; Execution count [0.00e+000]
$LN2414:

;;; 			goto err;
;;; 		}
;;; 
;;; 		memcpy(_in_in, _tmp_in, _len_in);

        mov       rax, QWORD PTR [48+rbp]                       ;\\Mac\Home\Documents\Studium\6. Semester\Bachelorarbeit\Code\PerformanceTests\Enclave\PerformanceTests_t.c:641.3
$LN2415:
        mov       rdx, QWORD PTR [24+rbp]                       ;\\Mac\Home\Documents\Studium\6. Semester\Bachelorarbeit\Code\PerformanceTests\Enclave\PerformanceTests_t.c:641.3
$LN2416:
        mov       rcx, QWORD PTR [40+rbp]                       ;\\Mac\Home\Documents\Studium\6. Semester\Bachelorarbeit\Code\PerformanceTests\Enclave\PerformanceTests_t.c:641.3
$LN2417:
        mov       rdi, rax                                      ;\\Mac\Home\Documents\Studium\6. Semester\Bachelorarbeit\Code\PerformanceTests\Enclave\PerformanceTests_t.c:641.3
$LN2418:
        mov       rsi, rdx                                      ;\\Mac\Home\Documents\Studium\6. Semester\Bachelorarbeit\Code\PerformanceTests\Enclave\PerformanceTests_t.c:641.3
$LN2419:
        mov       rdx, rdi                                      ;\\Mac\Home\Documents\Studium\6. Semester\Bachelorarbeit\Code\PerformanceTests\Enclave\PerformanceTests_t.c:641.3
$LN2420:
        mov       eax, ecx                                      ;\\Mac\Home\Documents\Studium\6. Semester\Bachelorarbeit\Code\PerformanceTests\Enclave\PerformanceTests_t.c:641.3
$LN2421:
        shr       rcx, 2                                        ;\\Mac\Home\Documents\Studium\6. Semester\Bachelorarbeit\Code\PerformanceTests\Enclave\PerformanceTests_t.c:641.3
$LN2422:
        rep   movsd                                             ;\\Mac\Home\Documents\Studium\6. Semester\Bachelorarbeit\Code\PerformanceTests\Enclave\PerformanceTests_t.c:641.3
$LN2423:
        mov       ecx, eax                                      ;\\Mac\Home\Documents\Studium\6. Semester\Bachelorarbeit\Code\PerformanceTests\Enclave\PerformanceTests_t.c:641.3
$LN2424:
        and       ecx, 3                                        ;\\Mac\Home\Documents\Studium\6. Semester\Bachelorarbeit\Code\PerformanceTests\Enclave\PerformanceTests_t.c:641.3
$LN2425:
        rep   movsb                                             ;\\Mac\Home\Documents\Studium\6. Semester\Bachelorarbeit\Code\PerformanceTests\Enclave\PerformanceTests_t.c:641.3
$LN2426:
        mov       rax, rdx                                      ;\\Mac\Home\Documents\Studium\6. Semester\Bachelorarbeit\Code\PerformanceTests\Enclave\PerformanceTests_t.c:641.3
$LN2427:
                                ; LOE rax rbp rsp r12 r13 r14 r15 rip zmm6 zmm7 zmm8 zmm9 zmm10 zmm11 zmm12 zmm13 zmm14 zmm15
.B14.41::                       ; Preds .B14.21
                                ; Execution count [0.00e+000]
$LN2428:
        mov       QWORD PTR [112+rbp], rax                      ;\\Mac\Home\Documents\Studium\6. Semester\Bachelorarbeit\Code\PerformanceTests\Enclave\PerformanceTests_t.c:641.3
$LN2429:
                                ; LOE rbp rsp r12 r13 r14 r15 rip zmm6 zmm7 zmm8 zmm9 zmm10 zmm11 zmm12 zmm13 zmm14 zmm15
.B14.22::                       ; Preds .B14.41 .B14.17
                                ; Execution count [0.00e+000]
$LN2430:

;;; 	}
;;; 	if (_tmp_out != NULL) {

        mov       rax, QWORD PTR [56+rbp]                       ;\\Mac\Home\Documents\Studium\6. Semester\Bachelorarbeit\Code\PerformanceTests\Enclave\PerformanceTests_t.c:643.2
$LN2431:
        test      rax, rax                                      ;\\Mac\Home\Documents\Studium\6. Semester\Bachelorarbeit\Code\PerformanceTests\Enclave\PerformanceTests_t.c:643.2
$LN2432:
        je        .B14.27       ; Prob 50%                      ;\\Mac\Home\Documents\Studium\6. Semester\Bachelorarbeit\Code\PerformanceTests\Enclave\PerformanceTests_t.c:643.2
$LN2433:
                                ; LOE rbp rsp r12 r13 r14 r15 rip zmm6 zmm7 zmm8 zmm9 zmm10 zmm11 zmm12 zmm13 zmm14 zmm15
.B14.23::                       ; Preds .B14.22
                                ; Execution count [0.00e+000]
$LN2434:

;;; 		if ((_in_out = (uint8_t*)malloc(_len_out)) == NULL) {

        mov       rax, QWORD PTR [72+rbp]                       ;\\Mac\Home\Documents\Studium\6. Semester\Bachelorarbeit\Code\PerformanceTests\Enclave\PerformanceTests_t.c:644.3
$LN2435:
        mov       rcx, rax                                      ;\\Mac\Home\Documents\Studium\6. Semester\Bachelorarbeit\Code\PerformanceTests\Enclave\PerformanceTests_t.c:644.3
$LN2436:
;       malloc(size_t)
        call      malloc                                        ;\\Mac\Home\Documents\Studium\6. Semester\Bachelorarbeit\Code\PerformanceTests\Enclave\PerformanceTests_t.c:644.3
$LN2437:
                                ; LOE rax rbp rsp r12 r13 r14 r15 rip zmm6 zmm7 zmm8 zmm9 zmm10 zmm11 zmm12 zmm13 zmm14 zmm15
.B14.42::                       ; Preds .B14.23
                                ; Execution count [0.00e+000]
$LN2438:
        mov       QWORD PTR [96+rbp], rax                       ;\\Mac\Home\Documents\Studium\6. Semester\Bachelorarbeit\Code\PerformanceTests\Enclave\PerformanceTests_t.c:644.3
$LN2439:
                                ; LOE rbp rsp r12 r13 r14 r15 rip zmm6 zmm7 zmm8 zmm9 zmm10 zmm11 zmm12 zmm13 zmm14 zmm15
.B14.24::                       ; Preds .B14.42
                                ; Execution count [0.00e+000]
$LN2440:
        mov       rax, QWORD PTR [96+rbp]                       ;\\Mac\Home\Documents\Studium\6. Semester\Bachelorarbeit\Code\PerformanceTests\Enclave\PerformanceTests_t.c:644.3
$LN2441:
        mov       QWORD PTR [120+rbp], rax                      ;\\Mac\Home\Documents\Studium\6. Semester\Bachelorarbeit\Code\PerformanceTests\Enclave\PerformanceTests_t.c:644.3
$LN2442:
        mov       rax, QWORD PTR [120+rbp]                      ;\\Mac\Home\Documents\Studium\6. Semester\Bachelorarbeit\Code\PerformanceTests\Enclave\PerformanceTests_t.c:644.3
$LN2443:
        mov       QWORD PTR [80+rbp], rax                       ;\\Mac\Home\Documents\Studium\6. Semester\Bachelorarbeit\Code\PerformanceTests\Enclave\PerformanceTests_t.c:644.3
$LN2444:
        mov       rax, QWORD PTR [120+rbp]                      ;\\Mac\Home\Documents\Studium\6. Semester\Bachelorarbeit\Code\PerformanceTests\Enclave\PerformanceTests_t.c:644.3
$LN2445:
        test      rax, rax                                      ;\\Mac\Home\Documents\Studium\6. Semester\Bachelorarbeit\Code\PerformanceTests\Enclave\PerformanceTests_t.c:644.3
$LN2446:
        jne       .B14.26       ; Prob 50%                      ;\\Mac\Home\Documents\Studium\6. Semester\Bachelorarbeit\Code\PerformanceTests\Enclave\PerformanceTests_t.c:644.3
$LN2447:
                                ; LOE rbp rsp r12 r13 r14 r15 rip zmm6 zmm7 zmm8 zmm9 zmm10 zmm11 zmm12 zmm13 zmm14 zmm15
.B14.25::                       ; Preds .B14.24
                                ; Execution count [0.00e+000]
$LN2448:

;;; 			status = SGX_ERROR_OUT_OF_MEMORY;

        mov       DWORD PTR [rbp], 3                            ;\\Mac\Home\Documents\Studium\6. Semester\Bachelorarbeit\Code\PerformanceTests\Enclave\PerformanceTests_t.c:645.4
$LN2449:
        jmp       .B14.29       ; Prob 100%                     ;\\Mac\Home\Documents\Studium\6. Semester\Bachelorarbeit\Code\PerformanceTests\Enclave\PerformanceTests_t.c:645.4
$LN2450:
                                ; LOE rbp rsp r12 r13 r14 r15 rip zmm6 zmm7 zmm8 zmm9 zmm10 zmm11 zmm12 zmm13 zmm14 zmm15
.B14.26::                       ; Preds .B14.24
                                ; Execution count [0.00e+000]
$LN2451:

;;; 			goto err;
;;; 		}
;;; 
;;; 		memset((void*)_in_out, 0, _len_out);

        mov       rax, QWORD PTR [80+rbp]                       ;\\Mac\Home\Documents\Studium\6. Semester\Bachelorarbeit\Code\PerformanceTests\Enclave\PerformanceTests_t.c:649.3
$LN2452:
        mov       edx, 0                                        ;\\Mac\Home\Documents\Studium\6. Semester\Bachelorarbeit\Code\PerformanceTests\Enclave\PerformanceTests_t.c:649.3
$LN2453:
        mov       rcx, QWORD PTR [72+rbp]                       ;\\Mac\Home\Documents\Studium\6. Semester\Bachelorarbeit\Code\PerformanceTests\Enclave\PerformanceTests_t.c:649.3
$LN2454:
        mov       rdi, rax                                      ;\\Mac\Home\Documents\Studium\6. Semester\Bachelorarbeit\Code\PerformanceTests\Enclave\PerformanceTests_t.c:649.3
$LN2455:
        mov       eax, edx                                      ;\\Mac\Home\Documents\Studium\6. Semester\Bachelorarbeit\Code\PerformanceTests\Enclave\PerformanceTests_t.c:649.3
$LN2456:
        and       eax, 65535                                    ;\\Mac\Home\Documents\Studium\6. Semester\Bachelorarbeit\Code\PerformanceTests\Enclave\PerformanceTests_t.c:649.3
$LN2457:
        mov       ah, al                                        ;\\Mac\Home\Documents\Studium\6. Semester\Bachelorarbeit\Code\PerformanceTests\Enclave\PerformanceTests_t.c:649.3
$LN2458:
        mov       edx, eax                                      ;\\Mac\Home\Documents\Studium\6. Semester\Bachelorarbeit\Code\PerformanceTests\Enclave\PerformanceTests_t.c:649.3
$LN2459:
        shl       eax, 16                                       ;\\Mac\Home\Documents\Studium\6. Semester\Bachelorarbeit\Code\PerformanceTests\Enclave\PerformanceTests_t.c:649.3
$LN2460:
        or        eax, edx                                      ;\\Mac\Home\Documents\Studium\6. Semester\Bachelorarbeit\Code\PerformanceTests\Enclave\PerformanceTests_t.c:649.3
$LN2461:
        mov       esi, ecx                                      ;\\Mac\Home\Documents\Studium\6. Semester\Bachelorarbeit\Code\PerformanceTests\Enclave\PerformanceTests_t.c:649.3
$LN2462:
        shr       rcx, 2                                        ;\\Mac\Home\Documents\Studium\6. Semester\Bachelorarbeit\Code\PerformanceTests\Enclave\PerformanceTests_t.c:649.3
$LN2463:
        mov       rdx, rdi                                      ;\\Mac\Home\Documents\Studium\6. Semester\Bachelorarbeit\Code\PerformanceTests\Enclave\PerformanceTests_t.c:649.3
$LN2464:
        rep   stosd                                             ;\\Mac\Home\Documents\Studium\6. Semester\Bachelorarbeit\Code\PerformanceTests\Enclave\PerformanceTests_t.c:649.3
$LN2465:
        mov       ecx, esi                                      ;\\Mac\Home\Documents\Studium\6. Semester\Bachelorarbeit\Code\PerformanceTests\Enclave\PerformanceTests_t.c:649.3
$LN2466:
        and       ecx, 3                                        ;\\Mac\Home\Documents\Studium\6. Semester\Bachelorarbeit\Code\PerformanceTests\Enclave\PerformanceTests_t.c:649.3
$LN2467:
        rep   stosb                                             ;\\Mac\Home\Documents\Studium\6. Semester\Bachelorarbeit\Code\PerformanceTests\Enclave\PerformanceTests_t.c:649.3
$LN2468:
        mov       rax, rdx                                      ;\\Mac\Home\Documents\Studium\6. Semester\Bachelorarbeit\Code\PerformanceTests\Enclave\PerformanceTests_t.c:649.3
$LN2469:
                                ; LOE rax rbp rsp r12 r13 r14 r15 rip zmm6 zmm7 zmm8 zmm9 zmm10 zmm11 zmm12 zmm13 zmm14 zmm15
.B14.43::                       ; Preds .B14.26
                                ; Execution count [0.00e+000]
$LN2470:
        mov       QWORD PTR [128+rbp], rax                      ;\\Mac\Home\Documents\Studium\6. Semester\Bachelorarbeit\Code\PerformanceTests\Enclave\PerformanceTests_t.c:649.3
$LN2471:
                                ; LOE rbp rsp r12 r13 r14 r15 rip zmm6 zmm7 zmm8 zmm9 zmm10 zmm11 zmm12 zmm13 zmm14 zmm15
.B14.27::                       ; Preds .B14.43 .B14.22
                                ; Execution count [0.00e+000]
$LN2472:

;;; 	}
;;; 	ms->ms_retval = enclaveCrypto(_in_in, _tmp_inLength, _in_out, _tmp_outLength);

        mov       rax, QWORD PTR [48+rbp]                       ;\\Mac\Home\Documents\Studium\6. Semester\Bachelorarbeit\Code\PerformanceTests\Enclave\PerformanceTests_t.c:651.2
$LN2473:
        mov       rdx, QWORD PTR [32+rbp]                       ;\\Mac\Home\Documents\Studium\6. Semester\Bachelorarbeit\Code\PerformanceTests\Enclave\PerformanceTests_t.c:651.2
$LN2474:
        mov       rcx, QWORD PTR [80+rbp]                       ;\\Mac\Home\Documents\Studium\6. Semester\Bachelorarbeit\Code\PerformanceTests\Enclave\PerformanceTests_t.c:651.2
$LN2475:
        mov       rbx, QWORD PTR [64+rbp]                       ;\\Mac\Home\Documents\Studium\6. Semester\Bachelorarbeit\Code\PerformanceTests\Enclave\PerformanceTests_t.c:651.2
$LN2476:
        mov       QWORD PTR [144+rbp], rcx                      ;\\Mac\Home\Documents\Studium\6. Semester\Bachelorarbeit\Code\PerformanceTests\Enclave\PerformanceTests_t.c:651.2[spill]
$LN2477:
        mov       rcx, rax                                      ;\\Mac\Home\Documents\Studium\6. Semester\Bachelorarbeit\Code\PerformanceTests\Enclave\PerformanceTests_t.c:651.2
$LN2478:
        mov       rax, QWORD PTR [144+rbp]                      ;\\Mac\Home\Documents\Studium\6. Semester\Bachelorarbeit\Code\PerformanceTests\Enclave\PerformanceTests_t.c:651.2[spill]
$LN2479:
        mov       r8, rax                                       ;\\Mac\Home\Documents\Studium\6. Semester\Bachelorarbeit\Code\PerformanceTests\Enclave\PerformanceTests_t.c:651.2
$LN2480:
        mov       r9, rbx                                       ;\\Mac\Home\Documents\Studium\6. Semester\Bachelorarbeit\Code\PerformanceTests\Enclave\PerformanceTests_t.c:651.2
$LN2481:
;       enclaveCrypto(uint8_t *, size_t, uint8_t *, size_t)
        call      enclaveCrypto                                 ;\\Mac\Home\Documents\Studium\6. Semester\Bachelorarbeit\Code\PerformanceTests\Enclave\PerformanceTests_t.c:651.2
$LN2482:
                                ; LOE rax rbp rsp r12 r13 r14 r15 rip zmm6 zmm7 zmm8 zmm9 zmm10 zmm11 zmm12 zmm13 zmm14 zmm15
.B14.44::                       ; Preds .B14.27
                                ; Execution count [0.00e+000]
$LN2483:
        mov       QWORD PTR [104+rbp], rax                      ;\\Mac\Home\Documents\Studium\6. Semester\Bachelorarbeit\Code\PerformanceTests\Enclave\PerformanceTests_t.c:651.2
$LN2484:
                                ; LOE rbp rsp r12 r13 r14 r15 rip zmm6 zmm7 zmm8 zmm9 zmm10 zmm11 zmm12 zmm13 zmm14 zmm15
.B14.28::                       ; Preds .B14.44
                                ; Execution count [0.00e+000]
$LN2485:
        mov       rax, QWORD PTR [16+rbp]                       ;\\Mac\Home\Documents\Studium\6. Semester\Bachelorarbeit\Code\PerformanceTests\Enclave\PerformanceTests_t.c:651.2
$LN2486:
        mov       rdx, QWORD PTR [104+rbp]                      ;\\Mac\Home\Documents\Studium\6. Semester\Bachelorarbeit\Code\PerformanceTests\Enclave\PerformanceTests_t.c:651.2
$LN2487:
        mov       QWORD PTR [rax], rdx                          ;\\Mac\Home\Documents\Studium\6. Semester\Bachelorarbeit\Code\PerformanceTests\Enclave\PerformanceTests_t.c:651.2
$LN2488:
                                ; LOE rbp rsp r12 r13 r14 r15 rip zmm6 zmm7 zmm8 zmm9 zmm10 zmm11 zmm12 zmm13 zmm14 zmm15
.B14.29::                       ; Preds .B14.28 .B14.25 .B14.20
                                ; Execution count [0.00e+000]
$LN2489:

;;; err:
;;; 	if (_in_in) free(_in_in);

        mov       rax, QWORD PTR [48+rbp]                       ;\\Mac\Home\Documents\Studium\6. Semester\Bachelorarbeit\Code\PerformanceTests\Enclave\PerformanceTests_t.c:653.2
$LN2490:
        test      rax, rax                                      ;\\Mac\Home\Documents\Studium\6. Semester\Bachelorarbeit\Code\PerformanceTests\Enclave\PerformanceTests_t.c:653.2
$LN2491:
        je        .B14.31       ; Prob 50%                      ;\\Mac\Home\Documents\Studium\6. Semester\Bachelorarbeit\Code\PerformanceTests\Enclave\PerformanceTests_t.c:653.2
$LN2492:
                                ; LOE rbp rsp r12 r13 r14 r15 rip zmm6 zmm7 zmm8 zmm9 zmm10 zmm11 zmm12 zmm13 zmm14 zmm15
.B14.30::                       ; Preds .B14.29
                                ; Execution count [0.00e+000]
$LN2493:
        mov       rax, QWORD PTR [48+rbp]                       ;\\Mac\Home\Documents\Studium\6. Semester\Bachelorarbeit\Code\PerformanceTests\Enclave\PerformanceTests_t.c:653.14
$LN2494:
        mov       rcx, rax                                      ;\\Mac\Home\Documents\Studium\6. Semester\Bachelorarbeit\Code\PerformanceTests\Enclave\PerformanceTests_t.c:653.14
$LN2495:
;       free(void *)
        call      free                                          ;\\Mac\Home\Documents\Studium\6. Semester\Bachelorarbeit\Code\PerformanceTests\Enclave\PerformanceTests_t.c:653.14
$LN2496:
                                ; LOE rbp rsp r12 r13 r14 r15 rip zmm6 zmm7 zmm8 zmm9 zmm10 zmm11 zmm12 zmm13 zmm14 zmm15
.B14.45::                       ; Preds .B14.30
                                ; Execution count [0.00e+000]
$LN2497:
                                ; LOE rbp rsp r12 r13 r14 r15 rip zmm6 zmm7 zmm8 zmm9 zmm10 zmm11 zmm12 zmm13 zmm14 zmm15
.B14.31::                       ; Preds .B14.45 .B14.29
                                ; Execution count [0.00e+000]
$LN2498:

;;; 	if (_in_out) {

        mov       rax, QWORD PTR [80+rbp]                       ;\\Mac\Home\Documents\Studium\6. Semester\Bachelorarbeit\Code\PerformanceTests\Enclave\PerformanceTests_t.c:654.2
$LN2499:
        test      rax, rax                                      ;\\Mac\Home\Documents\Studium\6. Semester\Bachelorarbeit\Code\PerformanceTests\Enclave\PerformanceTests_t.c:654.2
$LN2500:
        je        .B14.34       ; Prob 50%                      ;\\Mac\Home\Documents\Studium\6. Semester\Bachelorarbeit\Code\PerformanceTests\Enclave\PerformanceTests_t.c:654.2
$LN2501:
                                ; LOE rbp rsp r12 r13 r14 r15 rip zmm6 zmm7 zmm8 zmm9 zmm10 zmm11 zmm12 zmm13 zmm14 zmm15
.B14.32::                       ; Preds .B14.31
                                ; Execution count [0.00e+000]
$LN2502:

;;; 		memcpy(_tmp_out, _in_out, _len_out);

        mov       rax, QWORD PTR [56+rbp]                       ;\\Mac\Home\Documents\Studium\6. Semester\Bachelorarbeit\Code\PerformanceTests\Enclave\PerformanceTests_t.c:655.3
$LN2503:
        mov       rdx, QWORD PTR [80+rbp]                       ;\\Mac\Home\Documents\Studium\6. Semester\Bachelorarbeit\Code\PerformanceTests\Enclave\PerformanceTests_t.c:655.3
$LN2504:
        mov       rcx, QWORD PTR [72+rbp]                       ;\\Mac\Home\Documents\Studium\6. Semester\Bachelorarbeit\Code\PerformanceTests\Enclave\PerformanceTests_t.c:655.3
$LN2505:
        mov       rdi, rax                                      ;\\Mac\Home\Documents\Studium\6. Semester\Bachelorarbeit\Code\PerformanceTests\Enclave\PerformanceTests_t.c:655.3
$LN2506:
        mov       rsi, rdx                                      ;\\Mac\Home\Documents\Studium\6. Semester\Bachelorarbeit\Code\PerformanceTests\Enclave\PerformanceTests_t.c:655.3
$LN2507:
        mov       rdx, rdi                                      ;\\Mac\Home\Documents\Studium\6. Semester\Bachelorarbeit\Code\PerformanceTests\Enclave\PerformanceTests_t.c:655.3
$LN2508:
        mov       eax, ecx                                      ;\\Mac\Home\Documents\Studium\6. Semester\Bachelorarbeit\Code\PerformanceTests\Enclave\PerformanceTests_t.c:655.3
$LN2509:
        shr       rcx, 2                                        ;\\Mac\Home\Documents\Studium\6. Semester\Bachelorarbeit\Code\PerformanceTests\Enclave\PerformanceTests_t.c:655.3
$LN2510:
        rep   movsd                                             ;\\Mac\Home\Documents\Studium\6. Semester\Bachelorarbeit\Code\PerformanceTests\Enclave\PerformanceTests_t.c:655.3
$LN2511:
        mov       ecx, eax                                      ;\\Mac\Home\Documents\Studium\6. Semester\Bachelorarbeit\Code\PerformanceTests\Enclave\PerformanceTests_t.c:655.3
$LN2512:
        and       ecx, 3                                        ;\\Mac\Home\Documents\Studium\6. Semester\Bachelorarbeit\Code\PerformanceTests\Enclave\PerformanceTests_t.c:655.3
$LN2513:
        rep   movsb                                             ;\\Mac\Home\Documents\Studium\6. Semester\Bachelorarbeit\Code\PerformanceTests\Enclave\PerformanceTests_t.c:655.3
$LN2514:
        mov       rax, rdx                                      ;\\Mac\Home\Documents\Studium\6. Semester\Bachelorarbeit\Code\PerformanceTests\Enclave\PerformanceTests_t.c:655.3
$LN2515:
                                ; LOE rax rbp rsp r12 r13 r14 r15 rip zmm6 zmm7 zmm8 zmm9 zmm10 zmm11 zmm12 zmm13 zmm14 zmm15
.B14.46::                       ; Preds .B14.32
                                ; Execution count [0.00e+000]
$LN2516:
        mov       QWORD PTR [136+rbp], rax                      ;\\Mac\Home\Documents\Studium\6. Semester\Bachelorarbeit\Code\PerformanceTests\Enclave\PerformanceTests_t.c:655.3
$LN2517:
                                ; LOE rbp rsp r12 r13 r14 r15 rip zmm6 zmm7 zmm8 zmm9 zmm10 zmm11 zmm12 zmm13 zmm14 zmm15
.B14.33::                       ; Preds .B14.46
                                ; Execution count [0.00e+000]
$LN2518:

;;; 		free(_in_out);

        mov       rax, QWORD PTR [80+rbp]                       ;\\Mac\Home\Documents\Studium\6. Semester\Bachelorarbeit\Code\PerformanceTests\Enclave\PerformanceTests_t.c:656.3
$LN2519:
        mov       rcx, rax                                      ;\\Mac\Home\Documents\Studium\6. Semester\Bachelorarbeit\Code\PerformanceTests\Enclave\PerformanceTests_t.c:656.3
$LN2520:
;       free(void *)
        call      free                                          ;\\Mac\Home\Documents\Studium\6. Semester\Bachelorarbeit\Code\PerformanceTests\Enclave\PerformanceTests_t.c:656.3
$LN2521:
                                ; LOE rbp rsp r12 r13 r14 r15 rip zmm6 zmm7 zmm8 zmm9 zmm10 zmm11 zmm12 zmm13 zmm14 zmm15
.B14.47::                       ; Preds .B14.33
                                ; Execution count [0.00e+000]
$LN2522:
                                ; LOE rbp rsp r12 r13 r14 r15 rip zmm6 zmm7 zmm8 zmm9 zmm10 zmm11 zmm12 zmm13 zmm14 zmm15
.B14.34::                       ; Preds .B14.47 .B14.31
                                ; Execution count [0.00e+000]
$LN2523:

;;; 	}
;;; 
;;; 	return status;

        mov       eax, DWORD PTR [rbp]                          ;\\Mac\Home\Documents\Studium\6. Semester\Bachelorarbeit\Code\PerformanceTests\Enclave\PerformanceTests_t.c:659.2
$LN2524:
        mov       rbx, QWORD PTR [152+rbp]                      ;\\Mac\Home\Documents\Studium\6. Semester\Bachelorarbeit\Code\PerformanceTests\Enclave\PerformanceTests_t.c:659.2[spill]
$LN2525:
        mov       rsi, QWORD PTR [160+rbp]                      ;\\Mac\Home\Documents\Studium\6. Semester\Bachelorarbeit\Code\PerformanceTests\Enclave\PerformanceTests_t.c:659.2[spill]
$LN2526:
        mov       rdi, QWORD PTR [168+rbp]                      ;\\Mac\Home\Documents\Studium\6. Semester\Bachelorarbeit\Code\PerformanceTests\Enclave\PerformanceTests_t.c:659.2[spill]
$LN2527:
        lea       rsp, QWORD PTR [176+rbp]                      ;\\Mac\Home\Documents\Studium\6. Semester\Bachelorarbeit\Code\PerformanceTests\Enclave\PerformanceTests_t.c:659.2
$LN2528:
        pop       rbp                                           ;\\Mac\Home\Documents\Studium\6. Semester\Bachelorarbeit\Code\PerformanceTests\Enclave\PerformanceTests_t.c:659.2
$LN2529:
        ret                                                     ;\\Mac\Home\Documents\Studium\6. Semester\Bachelorarbeit\Code\PerformanceTests\Enclave\PerformanceTests_t.c:659.2
$LN2530:
                                ; LOE
.B14.35::
$LN2531:
; mark_end;
sgx_enclaveCrypto ENDP
$LNsgx_enclaveCrypto$2532:
_TEXT	ENDS
.xdata	SEGMENT  DWORD   READ  ''
	ALIGN 004H
.unwind.sgx_enclaveCrypto.B1_B34	DD	621421057
	DD	1520674
	DD	1598491
	DD	1668116
	DD	17302285
	DD	1342242842
.xdata	ENDS
.pdata	SEGMENT  DWORD   READ  ''
	ALIGN 004H
.pdata.sgx_enclaveCrypto.B1_B34	DD	imagerel .B14.1
	DD	imagerel .B14.35
	DD	imagerel .unwind.sgx_enclaveCrypto.B1_B34
.pdata	ENDS
_DATA	SEGMENT      'DATA'
_DATA	ENDS
; -- End  sgx_enclaveCrypto
_TEXT	SEGMENT      'CODE'
_2__routine_start_sgx_enclaveCompleteProcess_14:
; -- Begin  sgx_enclaveCompleteProcess
_TEXT	ENDS
_TEXT	SEGMENT      'CODE'
; mark_begin;

; --- sgx_enclaveCompleteProcess(void *)
sgx_enclaveCompleteProcess	PROC PRIVATE
; parameter 1(pms): rcx
.B15.1::                        ; Preds .B15.0
                                ; Execution count [0.00e+000]

;;; {

L118::
                                                         ;\\Mac\Home\Documents\Studium\6. Semester\Bachelorarbeit\Code\PerformanceTests\Enclave\PerformanceTests_t.c:663.1
$LN2533:
        push      rbp                                           ;\\Mac\Home\Documents\Studium\6. Semester\Bachelorarbeit\Code\PerformanceTests\Enclave\PerformanceTests_t.c:663.1
$LN2534:
        sub       rsp, 80                                       ;\\Mac\Home\Documents\Studium\6. Semester\Bachelorarbeit\Code\PerformanceTests\Enclave\PerformanceTests_t.c:663.1
$LN2535:
        lea       rbp, QWORD PTR [32+rsp]                       ;\\Mac\Home\Documents\Studium\6. Semester\Bachelorarbeit\Code\PerformanceTests\Enclave\PerformanceTests_t.c:663.1
$LN2536:
        mov       QWORD PTR [64+rbp], rcx                       ;\\Mac\Home\Documents\Studium\6. Semester\Bachelorarbeit\Code\PerformanceTests\Enclave\PerformanceTests_t.c:663.1
$LN2537:

;;; 	ms_enclaveCompleteProcess_t* ms = SGX_CAST(ms_enclaveCompleteProcess_t*, pms);

        mov       rax, QWORD PTR [64+rbp]                       ;\\Mac\Home\Documents\Studium\6. Semester\Bachelorarbeit\Code\PerformanceTests\Enclave\PerformanceTests_t.c:664.34
$LN2538:
        mov       QWORD PTR [8+rbp], rax                        ;\\Mac\Home\Documents\Studium\6. Semester\Bachelorarbeit\Code\PerformanceTests\Enclave\PerformanceTests_t.c:664.34
$LN2539:

;;; 	sgx_status_t status = SGX_SUCCESS;

        mov       DWORD PTR [rbp], 0                            ;\\Mac\Home\Documents\Studium\6. Semester\Bachelorarbeit\Code\PerformanceTests\Enclave\PerformanceTests_t.c:665.22
$LN2540:

;;; 	uint8_t* _tmp_in = ms->ms_in;

        mov       rax, QWORD PTR [8+rbp]                        ;\\Mac\Home\Documents\Studium\6. Semester\Bachelorarbeit\Code\PerformanceTests\Enclave\PerformanceTests_t.c:666.19
$LN2541:
        mov       rax, QWORD PTR [8+rax]                        ;\\Mac\Home\Documents\Studium\6. Semester\Bachelorarbeit\Code\PerformanceTests\Enclave\PerformanceTests_t.c:666.19
$LN2542:
        mov       QWORD PTR [16+rbp], rax                       ;\\Mac\Home\Documents\Studium\6. Semester\Bachelorarbeit\Code\PerformanceTests\Enclave\PerformanceTests_t.c:666.19
$LN2543:

;;; 	uint8_t* _tmp_out = ms->ms_out;

        mov       rax, QWORD PTR [8+rbp]                        ;\\Mac\Home\Documents\Studium\6. Semester\Bachelorarbeit\Code\PerformanceTests\Enclave\PerformanceTests_t.c:667.20
$LN2544:
        mov       rax, QWORD PTR [24+rax]                       ;\\Mac\Home\Documents\Studium\6. Semester\Bachelorarbeit\Code\PerformanceTests\Enclave\PerformanceTests_t.c:667.20
$LN2545:
        mov       QWORD PTR [24+rbp], rax                       ;\\Mac\Home\Documents\Studium\6. Semester\Bachelorarbeit\Code\PerformanceTests\Enclave\PerformanceTests_t.c:667.20
$LN2546:
                                ; LOE rbx rbp rsi rdi rsp r12 r13 r14 r15 rip zmm6 zmm7 zmm8 zmm9 zmm10 zmm11 zmm12 zmm13 zmm14 zmm15
.B15.2::                        ; Preds .B15.5 .B15.1
                                ; Execution count [0.00e+000]
$LN2547:

;;; 
;;; 	CHECK_REF_POINTER(pms, sizeof(ms_enclaveCompleteProcess_t));

        mov       rax, QWORD PTR [64+rbp]                       ;\\Mac\Home\Documents\Studium\6. Semester\Bachelorarbeit\Code\PerformanceTests\Enclave\PerformanceTests_t.c:669.2
$LN2548:
        test      rax, rax                                      ;\\Mac\Home\Documents\Studium\6. Semester\Bachelorarbeit\Code\PerformanceTests\Enclave\PerformanceTests_t.c:669.2
$LN2549:
        je        .B15.6        ; Prob 50%                      ;\\Mac\Home\Documents\Studium\6. Semester\Bachelorarbeit\Code\PerformanceTests\Enclave\PerformanceTests_t.c:669.2
$LN2550:
                                ; LOE rbx rbp rsi rdi rsp r12 r13 r14 r15 rip zmm6 zmm7 zmm8 zmm9 zmm10 zmm11 zmm12 zmm13 zmm14 zmm15
.B15.3::                        ; Preds .B15.2
                                ; Execution count [0.00e+000]
$LN2551:
        mov       rax, QWORD PTR [64+rbp]                       ;\\Mac\Home\Documents\Studium\6. Semester\Bachelorarbeit\Code\PerformanceTests\Enclave\PerformanceTests_t.c:669.2
$LN2552:
        mov       edx, 32                                       ;\\Mac\Home\Documents\Studium\6. Semester\Bachelorarbeit\Code\PerformanceTests\Enclave\PerformanceTests_t.c:669.2
$LN2553:
        mov       rcx, rax                                      ;\\Mac\Home\Documents\Studium\6. Semester\Bachelorarbeit\Code\PerformanceTests\Enclave\PerformanceTests_t.c:669.2
$LN2554:
;       sgx_is_outside_enclave(const void *, size_t)
        call      sgx_is_outside_enclave                        ;\\Mac\Home\Documents\Studium\6. Semester\Bachelorarbeit\Code\PerformanceTests\Enclave\PerformanceTests_t.c:669.2
$LN2555:
                                ; LOE rbx rbp rsi rdi rsp r12 r13 r14 r15 rip eax zmm6 zmm7 zmm8 zmm9 zmm10 zmm11 zmm12 zmm13 zmm14 zmm15
.B15.11::                       ; Preds .B15.3
                                ; Execution count [0.00e+000]
$LN2556:
        mov       DWORD PTR [4+rbp], eax                        ;\\Mac\Home\Documents\Studium\6. Semester\Bachelorarbeit\Code\PerformanceTests\Enclave\PerformanceTests_t.c:669.2
$LN2557:
                                ; LOE rbx rbp rsi rdi rsp r12 r13 r14 r15 rip zmm6 zmm7 zmm8 zmm9 zmm10 zmm11 zmm12 zmm13 zmm14 zmm15
.B15.4::                        ; Preds .B15.11
                                ; Execution count [0.00e+000]
$LN2558:
        mov       eax, DWORD PTR [4+rbp]                        ;\\Mac\Home\Documents\Studium\6. Semester\Bachelorarbeit\Code\PerformanceTests\Enclave\PerformanceTests_t.c:669.2
$LN2559:
        test      eax, eax                                      ;\\Mac\Home\Documents\Studium\6. Semester\Bachelorarbeit\Code\PerformanceTests\Enclave\PerformanceTests_t.c:669.2
$LN2560:
        je        .B15.6        ; Prob 50%                      ;\\Mac\Home\Documents\Studium\6. Semester\Bachelorarbeit\Code\PerformanceTests\Enclave\PerformanceTests_t.c:669.2
$LN2561:
                                ; LOE rbx rbp rsi rdi rsp r12 r13 r14 r15 rip zmm6 zmm7 zmm8 zmm9 zmm10 zmm11 zmm12 zmm13 zmm14 zmm15
.B15.5::                        ; Preds .B15.4
                                ; Execution count [0.00e+000]
$LN2562:
        mov       eax, 0                                        ;\\Mac\Home\Documents\Studium\6. Semester\Bachelorarbeit\Code\PerformanceTests\Enclave\PerformanceTests_t.c:669.2
$LN2563:
        test      eax, eax                                      ;\\Mac\Home\Documents\Studium\6. Semester\Bachelorarbeit\Code\PerformanceTests\Enclave\PerformanceTests_t.c:669.2
$LN2564:
        jne       .B15.2        ; Prob 0%                       ;\\Mac\Home\Documents\Studium\6. Semester\Bachelorarbeit\Code\PerformanceTests\Enclave\PerformanceTests_t.c:669.2
$LN2565:
        jmp       .B15.7        ; Prob 100%                     ;\\Mac\Home\Documents\Studium\6. Semester\Bachelorarbeit\Code\PerformanceTests\Enclave\PerformanceTests_t.c:669.2
$LN2566:
                                ; LOE rbx rbp rsi rdi rsp r12 r13 r14 r15 rip zmm6 zmm7 zmm8 zmm9 zmm10 zmm11 zmm12 zmm13 zmm14 zmm15
.B15.6::                        ; Preds .B15.2 .B15.4
                                ; Execution count [0.00e+000]
$LN2567:
        mov       eax, 2                                        ;\\Mac\Home\Documents\Studium\6. Semester\Bachelorarbeit\Code\PerformanceTests\Enclave\PerformanceTests_t.c:669.2
$LN2568:
        lea       rsp, QWORD PTR [48+rbp]                       ;\\Mac\Home\Documents\Studium\6. Semester\Bachelorarbeit\Code\PerformanceTests\Enclave\PerformanceTests_t.c:669.2
$LN2569:
        pop       rbp                                           ;\\Mac\Home\Documents\Studium\6. Semester\Bachelorarbeit\Code\PerformanceTests\Enclave\PerformanceTests_t.c:669.2
$LN2570:
        ret                                                     ;\\Mac\Home\Documents\Studium\6. Semester\Bachelorarbeit\Code\PerformanceTests\Enclave\PerformanceTests_t.c:669.2
$LN2571:
                                ; LOE
.B15.7::                        ; Preds .B15.5
                                ; Execution count [0.00e+000]
$LN2572:

;;; 
;;; 	ms->ms_retval = enclaveCompleteProcess(_tmp_in, ms->ms_length, _tmp_out);

        mov       rax, QWORD PTR [16+rbp]                       ;\\Mac\Home\Documents\Studium\6. Semester\Bachelorarbeit\Code\PerformanceTests\Enclave\PerformanceTests_t.c:671.2
$LN2573:
        mov       rdx, QWORD PTR [8+rbp]                        ;\\Mac\Home\Documents\Studium\6. Semester\Bachelorarbeit\Code\PerformanceTests\Enclave\PerformanceTests_t.c:671.2
$LN2574:
        mov       rdx, QWORD PTR [16+rdx]                       ;\\Mac\Home\Documents\Studium\6. Semester\Bachelorarbeit\Code\PerformanceTests\Enclave\PerformanceTests_t.c:671.2
$LN2575:
        mov       rcx, QWORD PTR [24+rbp]                       ;\\Mac\Home\Documents\Studium\6. Semester\Bachelorarbeit\Code\PerformanceTests\Enclave\PerformanceTests_t.c:671.2
$LN2576:
        mov       QWORD PTR [40+rbp], rcx                       ;\\Mac\Home\Documents\Studium\6. Semester\Bachelorarbeit\Code\PerformanceTests\Enclave\PerformanceTests_t.c:671.2[spill]
$LN2577:
        mov       rcx, rax                                      ;\\Mac\Home\Documents\Studium\6. Semester\Bachelorarbeit\Code\PerformanceTests\Enclave\PerformanceTests_t.c:671.2
$LN2578:
        mov       rax, QWORD PTR [40+rbp]                       ;\\Mac\Home\Documents\Studium\6. Semester\Bachelorarbeit\Code\PerformanceTests\Enclave\PerformanceTests_t.c:671.2[spill]
$LN2579:
        mov       r8, rax                                       ;\\Mac\Home\Documents\Studium\6. Semester\Bachelorarbeit\Code\PerformanceTests\Enclave\PerformanceTests_t.c:671.2
$LN2580:
;       enclaveCompleteProcess(uint8_t *, size_t, uint8_t *)
        call      enclaveCompleteProcess                        ;\\Mac\Home\Documents\Studium\6. Semester\Bachelorarbeit\Code\PerformanceTests\Enclave\PerformanceTests_t.c:671.2
$LN2581:
                                ; LOE rax rbx rbp rsi rdi rsp r12 r13 r14 r15 rip zmm6 zmm7 zmm8 zmm9 zmm10 zmm11 zmm12 zmm13 zmm14 zmm15
.B15.12::                       ; Preds .B15.7
                                ; Execution count [0.00e+000]
$LN2582:
        mov       QWORD PTR [32+rbp], rax                       ;\\Mac\Home\Documents\Studium\6. Semester\Bachelorarbeit\Code\PerformanceTests\Enclave\PerformanceTests_t.c:671.2
$LN2583:
                                ; LOE rbx rbp rsi rdi rsp r12 r13 r14 r15 rip zmm6 zmm7 zmm8 zmm9 zmm10 zmm11 zmm12 zmm13 zmm14 zmm15
.B15.8::                        ; Preds .B15.12
                                ; Execution count [0.00e+000]
$LN2584:
        mov       rax, QWORD PTR [8+rbp]                        ;\\Mac\Home\Documents\Studium\6. Semester\Bachelorarbeit\Code\PerformanceTests\Enclave\PerformanceTests_t.c:671.2
$LN2585:
        mov       rdx, QWORD PTR [32+rbp]                       ;\\Mac\Home\Documents\Studium\6. Semester\Bachelorarbeit\Code\PerformanceTests\Enclave\PerformanceTests_t.c:671.2
$LN2586:
        mov       QWORD PTR [rax], rdx                          ;\\Mac\Home\Documents\Studium\6. Semester\Bachelorarbeit\Code\PerformanceTests\Enclave\PerformanceTests_t.c:671.2
$LN2587:

;;; 
;;; 
;;; 	return status;

        mov       eax, DWORD PTR [rbp]                          ;\\Mac\Home\Documents\Studium\6. Semester\Bachelorarbeit\Code\PerformanceTests\Enclave\PerformanceTests_t.c:674.2
$LN2588:
        lea       rsp, QWORD PTR [48+rbp]                       ;\\Mac\Home\Documents\Studium\6. Semester\Bachelorarbeit\Code\PerformanceTests\Enclave\PerformanceTests_t.c:674.2
$LN2589:
        pop       rbp                                           ;\\Mac\Home\Documents\Studium\6. Semester\Bachelorarbeit\Code\PerformanceTests\Enclave\PerformanceTests_t.c:674.2
$LN2590:
        ret                                                     ;\\Mac\Home\Documents\Studium\6. Semester\Bachelorarbeit\Code\PerformanceTests\Enclave\PerformanceTests_t.c:674.2
$LN2591:
                                ; LOE
.B15.9::
$LN2592:
; mark_end;
sgx_enclaveCompleteProcess ENDP
$LNsgx_enclaveCompleteProcess$2593:
_TEXT	ENDS
.xdata	SEGMENT  DWORD   READ  ''
	ALIGN 004H
.unwind.sgx_enclaveCompleteProcess.B1_B8	DD	620956161
	DD	2449801994
	DD	20481
.xdata	ENDS
.pdata	SEGMENT  DWORD   READ  ''
	ALIGN 004H
.pdata.sgx_enclaveCompleteProcess.B1_B8	DD	imagerel .B15.1
	DD	imagerel .B15.9
	DD	imagerel .unwind.sgx_enclaveCompleteProcess.B1_B8
.pdata	ENDS
_DATA	SEGMENT      'DATA'
_DATA	ENDS
; -- End  sgx_enclaveCompleteProcess
_TEXT	SEGMENT      'CODE'
_2__routine_start_sgx_encryptBytes_15:
; -- Begin  sgx_encryptBytes
_TEXT	ENDS
_TEXT	SEGMENT      'CODE'
; mark_begin;

; --- sgx_encryptBytes(void *)
sgx_encryptBytes	PROC PRIVATE
; parameter 1(pms): rcx
.B16.1::                        ; Preds .B16.0
                                ; Execution count [0.00e+000]

;;; {

L125::
                                                         ;\\Mac\Home\Documents\Studium\6. Semester\Bachelorarbeit\Code\PerformanceTests\Enclave\PerformanceTests_t.c:678.1
$LN2594:
        push      rbp                                           ;\\Mac\Home\Documents\Studium\6. Semester\Bachelorarbeit\Code\PerformanceTests\Enclave\PerformanceTests_t.c:678.1
$LN2595:
        sub       rsp, 256                                      ;\\Mac\Home\Documents\Studium\6. Semester\Bachelorarbeit\Code\PerformanceTests\Enclave\PerformanceTests_t.c:678.1
$LN2596:
        lea       rbp, QWORD PTR [48+rsp]                       ;\\Mac\Home\Documents\Studium\6. Semester\Bachelorarbeit\Code\PerformanceTests\Enclave\PerformanceTests_t.c:678.1
$LN2597:
        mov       QWORD PTR [200+rbp], rdi                      ;\\Mac\Home\Documents\Studium\6. Semester\Bachelorarbeit\Code\PerformanceTests\Enclave\PerformanceTests_t.c:678.1[spill]
$LN2598:
        mov       QWORD PTR [192+rbp], rsi                      ;\\Mac\Home\Documents\Studium\6. Semester\Bachelorarbeit\Code\PerformanceTests\Enclave\PerformanceTests_t.c:678.1[spill]
$LN2599:
        mov       QWORD PTR [184+rbp], rbx                      ;\\Mac\Home\Documents\Studium\6. Semester\Bachelorarbeit\Code\PerformanceTests\Enclave\PerformanceTests_t.c:678.1[spill]
$LN2600:
        mov       QWORD PTR [224+rbp], rcx                      ;\\Mac\Home\Documents\Studium\6. Semester\Bachelorarbeit\Code\PerformanceTests\Enclave\PerformanceTests_t.c:678.1
$LN2601:

;;; 	ms_encryptBytes_t* ms = SGX_CAST(ms_encryptBytes_t*, pms);

        mov       rax, QWORD PTR [224+rbp]                      ;\\Mac\Home\Documents\Studium\6. Semester\Bachelorarbeit\Code\PerformanceTests\Enclave\PerformanceTests_t.c:679.24
$LN2602:
        mov       QWORD PTR [24+rbp], rax                       ;\\Mac\Home\Documents\Studium\6. Semester\Bachelorarbeit\Code\PerformanceTests\Enclave\PerformanceTests_t.c:679.24
$LN2603:

;;; 	sgx_status_t status = SGX_SUCCESS;

        mov       DWORD PTR [rbp], 0                            ;\\Mac\Home\Documents\Studium\6. Semester\Bachelorarbeit\Code\PerformanceTests\Enclave\PerformanceTests_t.c:680.22
$LN2604:

;;; 	uint8_t* _tmp_input = ms->ms_input;

        mov       rax, QWORD PTR [24+rbp]                       ;\\Mac\Home\Documents\Studium\6. Semester\Bachelorarbeit\Code\PerformanceTests\Enclave\PerformanceTests_t.c:681.22
$LN2605:
        mov       rax, QWORD PTR [8+rax]                        ;\\Mac\Home\Documents\Studium\6. Semester\Bachelorarbeit\Code\PerformanceTests\Enclave\PerformanceTests_t.c:681.22
$LN2606:
        mov       QWORD PTR [32+rbp], rax                       ;\\Mac\Home\Documents\Studium\6. Semester\Bachelorarbeit\Code\PerformanceTests\Enclave\PerformanceTests_t.c:681.22
$LN2607:

;;; 	size_t _tmp_length = ms->ms_length;

        mov       rax, QWORD PTR [24+rbp]                       ;\\Mac\Home\Documents\Studium\6. Semester\Bachelorarbeit\Code\PerformanceTests\Enclave\PerformanceTests_t.c:682.21
$LN2608:
        mov       rax, QWORD PTR [16+rax]                       ;\\Mac\Home\Documents\Studium\6. Semester\Bachelorarbeit\Code\PerformanceTests\Enclave\PerformanceTests_t.c:682.21
$LN2609:
        mov       QWORD PTR [40+rbp], rax                       ;\\Mac\Home\Documents\Studium\6. Semester\Bachelorarbeit\Code\PerformanceTests\Enclave\PerformanceTests_t.c:682.21
$LN2610:

;;; 	size_t _len_input = _tmp_length;

        mov       rax, QWORD PTR [40+rbp]                       ;\\Mac\Home\Documents\Studium\6. Semester\Bachelorarbeit\Code\PerformanceTests\Enclave\PerformanceTests_t.c:683.20
$LN2611:
        mov       QWORD PTR [48+rbp], rax                       ;\\Mac\Home\Documents\Studium\6. Semester\Bachelorarbeit\Code\PerformanceTests\Enclave\PerformanceTests_t.c:683.20
$LN2612:

;;; 	uint8_t* _in_input = NULL;

        mov       QWORD PTR [56+rbp], 0                         ;\\Mac\Home\Documents\Studium\6. Semester\Bachelorarbeit\Code\PerformanceTests\Enclave\PerformanceTests_t.c:684.21
$LN2613:

;;; 	uint8_t* _tmp_output = ms->ms_output;

        mov       rax, QWORD PTR [24+rbp]                       ;\\Mac\Home\Documents\Studium\6. Semester\Bachelorarbeit\Code\PerformanceTests\Enclave\PerformanceTests_t.c:685.23
$LN2614:
        mov       rax, QWORD PTR [24+rax]                       ;\\Mac\Home\Documents\Studium\6. Semester\Bachelorarbeit\Code\PerformanceTests\Enclave\PerformanceTests_t.c:685.23
$LN2615:
        mov       QWORD PTR [64+rbp], rax                       ;\\Mac\Home\Documents\Studium\6. Semester\Bachelorarbeit\Code\PerformanceTests\Enclave\PerformanceTests_t.c:685.23
$LN2616:

;;; 	uint8_t* _tmp_key = ms->ms_key;

        mov       rax, QWORD PTR [24+rbp]                       ;\\Mac\Home\Documents\Studium\6. Semester\Bachelorarbeit\Code\PerformanceTests\Enclave\PerformanceTests_t.c:686.20
$LN2617:
        mov       rax, QWORD PTR [32+rax]                       ;\\Mac\Home\Documents\Studium\6. Semester\Bachelorarbeit\Code\PerformanceTests\Enclave\PerformanceTests_t.c:686.20
$LN2618:
        mov       QWORD PTR [72+rbp], rax                       ;\\Mac\Home\Documents\Studium\6. Semester\Bachelorarbeit\Code\PerformanceTests\Enclave\PerformanceTests_t.c:686.20
$LN2619:

;;; 	size_t _tmp_keyLength = ms->ms_keyLength;

        mov       rax, QWORD PTR [24+rbp]                       ;\\Mac\Home\Documents\Studium\6. Semester\Bachelorarbeit\Code\PerformanceTests\Enclave\PerformanceTests_t.c:687.24
$LN2620:
        mov       rax, QWORD PTR [40+rax]                       ;\\Mac\Home\Documents\Studium\6. Semester\Bachelorarbeit\Code\PerformanceTests\Enclave\PerformanceTests_t.c:687.24
$LN2621:
        mov       QWORD PTR [80+rbp], rax                       ;\\Mac\Home\Documents\Studium\6. Semester\Bachelorarbeit\Code\PerformanceTests\Enclave\PerformanceTests_t.c:687.24
$LN2622:

;;; 	size_t _len_key = _tmp_keyLength;

        mov       rax, QWORD PTR [80+rbp]                       ;\\Mac\Home\Documents\Studium\6. Semester\Bachelorarbeit\Code\PerformanceTests\Enclave\PerformanceTests_t.c:688.18
$LN2623:
        mov       QWORD PTR [88+rbp], rax                       ;\\Mac\Home\Documents\Studium\6. Semester\Bachelorarbeit\Code\PerformanceTests\Enclave\PerformanceTests_t.c:688.18
$LN2624:

;;; 	uint8_t* _in_key = NULL;

        mov       QWORD PTR [96+rbp], 0                         ;\\Mac\Home\Documents\Studium\6. Semester\Bachelorarbeit\Code\PerformanceTests\Enclave\PerformanceTests_t.c:689.19
$LN2625:

;;; 	uint8_t* _tmp_iv = ms->ms_iv;

        mov       rax, QWORD PTR [24+rbp]                       ;\\Mac\Home\Documents\Studium\6. Semester\Bachelorarbeit\Code\PerformanceTests\Enclave\PerformanceTests_t.c:690.19
$LN2626:
        mov       rax, QWORD PTR [48+rax]                       ;\\Mac\Home\Documents\Studium\6. Semester\Bachelorarbeit\Code\PerformanceTests\Enclave\PerformanceTests_t.c:690.19
$LN2627:
        mov       QWORD PTR [104+rbp], rax                      ;\\Mac\Home\Documents\Studium\6. Semester\Bachelorarbeit\Code\PerformanceTests\Enclave\PerformanceTests_t.c:690.19
$LN2628:

;;; 	size_t _len_iv = 16;

        mov       QWORD PTR [112+rbp], 16                       ;\\Mac\Home\Documents\Studium\6. Semester\Bachelorarbeit\Code\PerformanceTests\Enclave\PerformanceTests_t.c:691.17
$LN2629:

;;; 	uint8_t* _in_iv = NULL;

        mov       QWORD PTR [120+rbp], 0                        ;\\Mac\Home\Documents\Studium\6. Semester\Bachelorarbeit\Code\PerformanceTests\Enclave\PerformanceTests_t.c:692.18
$LN2630:
                                ; LOE rbp rsp r12 r13 r14 r15 rip zmm6 zmm7 zmm8 zmm9 zmm10 zmm11 zmm12 zmm13 zmm14 zmm15
.B16.2::                        ; Preds .B16.5 .B16.1
                                ; Execution count [0.00e+000]
$LN2631:

;;; 
;;; 	CHECK_REF_POINTER(pms, sizeof(ms_encryptBytes_t));

        mov       rax, QWORD PTR [224+rbp]                      ;\\Mac\Home\Documents\Studium\6. Semester\Bachelorarbeit\Code\PerformanceTests\Enclave\PerformanceTests_t.c:694.2
$LN2632:
        test      rax, rax                                      ;\\Mac\Home\Documents\Studium\6. Semester\Bachelorarbeit\Code\PerformanceTests\Enclave\PerformanceTests_t.c:694.2
$LN2633:
        je        .B16.6        ; Prob 50%                      ;\\Mac\Home\Documents\Studium\6. Semester\Bachelorarbeit\Code\PerformanceTests\Enclave\PerformanceTests_t.c:694.2
$LN2634:
                                ; LOE rbp rsp r12 r13 r14 r15 rip zmm6 zmm7 zmm8 zmm9 zmm10 zmm11 zmm12 zmm13 zmm14 zmm15
.B16.3::                        ; Preds .B16.2
                                ; Execution count [0.00e+000]
$LN2635:
        mov       rax, QWORD PTR [224+rbp]                      ;\\Mac\Home\Documents\Studium\6. Semester\Bachelorarbeit\Code\PerformanceTests\Enclave\PerformanceTests_t.c:694.2
$LN2636:
        mov       edx, 56                                       ;\\Mac\Home\Documents\Studium\6. Semester\Bachelorarbeit\Code\PerformanceTests\Enclave\PerformanceTests_t.c:694.2
$LN2637:
        mov       rcx, rax                                      ;\\Mac\Home\Documents\Studium\6. Semester\Bachelorarbeit\Code\PerformanceTests\Enclave\PerformanceTests_t.c:694.2
$LN2638:
;       sgx_is_outside_enclave(const void *, size_t)
        call      sgx_is_outside_enclave                        ;\\Mac\Home\Documents\Studium\6. Semester\Bachelorarbeit\Code\PerformanceTests\Enclave\PerformanceTests_t.c:694.2
$LN2639:
                                ; LOE rbp rsp r12 r13 r14 r15 rip eax zmm6 zmm7 zmm8 zmm9 zmm10 zmm11 zmm12 zmm13 zmm14 zmm15
.B16.48::                       ; Preds .B16.3
                                ; Execution count [0.00e+000]
$LN2640:
        mov       DWORD PTR [4+rbp], eax                        ;\\Mac\Home\Documents\Studium\6. Semester\Bachelorarbeit\Code\PerformanceTests\Enclave\PerformanceTests_t.c:694.2
$LN2641:
                                ; LOE rbp rsp r12 r13 r14 r15 rip zmm6 zmm7 zmm8 zmm9 zmm10 zmm11 zmm12 zmm13 zmm14 zmm15
.B16.4::                        ; Preds .B16.48
                                ; Execution count [0.00e+000]
$LN2642:
        mov       eax, DWORD PTR [4+rbp]                        ;\\Mac\Home\Documents\Studium\6. Semester\Bachelorarbeit\Code\PerformanceTests\Enclave\PerformanceTests_t.c:694.2
$LN2643:
        test      eax, eax                                      ;\\Mac\Home\Documents\Studium\6. Semester\Bachelorarbeit\Code\PerformanceTests\Enclave\PerformanceTests_t.c:694.2
$LN2644:
        je        .B16.6        ; Prob 50%                      ;\\Mac\Home\Documents\Studium\6. Semester\Bachelorarbeit\Code\PerformanceTests\Enclave\PerformanceTests_t.c:694.2
$LN2645:
                                ; LOE rbp rsp r12 r13 r14 r15 rip zmm6 zmm7 zmm8 zmm9 zmm10 zmm11 zmm12 zmm13 zmm14 zmm15
.B16.5::                        ; Preds .B16.4
                                ; Execution count [0.00e+000]
$LN2646:
        mov       eax, 0                                        ;\\Mac\Home\Documents\Studium\6. Semester\Bachelorarbeit\Code\PerformanceTests\Enclave\PerformanceTests_t.c:694.2
$LN2647:
        test      eax, eax                                      ;\\Mac\Home\Documents\Studium\6. Semester\Bachelorarbeit\Code\PerformanceTests\Enclave\PerformanceTests_t.c:694.2
$LN2648:
        jne       .B16.2        ; Prob 0%                       ;\\Mac\Home\Documents\Studium\6. Semester\Bachelorarbeit\Code\PerformanceTests\Enclave\PerformanceTests_t.c:694.2
$LN2649:
        jmp       .B16.7        ; Prob 100%                     ;\\Mac\Home\Documents\Studium\6. Semester\Bachelorarbeit\Code\PerformanceTests\Enclave\PerformanceTests_t.c:694.2
$LN2650:
                                ; LOE rbp rsp r12 r13 r14 r15 rip zmm6 zmm7 zmm8 zmm9 zmm10 zmm11 zmm12 zmm13 zmm14 zmm15
.B16.6::                        ; Preds .B16.2 .B16.4
                                ; Execution count [0.00e+000]
$LN2651:
        mov       eax, 2                                        ;\\Mac\Home\Documents\Studium\6. Semester\Bachelorarbeit\Code\PerformanceTests\Enclave\PerformanceTests_t.c:694.2
$LN2652:
        mov       rbx, QWORD PTR [184+rbp]                      ;\\Mac\Home\Documents\Studium\6. Semester\Bachelorarbeit\Code\PerformanceTests\Enclave\PerformanceTests_t.c:694.2[spill]
$LN2653:
        mov       rsi, QWORD PTR [192+rbp]                      ;\\Mac\Home\Documents\Studium\6. Semester\Bachelorarbeit\Code\PerformanceTests\Enclave\PerformanceTests_t.c:694.2[spill]
$LN2654:
        mov       rdi, QWORD PTR [200+rbp]                      ;\\Mac\Home\Documents\Studium\6. Semester\Bachelorarbeit\Code\PerformanceTests\Enclave\PerformanceTests_t.c:694.2[spill]
$LN2655:
        lea       rsp, QWORD PTR [208+rbp]                      ;\\Mac\Home\Documents\Studium\6. Semester\Bachelorarbeit\Code\PerformanceTests\Enclave\PerformanceTests_t.c:694.2
$LN2656:
        pop       rbp                                           ;\\Mac\Home\Documents\Studium\6. Semester\Bachelorarbeit\Code\PerformanceTests\Enclave\PerformanceTests_t.c:694.2
$LN2657:
        ret                                                     ;\\Mac\Home\Documents\Studium\6. Semester\Bachelorarbeit\Code\PerformanceTests\Enclave\PerformanceTests_t.c:694.2
$LN2658:
                                ; LOE
.B16.7::                        ; Preds .B16.10 .B16.5
                                ; Execution count [0.00e+000]
$LN2659:

;;; 	CHECK_UNIQUE_POINTER(_tmp_input, _len_input);

        mov       rax, QWORD PTR [32+rbp]                       ;\\Mac\Home\Documents\Studium\6. Semester\Bachelorarbeit\Code\PerformanceTests\Enclave\PerformanceTests_t.c:695.2
$LN2660:
        test      rax, rax                                      ;\\Mac\Home\Documents\Studium\6. Semester\Bachelorarbeit\Code\PerformanceTests\Enclave\PerformanceTests_t.c:695.2
$LN2661:
        je        .B16.10       ; Prob 50%                      ;\\Mac\Home\Documents\Studium\6. Semester\Bachelorarbeit\Code\PerformanceTests\Enclave\PerformanceTests_t.c:695.2
$LN2662:
                                ; LOE rbp rsp r12 r13 r14 r15 rip zmm6 zmm7 zmm8 zmm9 zmm10 zmm11 zmm12 zmm13 zmm14 zmm15
.B16.8::                        ; Preds .B16.7
                                ; Execution count [0.00e+000]
$LN2663:
        mov       rax, QWORD PTR [32+rbp]                       ;\\Mac\Home\Documents\Studium\6. Semester\Bachelorarbeit\Code\PerformanceTests\Enclave\PerformanceTests_t.c:695.2
$LN2664:
        mov       rdx, QWORD PTR [48+rbp]                       ;\\Mac\Home\Documents\Studium\6. Semester\Bachelorarbeit\Code\PerformanceTests\Enclave\PerformanceTests_t.c:695.2
$LN2665:
        mov       rcx, rax                                      ;\\Mac\Home\Documents\Studium\6. Semester\Bachelorarbeit\Code\PerformanceTests\Enclave\PerformanceTests_t.c:695.2
$LN2666:
;       sgx_is_outside_enclave(const void *, size_t)
        call      sgx_is_outside_enclave                        ;\\Mac\Home\Documents\Studium\6. Semester\Bachelorarbeit\Code\PerformanceTests\Enclave\PerformanceTests_t.c:695.2
$LN2667:
                                ; LOE rbp rsp r12 r13 r14 r15 rip eax zmm6 zmm7 zmm8 zmm9 zmm10 zmm11 zmm12 zmm13 zmm14 zmm15
.B16.49::                       ; Preds .B16.8
                                ; Execution count [0.00e+000]
$LN2668:
        mov       DWORD PTR [8+rbp], eax                        ;\\Mac\Home\Documents\Studium\6. Semester\Bachelorarbeit\Code\PerformanceTests\Enclave\PerformanceTests_t.c:695.2
$LN2669:
                                ; LOE rbp rsp r12 r13 r14 r15 rip zmm6 zmm7 zmm8 zmm9 zmm10 zmm11 zmm12 zmm13 zmm14 zmm15
.B16.9::                        ; Preds .B16.49
                                ; Execution count [0.00e+000]
$LN2670:
        mov       eax, DWORD PTR [8+rbp]                        ;\\Mac\Home\Documents\Studium\6. Semester\Bachelorarbeit\Code\PerformanceTests\Enclave\PerformanceTests_t.c:695.2
$LN2671:
        test      eax, eax                                      ;\\Mac\Home\Documents\Studium\6. Semester\Bachelorarbeit\Code\PerformanceTests\Enclave\PerformanceTests_t.c:695.2
$LN2672:
        je        .B16.11       ; Prob 50%                      ;\\Mac\Home\Documents\Studium\6. Semester\Bachelorarbeit\Code\PerformanceTests\Enclave\PerformanceTests_t.c:695.2
$LN2673:
                                ; LOE rbp rsp r12 r13 r14 r15 rip zmm6 zmm7 zmm8 zmm9 zmm10 zmm11 zmm12 zmm13 zmm14 zmm15
.B16.10::                       ; Preds .B16.9 .B16.7
                                ; Execution count [0.00e+000]
$LN2674:
        mov       eax, 0                                        ;\\Mac\Home\Documents\Studium\6. Semester\Bachelorarbeit\Code\PerformanceTests\Enclave\PerformanceTests_t.c:695.2
$LN2675:
        test      eax, eax                                      ;\\Mac\Home\Documents\Studium\6. Semester\Bachelorarbeit\Code\PerformanceTests\Enclave\PerformanceTests_t.c:695.2
$LN2676:
        jne       .B16.7        ; Prob 0%                       ;\\Mac\Home\Documents\Studium\6. Semester\Bachelorarbeit\Code\PerformanceTests\Enclave\PerformanceTests_t.c:695.2
$LN2677:
        jmp       .B16.12       ; Prob 100%                     ;\\Mac\Home\Documents\Studium\6. Semester\Bachelorarbeit\Code\PerformanceTests\Enclave\PerformanceTests_t.c:695.2
$LN2678:
                                ; LOE rbp rsp r12 r13 r14 r15 rip zmm6 zmm7 zmm8 zmm9 zmm10 zmm11 zmm12 zmm13 zmm14 zmm15
.B16.11::                       ; Preds .B16.9
                                ; Execution count [0.00e+000]
$LN2679:
        mov       eax, 2                                        ;\\Mac\Home\Documents\Studium\6. Semester\Bachelorarbeit\Code\PerformanceTests\Enclave\PerformanceTests_t.c:695.2
$LN2680:
        mov       rbx, QWORD PTR [184+rbp]                      ;\\Mac\Home\Documents\Studium\6. Semester\Bachelorarbeit\Code\PerformanceTests\Enclave\PerformanceTests_t.c:695.2[spill]
$LN2681:
        mov       rsi, QWORD PTR [192+rbp]                      ;\\Mac\Home\Documents\Studium\6. Semester\Bachelorarbeit\Code\PerformanceTests\Enclave\PerformanceTests_t.c:695.2[spill]
$LN2682:
        mov       rdi, QWORD PTR [200+rbp]                      ;\\Mac\Home\Documents\Studium\6. Semester\Bachelorarbeit\Code\PerformanceTests\Enclave\PerformanceTests_t.c:695.2[spill]
$LN2683:
        lea       rsp, QWORD PTR [208+rbp]                      ;\\Mac\Home\Documents\Studium\6. Semester\Bachelorarbeit\Code\PerformanceTests\Enclave\PerformanceTests_t.c:695.2
$LN2684:
        pop       rbp                                           ;\\Mac\Home\Documents\Studium\6. Semester\Bachelorarbeit\Code\PerformanceTests\Enclave\PerformanceTests_t.c:695.2
$LN2685:
        ret                                                     ;\\Mac\Home\Documents\Studium\6. Semester\Bachelorarbeit\Code\PerformanceTests\Enclave\PerformanceTests_t.c:695.2
$LN2686:
                                ; LOE
.B16.12::                       ; Preds .B16.15 .B16.10
                                ; Execution count [0.00e+000]
$LN2687:

;;; 	CHECK_UNIQUE_POINTER(_tmp_key, _len_key);

        mov       rax, QWORD PTR [72+rbp]                       ;\\Mac\Home\Documents\Studium\6. Semester\Bachelorarbeit\Code\PerformanceTests\Enclave\PerformanceTests_t.c:696.2
$LN2688:
        test      rax, rax                                      ;\\Mac\Home\Documents\Studium\6. Semester\Bachelorarbeit\Code\PerformanceTests\Enclave\PerformanceTests_t.c:696.2
$LN2689:
        je        .B16.15       ; Prob 50%                      ;\\Mac\Home\Documents\Studium\6. Semester\Bachelorarbeit\Code\PerformanceTests\Enclave\PerformanceTests_t.c:696.2
$LN2690:
                                ; LOE rbp rsp r12 r13 r14 r15 rip zmm6 zmm7 zmm8 zmm9 zmm10 zmm11 zmm12 zmm13 zmm14 zmm15
.B16.13::                       ; Preds .B16.12
                                ; Execution count [0.00e+000]
$LN2691:
        mov       rax, QWORD PTR [72+rbp]                       ;\\Mac\Home\Documents\Studium\6. Semester\Bachelorarbeit\Code\PerformanceTests\Enclave\PerformanceTests_t.c:696.2
$LN2692:
        mov       rdx, QWORD PTR [88+rbp]                       ;\\Mac\Home\Documents\Studium\6. Semester\Bachelorarbeit\Code\PerformanceTests\Enclave\PerformanceTests_t.c:696.2
$LN2693:
        mov       rcx, rax                                      ;\\Mac\Home\Documents\Studium\6. Semester\Bachelorarbeit\Code\PerformanceTests\Enclave\PerformanceTests_t.c:696.2
$LN2694:
;       sgx_is_outside_enclave(const void *, size_t)
        call      sgx_is_outside_enclave                        ;\\Mac\Home\Documents\Studium\6. Semester\Bachelorarbeit\Code\PerformanceTests\Enclave\PerformanceTests_t.c:696.2
$LN2695:
                                ; LOE rbp rsp r12 r13 r14 r15 rip eax zmm6 zmm7 zmm8 zmm9 zmm10 zmm11 zmm12 zmm13 zmm14 zmm15
.B16.50::                       ; Preds .B16.13
                                ; Execution count [0.00e+000]
$LN2696:
        mov       DWORD PTR [12+rbp], eax                       ;\\Mac\Home\Documents\Studium\6. Semester\Bachelorarbeit\Code\PerformanceTests\Enclave\PerformanceTests_t.c:696.2
$LN2697:
                                ; LOE rbp rsp r12 r13 r14 r15 rip zmm6 zmm7 zmm8 zmm9 zmm10 zmm11 zmm12 zmm13 zmm14 zmm15
.B16.14::                       ; Preds .B16.50
                                ; Execution count [0.00e+000]
$LN2698:
        mov       eax, DWORD PTR [12+rbp]                       ;\\Mac\Home\Documents\Studium\6. Semester\Bachelorarbeit\Code\PerformanceTests\Enclave\PerformanceTests_t.c:696.2
$LN2699:
        test      eax, eax                                      ;\\Mac\Home\Documents\Studium\6. Semester\Bachelorarbeit\Code\PerformanceTests\Enclave\PerformanceTests_t.c:696.2
$LN2700:
        je        .B16.16       ; Prob 50%                      ;\\Mac\Home\Documents\Studium\6. Semester\Bachelorarbeit\Code\PerformanceTests\Enclave\PerformanceTests_t.c:696.2
$LN2701:
                                ; LOE rbp rsp r12 r13 r14 r15 rip zmm6 zmm7 zmm8 zmm9 zmm10 zmm11 zmm12 zmm13 zmm14 zmm15
.B16.15::                       ; Preds .B16.14 .B16.12
                                ; Execution count [0.00e+000]
$LN2702:
        mov       eax, 0                                        ;\\Mac\Home\Documents\Studium\6. Semester\Bachelorarbeit\Code\PerformanceTests\Enclave\PerformanceTests_t.c:696.2
$LN2703:
        test      eax, eax                                      ;\\Mac\Home\Documents\Studium\6. Semester\Bachelorarbeit\Code\PerformanceTests\Enclave\PerformanceTests_t.c:696.2
$LN2704:
        jne       .B16.12       ; Prob 0%                       ;\\Mac\Home\Documents\Studium\6. Semester\Bachelorarbeit\Code\PerformanceTests\Enclave\PerformanceTests_t.c:696.2
$LN2705:
        jmp       .B16.17       ; Prob 100%                     ;\\Mac\Home\Documents\Studium\6. Semester\Bachelorarbeit\Code\PerformanceTests\Enclave\PerformanceTests_t.c:696.2
$LN2706:
                                ; LOE rbp rsp r12 r13 r14 r15 rip zmm6 zmm7 zmm8 zmm9 zmm10 zmm11 zmm12 zmm13 zmm14 zmm15
.B16.16::                       ; Preds .B16.14
                                ; Execution count [0.00e+000]
$LN2707:
        mov       eax, 2                                        ;\\Mac\Home\Documents\Studium\6. Semester\Bachelorarbeit\Code\PerformanceTests\Enclave\PerformanceTests_t.c:696.2
$LN2708:
        mov       rbx, QWORD PTR [184+rbp]                      ;\\Mac\Home\Documents\Studium\6. Semester\Bachelorarbeit\Code\PerformanceTests\Enclave\PerformanceTests_t.c:696.2[spill]
$LN2709:
        mov       rsi, QWORD PTR [192+rbp]                      ;\\Mac\Home\Documents\Studium\6. Semester\Bachelorarbeit\Code\PerformanceTests\Enclave\PerformanceTests_t.c:696.2[spill]
$LN2710:
        mov       rdi, QWORD PTR [200+rbp]                      ;\\Mac\Home\Documents\Studium\6. Semester\Bachelorarbeit\Code\PerformanceTests\Enclave\PerformanceTests_t.c:696.2[spill]
$LN2711:
        lea       rsp, QWORD PTR [208+rbp]                      ;\\Mac\Home\Documents\Studium\6. Semester\Bachelorarbeit\Code\PerformanceTests\Enclave\PerformanceTests_t.c:696.2
$LN2712:
        pop       rbp                                           ;\\Mac\Home\Documents\Studium\6. Semester\Bachelorarbeit\Code\PerformanceTests\Enclave\PerformanceTests_t.c:696.2
$LN2713:
        ret                                                     ;\\Mac\Home\Documents\Studium\6. Semester\Bachelorarbeit\Code\PerformanceTests\Enclave\PerformanceTests_t.c:696.2
$LN2714:
                                ; LOE
.B16.17::                       ; Preds .B16.20 .B16.15
                                ; Execution count [0.00e+000]
$LN2715:

;;; 	CHECK_UNIQUE_POINTER(_tmp_iv, _len_iv);

        mov       rax, QWORD PTR [104+rbp]                      ;\\Mac\Home\Documents\Studium\6. Semester\Bachelorarbeit\Code\PerformanceTests\Enclave\PerformanceTests_t.c:697.2
$LN2716:
        test      rax, rax                                      ;\\Mac\Home\Documents\Studium\6. Semester\Bachelorarbeit\Code\PerformanceTests\Enclave\PerformanceTests_t.c:697.2
$LN2717:
        je        .B16.20       ; Prob 50%                      ;\\Mac\Home\Documents\Studium\6. Semester\Bachelorarbeit\Code\PerformanceTests\Enclave\PerformanceTests_t.c:697.2
$LN2718:
                                ; LOE rbp rsp r12 r13 r14 r15 rip zmm6 zmm7 zmm8 zmm9 zmm10 zmm11 zmm12 zmm13 zmm14 zmm15
.B16.18::                       ; Preds .B16.17
                                ; Execution count [0.00e+000]
$LN2719:
        mov       rax, QWORD PTR [104+rbp]                      ;\\Mac\Home\Documents\Studium\6. Semester\Bachelorarbeit\Code\PerformanceTests\Enclave\PerformanceTests_t.c:697.2
$LN2720:
        mov       rdx, QWORD PTR [112+rbp]                      ;\\Mac\Home\Documents\Studium\6. Semester\Bachelorarbeit\Code\PerformanceTests\Enclave\PerformanceTests_t.c:697.2
$LN2721:
        mov       rcx, rax                                      ;\\Mac\Home\Documents\Studium\6. Semester\Bachelorarbeit\Code\PerformanceTests\Enclave\PerformanceTests_t.c:697.2
$LN2722:
;       sgx_is_outside_enclave(const void *, size_t)
        call      sgx_is_outside_enclave                        ;\\Mac\Home\Documents\Studium\6. Semester\Bachelorarbeit\Code\PerformanceTests\Enclave\PerformanceTests_t.c:697.2
$LN2723:
                                ; LOE rbp rsp r12 r13 r14 r15 rip eax zmm6 zmm7 zmm8 zmm9 zmm10 zmm11 zmm12 zmm13 zmm14 zmm15
.B16.51::                       ; Preds .B16.18
                                ; Execution count [0.00e+000]
$LN2724:
        mov       DWORD PTR [16+rbp], eax                       ;\\Mac\Home\Documents\Studium\6. Semester\Bachelorarbeit\Code\PerformanceTests\Enclave\PerformanceTests_t.c:697.2
$LN2725:
                                ; LOE rbp rsp r12 r13 r14 r15 rip zmm6 zmm7 zmm8 zmm9 zmm10 zmm11 zmm12 zmm13 zmm14 zmm15
.B16.19::                       ; Preds .B16.51
                                ; Execution count [0.00e+000]
$LN2726:
        mov       eax, DWORD PTR [16+rbp]                       ;\\Mac\Home\Documents\Studium\6. Semester\Bachelorarbeit\Code\PerformanceTests\Enclave\PerformanceTests_t.c:697.2
$LN2727:
        test      eax, eax                                      ;\\Mac\Home\Documents\Studium\6. Semester\Bachelorarbeit\Code\PerformanceTests\Enclave\PerformanceTests_t.c:697.2
$LN2728:
        je        .B16.21       ; Prob 50%                      ;\\Mac\Home\Documents\Studium\6. Semester\Bachelorarbeit\Code\PerformanceTests\Enclave\PerformanceTests_t.c:697.2
$LN2729:
                                ; LOE rbp rsp r12 r13 r14 r15 rip zmm6 zmm7 zmm8 zmm9 zmm10 zmm11 zmm12 zmm13 zmm14 zmm15
.B16.20::                       ; Preds .B16.19 .B16.17
                                ; Execution count [0.00e+000]
$LN2730:
        mov       eax, 0                                        ;\\Mac\Home\Documents\Studium\6. Semester\Bachelorarbeit\Code\PerformanceTests\Enclave\PerformanceTests_t.c:697.2
$LN2731:
        test      eax, eax                                      ;\\Mac\Home\Documents\Studium\6. Semester\Bachelorarbeit\Code\PerformanceTests\Enclave\PerformanceTests_t.c:697.2
$LN2732:
        jne       .B16.17       ; Prob 0%                       ;\\Mac\Home\Documents\Studium\6. Semester\Bachelorarbeit\Code\PerformanceTests\Enclave\PerformanceTests_t.c:697.2
$LN2733:
        jmp       .B16.22       ; Prob 100%                     ;\\Mac\Home\Documents\Studium\6. Semester\Bachelorarbeit\Code\PerformanceTests\Enclave\PerformanceTests_t.c:697.2
$LN2734:
                                ; LOE rbp rsp r12 r13 r14 r15 rip zmm6 zmm7 zmm8 zmm9 zmm10 zmm11 zmm12 zmm13 zmm14 zmm15
.B16.21::                       ; Preds .B16.19
                                ; Execution count [0.00e+000]
$LN2735:
        mov       eax, 2                                        ;\\Mac\Home\Documents\Studium\6. Semester\Bachelorarbeit\Code\PerformanceTests\Enclave\PerformanceTests_t.c:697.2
$LN2736:
        mov       rbx, QWORD PTR [184+rbp]                      ;\\Mac\Home\Documents\Studium\6. Semester\Bachelorarbeit\Code\PerformanceTests\Enclave\PerformanceTests_t.c:697.2[spill]
$LN2737:
        mov       rsi, QWORD PTR [192+rbp]                      ;\\Mac\Home\Documents\Studium\6. Semester\Bachelorarbeit\Code\PerformanceTests\Enclave\PerformanceTests_t.c:697.2[spill]
$LN2738:
        mov       rdi, QWORD PTR [200+rbp]                      ;\\Mac\Home\Documents\Studium\6. Semester\Bachelorarbeit\Code\PerformanceTests\Enclave\PerformanceTests_t.c:697.2[spill]
$LN2739:
        lea       rsp, QWORD PTR [208+rbp]                      ;\\Mac\Home\Documents\Studium\6. Semester\Bachelorarbeit\Code\PerformanceTests\Enclave\PerformanceTests_t.c:697.2
$LN2740:
        pop       rbp                                           ;\\Mac\Home\Documents\Studium\6. Semester\Bachelorarbeit\Code\PerformanceTests\Enclave\PerformanceTests_t.c:697.2
$LN2741:
        ret                                                     ;\\Mac\Home\Documents\Studium\6. Semester\Bachelorarbeit\Code\PerformanceTests\Enclave\PerformanceTests_t.c:697.2
$LN2742:
                                ; LOE
.B16.22::                       ; Preds .B16.20
                                ; Execution count [0.00e+000]
$LN2743:

;;; 
;;; 	if (_tmp_input != NULL) {

        mov       rax, QWORD PTR [32+rbp]                       ;\\Mac\Home\Documents\Studium\6. Semester\Bachelorarbeit\Code\PerformanceTests\Enclave\PerformanceTests_t.c:699.2
$LN2744:
        test      rax, rax                                      ;\\Mac\Home\Documents\Studium\6. Semester\Bachelorarbeit\Code\PerformanceTests\Enclave\PerformanceTests_t.c:699.2
$LN2745:
        je        .B16.27       ; Prob 50%                      ;\\Mac\Home\Documents\Studium\6. Semester\Bachelorarbeit\Code\PerformanceTests\Enclave\PerformanceTests_t.c:699.2
$LN2746:
                                ; LOE rbp rsp r12 r13 r14 r15 rip zmm6 zmm7 zmm8 zmm9 zmm10 zmm11 zmm12 zmm13 zmm14 zmm15
.B16.23::                       ; Preds .B16.22
                                ; Execution count [0.00e+000]
$LN2747:

;;; 		_in_input = (uint8_t*)malloc(_len_input);

        mov       rax, QWORD PTR [48+rbp]                       ;\\Mac\Home\Documents\Studium\6. Semester\Bachelorarbeit\Code\PerformanceTests\Enclave\PerformanceTests_t.c:700.3
$LN2748:
        mov       rcx, rax                                      ;\\Mac\Home\Documents\Studium\6. Semester\Bachelorarbeit\Code\PerformanceTests\Enclave\PerformanceTests_t.c:700.3
$LN2749:
;       malloc(size_t)
        call      malloc                                        ;\\Mac\Home\Documents\Studium\6. Semester\Bachelorarbeit\Code\PerformanceTests\Enclave\PerformanceTests_t.c:700.3
$LN2750:
                                ; LOE rax rbp rsp r12 r13 r14 r15 rip zmm6 zmm7 zmm8 zmm9 zmm10 zmm11 zmm12 zmm13 zmm14 zmm15
.B16.52::                       ; Preds .B16.23
                                ; Execution count [0.00e+000]
$LN2751:
        mov       QWORD PTR [128+rbp], rax                      ;\\Mac\Home\Documents\Studium\6. Semester\Bachelorarbeit\Code\PerformanceTests\Enclave\PerformanceTests_t.c:700.3
$LN2752:
                                ; LOE rbp rsp r12 r13 r14 r15 rip zmm6 zmm7 zmm8 zmm9 zmm10 zmm11 zmm12 zmm13 zmm14 zmm15
.B16.24::                       ; Preds .B16.52
                                ; Execution count [0.00e+000]
$LN2753:
        mov       rax, QWORD PTR [128+rbp]                      ;\\Mac\Home\Documents\Studium\6. Semester\Bachelorarbeit\Code\PerformanceTests\Enclave\PerformanceTests_t.c:700.3
$LN2754:
        mov       QWORD PTR [56+rbp], rax                       ;\\Mac\Home\Documents\Studium\6. Semester\Bachelorarbeit\Code\PerformanceTests\Enclave\PerformanceTests_t.c:700.3
$LN2755:

;;; 		if (_in_input == NULL) {

        mov       rax, QWORD PTR [56+rbp]                       ;\\Mac\Home\Documents\Studium\6. Semester\Bachelorarbeit\Code\PerformanceTests\Enclave\PerformanceTests_t.c:701.3
$LN2756:
        test      rax, rax                                      ;\\Mac\Home\Documents\Studium\6. Semester\Bachelorarbeit\Code\PerformanceTests\Enclave\PerformanceTests_t.c:701.3
$LN2757:
        jne       .B16.26       ; Prob 50%                      ;\\Mac\Home\Documents\Studium\6. Semester\Bachelorarbeit\Code\PerformanceTests\Enclave\PerformanceTests_t.c:701.3
$LN2758:
                                ; LOE rbp rsp r12 r13 r14 r15 rip zmm6 zmm7 zmm8 zmm9 zmm10 zmm11 zmm12 zmm13 zmm14 zmm15
.B16.25::                       ; Preds .B16.24
                                ; Execution count [0.00e+000]
$LN2759:

;;; 			status = SGX_ERROR_OUT_OF_MEMORY;

        mov       DWORD PTR [rbp], 3                            ;\\Mac\Home\Documents\Studium\6. Semester\Bachelorarbeit\Code\PerformanceTests\Enclave\PerformanceTests_t.c:702.4
$LN2760:
        jmp       .B16.39       ; Prob 100%                     ;\\Mac\Home\Documents\Studium\6. Semester\Bachelorarbeit\Code\PerformanceTests\Enclave\PerformanceTests_t.c:702.4
$LN2761:
                                ; LOE rbp rsp r12 r13 r14 r15 rip zmm6 zmm7 zmm8 zmm9 zmm10 zmm11 zmm12 zmm13 zmm14 zmm15
.B16.26::                       ; Preds .B16.24
                                ; Execution count [0.00e+000]
$LN2762:

;;; 			goto err;
;;; 		}
;;; 
;;; 		memcpy(_in_input, _tmp_input, _len_input);

        mov       rax, QWORD PTR [56+rbp]                       ;\\Mac\Home\Documents\Studium\6. Semester\Bachelorarbeit\Code\PerformanceTests\Enclave\PerformanceTests_t.c:706.3
$LN2763:
        mov       rdx, QWORD PTR [32+rbp]                       ;\\Mac\Home\Documents\Studium\6. Semester\Bachelorarbeit\Code\PerformanceTests\Enclave\PerformanceTests_t.c:706.3
$LN2764:
        mov       rcx, QWORD PTR [48+rbp]                       ;\\Mac\Home\Documents\Studium\6. Semester\Bachelorarbeit\Code\PerformanceTests\Enclave\PerformanceTests_t.c:706.3
$LN2765:
        mov       rdi, rax                                      ;\\Mac\Home\Documents\Studium\6. Semester\Bachelorarbeit\Code\PerformanceTests\Enclave\PerformanceTests_t.c:706.3
$LN2766:
        mov       rsi, rdx                                      ;\\Mac\Home\Documents\Studium\6. Semester\Bachelorarbeit\Code\PerformanceTests\Enclave\PerformanceTests_t.c:706.3
$LN2767:
        mov       rdx, rdi                                      ;\\Mac\Home\Documents\Studium\6. Semester\Bachelorarbeit\Code\PerformanceTests\Enclave\PerformanceTests_t.c:706.3
$LN2768:
        mov       eax, ecx                                      ;\\Mac\Home\Documents\Studium\6. Semester\Bachelorarbeit\Code\PerformanceTests\Enclave\PerformanceTests_t.c:706.3
$LN2769:
        shr       rcx, 2                                        ;\\Mac\Home\Documents\Studium\6. Semester\Bachelorarbeit\Code\PerformanceTests\Enclave\PerformanceTests_t.c:706.3
$LN2770:
        rep   movsd                                             ;\\Mac\Home\Documents\Studium\6. Semester\Bachelorarbeit\Code\PerformanceTests\Enclave\PerformanceTests_t.c:706.3
$LN2771:
        mov       ecx, eax                                      ;\\Mac\Home\Documents\Studium\6. Semester\Bachelorarbeit\Code\PerformanceTests\Enclave\PerformanceTests_t.c:706.3
$LN2772:
        and       ecx, 3                                        ;\\Mac\Home\Documents\Studium\6. Semester\Bachelorarbeit\Code\PerformanceTests\Enclave\PerformanceTests_t.c:706.3
$LN2773:
        rep   movsb                                             ;\\Mac\Home\Documents\Studium\6. Semester\Bachelorarbeit\Code\PerformanceTests\Enclave\PerformanceTests_t.c:706.3
$LN2774:
        mov       rax, rdx                                      ;\\Mac\Home\Documents\Studium\6. Semester\Bachelorarbeit\Code\PerformanceTests\Enclave\PerformanceTests_t.c:706.3
$LN2775:
                                ; LOE rax rbp rsp r12 r13 r14 r15 rip zmm6 zmm7 zmm8 zmm9 zmm10 zmm11 zmm12 zmm13 zmm14 zmm15
.B16.53::                       ; Preds .B16.26
                                ; Execution count [0.00e+000]
$LN2776:
        mov       QWORD PTR [144+rbp], rax                      ;\\Mac\Home\Documents\Studium\6. Semester\Bachelorarbeit\Code\PerformanceTests\Enclave\PerformanceTests_t.c:706.3
$LN2777:
                                ; LOE rbp rsp r12 r13 r14 r15 rip zmm6 zmm7 zmm8 zmm9 zmm10 zmm11 zmm12 zmm13 zmm14 zmm15
.B16.27::                       ; Preds .B16.53 .B16.22
                                ; Execution count [0.00e+000]
$LN2778:

;;; 	}
;;; 	if (_tmp_key != NULL) {

        mov       rax, QWORD PTR [72+rbp]                       ;\\Mac\Home\Documents\Studium\6. Semester\Bachelorarbeit\Code\PerformanceTests\Enclave\PerformanceTests_t.c:708.2
$LN2779:
        test      rax, rax                                      ;\\Mac\Home\Documents\Studium\6. Semester\Bachelorarbeit\Code\PerformanceTests\Enclave\PerformanceTests_t.c:708.2
$LN2780:
        je        .B16.32       ; Prob 50%                      ;\\Mac\Home\Documents\Studium\6. Semester\Bachelorarbeit\Code\PerformanceTests\Enclave\PerformanceTests_t.c:708.2
$LN2781:
                                ; LOE rbp rsp r12 r13 r14 r15 rip zmm6 zmm7 zmm8 zmm9 zmm10 zmm11 zmm12 zmm13 zmm14 zmm15
.B16.28::                       ; Preds .B16.27
                                ; Execution count [0.00e+000]
$LN2782:

;;; 		_in_key = (uint8_t*)malloc(_len_key);

        mov       rax, QWORD PTR [88+rbp]                       ;\\Mac\Home\Documents\Studium\6. Semester\Bachelorarbeit\Code\PerformanceTests\Enclave\PerformanceTests_t.c:709.3
$LN2783:
        mov       rcx, rax                                      ;\\Mac\Home\Documents\Studium\6. Semester\Bachelorarbeit\Code\PerformanceTests\Enclave\PerformanceTests_t.c:709.3
$LN2784:
;       malloc(size_t)
        call      malloc                                        ;\\Mac\Home\Documents\Studium\6. Semester\Bachelorarbeit\Code\PerformanceTests\Enclave\PerformanceTests_t.c:709.3
$LN2785:
                                ; LOE rax rbp rsp r12 r13 r14 r15 rip zmm6 zmm7 zmm8 zmm9 zmm10 zmm11 zmm12 zmm13 zmm14 zmm15
.B16.54::                       ; Preds .B16.28
                                ; Execution count [0.00e+000]
$LN2786:
        mov       QWORD PTR [136+rbp], rax                      ;\\Mac\Home\Documents\Studium\6. Semester\Bachelorarbeit\Code\PerformanceTests\Enclave\PerformanceTests_t.c:709.3
$LN2787:
                                ; LOE rbp rsp r12 r13 r14 r15 rip zmm6 zmm7 zmm8 zmm9 zmm10 zmm11 zmm12 zmm13 zmm14 zmm15
.B16.29::                       ; Preds .B16.54
                                ; Execution count [0.00e+000]
$LN2788:
        mov       rax, QWORD PTR [136+rbp]                      ;\\Mac\Home\Documents\Studium\6. Semester\Bachelorarbeit\Code\PerformanceTests\Enclave\PerformanceTests_t.c:709.3
$LN2789:
        mov       QWORD PTR [96+rbp], rax                       ;\\Mac\Home\Documents\Studium\6. Semester\Bachelorarbeit\Code\PerformanceTests\Enclave\PerformanceTests_t.c:709.3
$LN2790:

;;; 		if (_in_key == NULL) {

        mov       rax, QWORD PTR [96+rbp]                       ;\\Mac\Home\Documents\Studium\6. Semester\Bachelorarbeit\Code\PerformanceTests\Enclave\PerformanceTests_t.c:710.3
$LN2791:
        test      rax, rax                                      ;\\Mac\Home\Documents\Studium\6. Semester\Bachelorarbeit\Code\PerformanceTests\Enclave\PerformanceTests_t.c:710.3
$LN2792:
        jne       .B16.31       ; Prob 50%                      ;\\Mac\Home\Documents\Studium\6. Semester\Bachelorarbeit\Code\PerformanceTests\Enclave\PerformanceTests_t.c:710.3
$LN2793:
                                ; LOE rbp rsp r12 r13 r14 r15 rip zmm6 zmm7 zmm8 zmm9 zmm10 zmm11 zmm12 zmm13 zmm14 zmm15
.B16.30::                       ; Preds .B16.29
                                ; Execution count [0.00e+000]
$LN2794:

;;; 			status = SGX_ERROR_OUT_OF_MEMORY;

        mov       DWORD PTR [rbp], 3                            ;\\Mac\Home\Documents\Studium\6. Semester\Bachelorarbeit\Code\PerformanceTests\Enclave\PerformanceTests_t.c:711.4
$LN2795:
        jmp       .B16.39       ; Prob 100%                     ;\\Mac\Home\Documents\Studium\6. Semester\Bachelorarbeit\Code\PerformanceTests\Enclave\PerformanceTests_t.c:711.4
$LN2796:
                                ; LOE rbp rsp r12 r13 r14 r15 rip zmm6 zmm7 zmm8 zmm9 zmm10 zmm11 zmm12 zmm13 zmm14 zmm15
.B16.31::                       ; Preds .B16.29
                                ; Execution count [0.00e+000]
$LN2797:

;;; 			goto err;
;;; 		}
;;; 
;;; 		memcpy((void*)_in_key, _tmp_key, _len_key);

        mov       rax, QWORD PTR [96+rbp]                       ;\\Mac\Home\Documents\Studium\6. Semester\Bachelorarbeit\Code\PerformanceTests\Enclave\PerformanceTests_t.c:715.3
$LN2798:
        mov       rdx, QWORD PTR [72+rbp]                       ;\\Mac\Home\Documents\Studium\6. Semester\Bachelorarbeit\Code\PerformanceTests\Enclave\PerformanceTests_t.c:715.3
$LN2799:
        mov       rcx, QWORD PTR [88+rbp]                       ;\\Mac\Home\Documents\Studium\6. Semester\Bachelorarbeit\Code\PerformanceTests\Enclave\PerformanceTests_t.c:715.3
$LN2800:
        mov       rdi, rax                                      ;\\Mac\Home\Documents\Studium\6. Semester\Bachelorarbeit\Code\PerformanceTests\Enclave\PerformanceTests_t.c:715.3
$LN2801:
        mov       rsi, rdx                                      ;\\Mac\Home\Documents\Studium\6. Semester\Bachelorarbeit\Code\PerformanceTests\Enclave\PerformanceTests_t.c:715.3
$LN2802:
        mov       rdx, rdi                                      ;\\Mac\Home\Documents\Studium\6. Semester\Bachelorarbeit\Code\PerformanceTests\Enclave\PerformanceTests_t.c:715.3
$LN2803:
        mov       eax, ecx                                      ;\\Mac\Home\Documents\Studium\6. Semester\Bachelorarbeit\Code\PerformanceTests\Enclave\PerformanceTests_t.c:715.3
$LN2804:
        shr       rcx, 2                                        ;\\Mac\Home\Documents\Studium\6. Semester\Bachelorarbeit\Code\PerformanceTests\Enclave\PerformanceTests_t.c:715.3
$LN2805:
        rep   movsd                                             ;\\Mac\Home\Documents\Studium\6. Semester\Bachelorarbeit\Code\PerformanceTests\Enclave\PerformanceTests_t.c:715.3
$LN2806:
        mov       ecx, eax                                      ;\\Mac\Home\Documents\Studium\6. Semester\Bachelorarbeit\Code\PerformanceTests\Enclave\PerformanceTests_t.c:715.3
$LN2807:
        and       ecx, 3                                        ;\\Mac\Home\Documents\Studium\6. Semester\Bachelorarbeit\Code\PerformanceTests\Enclave\PerformanceTests_t.c:715.3
$LN2808:
        rep   movsb                                             ;\\Mac\Home\Documents\Studium\6. Semester\Bachelorarbeit\Code\PerformanceTests\Enclave\PerformanceTests_t.c:715.3
$LN2809:
        mov       rax, rdx                                      ;\\Mac\Home\Documents\Studium\6. Semester\Bachelorarbeit\Code\PerformanceTests\Enclave\PerformanceTests_t.c:715.3
$LN2810:
                                ; LOE rax rbp rsp r12 r13 r14 r15 rip zmm6 zmm7 zmm8 zmm9 zmm10 zmm11 zmm12 zmm13 zmm14 zmm15
.B16.55::                       ; Preds .B16.31
                                ; Execution count [0.00e+000]
$LN2811:
        mov       QWORD PTR [160+rbp], rax                      ;\\Mac\Home\Documents\Studium\6. Semester\Bachelorarbeit\Code\PerformanceTests\Enclave\PerformanceTests_t.c:715.3
$LN2812:
                                ; LOE rbp rsp r12 r13 r14 r15 rip zmm6 zmm7 zmm8 zmm9 zmm10 zmm11 zmm12 zmm13 zmm14 zmm15
.B16.32::                       ; Preds .B16.55 .B16.27
                                ; Execution count [0.00e+000]
$LN2813:

;;; 	}
;;; 	if (_tmp_iv != NULL) {

        mov       rax, QWORD PTR [104+rbp]                      ;\\Mac\Home\Documents\Studium\6. Semester\Bachelorarbeit\Code\PerformanceTests\Enclave\PerformanceTests_t.c:717.2
$LN2814:
        test      rax, rax                                      ;\\Mac\Home\Documents\Studium\6. Semester\Bachelorarbeit\Code\PerformanceTests\Enclave\PerformanceTests_t.c:717.2
$LN2815:
        je        .B16.37       ; Prob 50%                      ;\\Mac\Home\Documents\Studium\6. Semester\Bachelorarbeit\Code\PerformanceTests\Enclave\PerformanceTests_t.c:717.2
$LN2816:
                                ; LOE rbp rsp r12 r13 r14 r15 rip zmm6 zmm7 zmm8 zmm9 zmm10 zmm11 zmm12 zmm13 zmm14 zmm15
.B16.33::                       ; Preds .B16.32
                                ; Execution count [0.00e+000]
$LN2817:

;;; 		_in_iv = (uint8_t*)malloc(_len_iv);

        mov       rax, QWORD PTR [112+rbp]                      ;\\Mac\Home\Documents\Studium\6. Semester\Bachelorarbeit\Code\PerformanceTests\Enclave\PerformanceTests_t.c:718.3
$LN2818:
        mov       rcx, rax                                      ;\\Mac\Home\Documents\Studium\6. Semester\Bachelorarbeit\Code\PerformanceTests\Enclave\PerformanceTests_t.c:718.3
$LN2819:
;       malloc(size_t)
        call      malloc                                        ;\\Mac\Home\Documents\Studium\6. Semester\Bachelorarbeit\Code\PerformanceTests\Enclave\PerformanceTests_t.c:718.3
$LN2820:
                                ; LOE rax rbp rsp r12 r13 r14 r15 rip zmm6 zmm7 zmm8 zmm9 zmm10 zmm11 zmm12 zmm13 zmm14 zmm15
.B16.56::                       ; Preds .B16.33
                                ; Execution count [0.00e+000]
$LN2821:
        mov       QWORD PTR [152+rbp], rax                      ;\\Mac\Home\Documents\Studium\6. Semester\Bachelorarbeit\Code\PerformanceTests\Enclave\PerformanceTests_t.c:718.3
$LN2822:
                                ; LOE rbp rsp r12 r13 r14 r15 rip zmm6 zmm7 zmm8 zmm9 zmm10 zmm11 zmm12 zmm13 zmm14 zmm15
.B16.34::                       ; Preds .B16.56
                                ; Execution count [0.00e+000]
$LN2823:
        mov       rax, QWORD PTR [152+rbp]                      ;\\Mac\Home\Documents\Studium\6. Semester\Bachelorarbeit\Code\PerformanceTests\Enclave\PerformanceTests_t.c:718.3
$LN2824:
        mov       QWORD PTR [120+rbp], rax                      ;\\Mac\Home\Documents\Studium\6. Semester\Bachelorarbeit\Code\PerformanceTests\Enclave\PerformanceTests_t.c:718.3
$LN2825:

;;; 		if (_in_iv == NULL) {

        mov       rax, QWORD PTR [120+rbp]                      ;\\Mac\Home\Documents\Studium\6. Semester\Bachelorarbeit\Code\PerformanceTests\Enclave\PerformanceTests_t.c:719.3
$LN2826:
        test      rax, rax                                      ;\\Mac\Home\Documents\Studium\6. Semester\Bachelorarbeit\Code\PerformanceTests\Enclave\PerformanceTests_t.c:719.3
$LN2827:
        jne       .B16.36       ; Prob 50%                      ;\\Mac\Home\Documents\Studium\6. Semester\Bachelorarbeit\Code\PerformanceTests\Enclave\PerformanceTests_t.c:719.3
$LN2828:
                                ; LOE rbp rsp r12 r13 r14 r15 rip zmm6 zmm7 zmm8 zmm9 zmm10 zmm11 zmm12 zmm13 zmm14 zmm15
.B16.35::                       ; Preds .B16.34
                                ; Execution count [0.00e+000]
$LN2829:

;;; 			status = SGX_ERROR_OUT_OF_MEMORY;

        mov       DWORD PTR [rbp], 3                            ;\\Mac\Home\Documents\Studium\6. Semester\Bachelorarbeit\Code\PerformanceTests\Enclave\PerformanceTests_t.c:720.4
$LN2830:
        jmp       .B16.39       ; Prob 100%                     ;\\Mac\Home\Documents\Studium\6. Semester\Bachelorarbeit\Code\PerformanceTests\Enclave\PerformanceTests_t.c:720.4
$LN2831:
                                ; LOE rbp rsp r12 r13 r14 r15 rip zmm6 zmm7 zmm8 zmm9 zmm10 zmm11 zmm12 zmm13 zmm14 zmm15
.B16.36::                       ; Preds .B16.34
                                ; Execution count [0.00e+000]
$LN2832:

;;; 			goto err;
;;; 		}
;;; 
;;; 		memcpy(_in_iv, _tmp_iv, _len_iv);

        mov       rax, QWORD PTR [120+rbp]                      ;\\Mac\Home\Documents\Studium\6. Semester\Bachelorarbeit\Code\PerformanceTests\Enclave\PerformanceTests_t.c:724.3
$LN2833:
        mov       rdx, QWORD PTR [104+rbp]                      ;\\Mac\Home\Documents\Studium\6. Semester\Bachelorarbeit\Code\PerformanceTests\Enclave\PerformanceTests_t.c:724.3
$LN2834:
        mov       rcx, QWORD PTR [112+rbp]                      ;\\Mac\Home\Documents\Studium\6. Semester\Bachelorarbeit\Code\PerformanceTests\Enclave\PerformanceTests_t.c:724.3
$LN2835:
        mov       rdi, rax                                      ;\\Mac\Home\Documents\Studium\6. Semester\Bachelorarbeit\Code\PerformanceTests\Enclave\PerformanceTests_t.c:724.3
$LN2836:
        mov       rsi, rdx                                      ;\\Mac\Home\Documents\Studium\6. Semester\Bachelorarbeit\Code\PerformanceTests\Enclave\PerformanceTests_t.c:724.3
$LN2837:
        mov       rdx, rdi                                      ;\\Mac\Home\Documents\Studium\6. Semester\Bachelorarbeit\Code\PerformanceTests\Enclave\PerformanceTests_t.c:724.3
$LN2838:
        mov       eax, ecx                                      ;\\Mac\Home\Documents\Studium\6. Semester\Bachelorarbeit\Code\PerformanceTests\Enclave\PerformanceTests_t.c:724.3
$LN2839:
        shr       rcx, 2                                        ;\\Mac\Home\Documents\Studium\6. Semester\Bachelorarbeit\Code\PerformanceTests\Enclave\PerformanceTests_t.c:724.3
$LN2840:
        rep   movsd                                             ;\\Mac\Home\Documents\Studium\6. Semester\Bachelorarbeit\Code\PerformanceTests\Enclave\PerformanceTests_t.c:724.3
$LN2841:
        mov       ecx, eax                                      ;\\Mac\Home\Documents\Studium\6. Semester\Bachelorarbeit\Code\PerformanceTests\Enclave\PerformanceTests_t.c:724.3
$LN2842:
        and       ecx, 3                                        ;\\Mac\Home\Documents\Studium\6. Semester\Bachelorarbeit\Code\PerformanceTests\Enclave\PerformanceTests_t.c:724.3
$LN2843:
        rep   movsb                                             ;\\Mac\Home\Documents\Studium\6. Semester\Bachelorarbeit\Code\PerformanceTests\Enclave\PerformanceTests_t.c:724.3
$LN2844:
        mov       rax, rdx                                      ;\\Mac\Home\Documents\Studium\6. Semester\Bachelorarbeit\Code\PerformanceTests\Enclave\PerformanceTests_t.c:724.3
$LN2845:
                                ; LOE rax rbp rsp r12 r13 r14 r15 rip zmm6 zmm7 zmm8 zmm9 zmm10 zmm11 zmm12 zmm13 zmm14 zmm15
.B16.57::                       ; Preds .B16.36
                                ; Execution count [0.00e+000]
$LN2846:
        mov       QWORD PTR [168+rbp], rax                      ;\\Mac\Home\Documents\Studium\6. Semester\Bachelorarbeit\Code\PerformanceTests\Enclave\PerformanceTests_t.c:724.3
$LN2847:
                                ; LOE rbp rsp r12 r13 r14 r15 rip zmm6 zmm7 zmm8 zmm9 zmm10 zmm11 zmm12 zmm13 zmm14 zmm15
.B16.37::                       ; Preds .B16.57 .B16.32
                                ; Execution count [0.00e+000]
$LN2848:

;;; 	}
;;; 	ms->ms_retval = encryptBytes(_in_input, _tmp_length, _tmp_output, (const uint8_t*)_in_key, _tmp_keyLength, _in_iv);

        mov       rax, QWORD PTR [56+rbp]                       ;\\Mac\Home\Documents\Studium\6. Semester\Bachelorarbeit\Code\PerformanceTests\Enclave\PerformanceTests_t.c:726.2
$LN2849:
        mov       rdx, QWORD PTR [40+rbp]                       ;\\Mac\Home\Documents\Studium\6. Semester\Bachelorarbeit\Code\PerformanceTests\Enclave\PerformanceTests_t.c:726.2
$LN2850:
        mov       rcx, QWORD PTR [64+rbp]                       ;\\Mac\Home\Documents\Studium\6. Semester\Bachelorarbeit\Code\PerformanceTests\Enclave\PerformanceTests_t.c:726.2
$LN2851:
        mov       rbx, QWORD PTR [96+rbp]                       ;\\Mac\Home\Documents\Studium\6. Semester\Bachelorarbeit\Code\PerformanceTests\Enclave\PerformanceTests_t.c:726.2
$LN2852:
        mov       rsi, QWORD PTR [80+rbp]                       ;\\Mac\Home\Documents\Studium\6. Semester\Bachelorarbeit\Code\PerformanceTests\Enclave\PerformanceTests_t.c:726.2
$LN2853:
        mov       QWORD PTR [32+rsp], rsi                       ;\\Mac\Home\Documents\Studium\6. Semester\Bachelorarbeit\Code\PerformanceTests\Enclave\PerformanceTests_t.c:726.2
$LN2854:
        mov       rsi, QWORD PTR [120+rbp]                      ;\\Mac\Home\Documents\Studium\6. Semester\Bachelorarbeit\Code\PerformanceTests\Enclave\PerformanceTests_t.c:726.2
$LN2855:
        mov       QWORD PTR [40+rsp], rsi                       ;\\Mac\Home\Documents\Studium\6. Semester\Bachelorarbeit\Code\PerformanceTests\Enclave\PerformanceTests_t.c:726.2
$LN2856:
        mov       QWORD PTR [176+rbp], rcx                      ;\\Mac\Home\Documents\Studium\6. Semester\Bachelorarbeit\Code\PerformanceTests\Enclave\PerformanceTests_t.c:726.2[spill]
$LN2857:
        mov       rcx, rax                                      ;\\Mac\Home\Documents\Studium\6. Semester\Bachelorarbeit\Code\PerformanceTests\Enclave\PerformanceTests_t.c:726.2
$LN2858:
        mov       rax, QWORD PTR [176+rbp]                      ;\\Mac\Home\Documents\Studium\6. Semester\Bachelorarbeit\Code\PerformanceTests\Enclave\PerformanceTests_t.c:726.2[spill]
$LN2859:
        mov       r8, rax                                       ;\\Mac\Home\Documents\Studium\6. Semester\Bachelorarbeit\Code\PerformanceTests\Enclave\PerformanceTests_t.c:726.2
$LN2860:
        mov       r9, rbx                                       ;\\Mac\Home\Documents\Studium\6. Semester\Bachelorarbeit\Code\PerformanceTests\Enclave\PerformanceTests_t.c:726.2
$LN2861:
;       encryptBytes(uint8_t *, size_t, uint8_t *, const uint8_t *, size_t, uint8_t *)
        call      encryptBytes                                  ;\\Mac\Home\Documents\Studium\6. Semester\Bachelorarbeit\Code\PerformanceTests\Enclave\PerformanceTests_t.c:726.2
$LN2862:
                                ; LOE rbp rsp r12 r13 r14 r15 rip eax zmm6 zmm7 zmm8 zmm9 zmm10 zmm11 zmm12 zmm13 zmm14 zmm15
.B16.58::                       ; Preds .B16.37
                                ; Execution count [0.00e+000]
$LN2863:
        mov       DWORD PTR [20+rbp], eax                       ;\\Mac\Home\Documents\Studium\6. Semester\Bachelorarbeit\Code\PerformanceTests\Enclave\PerformanceTests_t.c:726.2
$LN2864:
                                ; LOE rbp rsp r12 r13 r14 r15 rip zmm6 zmm7 zmm8 zmm9 zmm10 zmm11 zmm12 zmm13 zmm14 zmm15
.B16.38::                       ; Preds .B16.58
                                ; Execution count [0.00e+000]
$LN2865:
        mov       rax, QWORD PTR [24+rbp]                       ;\\Mac\Home\Documents\Studium\6. Semester\Bachelorarbeit\Code\PerformanceTests\Enclave\PerformanceTests_t.c:726.2
$LN2866:
        mov       edx, DWORD PTR [20+rbp]                       ;\\Mac\Home\Documents\Studium\6. Semester\Bachelorarbeit\Code\PerformanceTests\Enclave\PerformanceTests_t.c:726.2
$LN2867:
        mov       DWORD PTR [rax], edx                          ;\\Mac\Home\Documents\Studium\6. Semester\Bachelorarbeit\Code\PerformanceTests\Enclave\PerformanceTests_t.c:726.2
$LN2868:
                                ; LOE rbp rsp r12 r13 r14 r15 rip zmm6 zmm7 zmm8 zmm9 zmm10 zmm11 zmm12 zmm13 zmm14 zmm15
.B16.39::                       ; Preds .B16.38 .B16.35 .B16.30 .B16.25
                                ; Execution count [0.00e+000]
$LN2869:

;;; err:
;;; 	if (_in_input) free(_in_input);

        mov       rax, QWORD PTR [56+rbp]                       ;\\Mac\Home\Documents\Studium\6. Semester\Bachelorarbeit\Code\PerformanceTests\Enclave\PerformanceTests_t.c:728.2
$LN2870:
        test      rax, rax                                      ;\\Mac\Home\Documents\Studium\6. Semester\Bachelorarbeit\Code\PerformanceTests\Enclave\PerformanceTests_t.c:728.2
$LN2871:
        je        .B16.41       ; Prob 50%                      ;\\Mac\Home\Documents\Studium\6. Semester\Bachelorarbeit\Code\PerformanceTests\Enclave\PerformanceTests_t.c:728.2
$LN2872:
                                ; LOE rbp rsp r12 r13 r14 r15 rip zmm6 zmm7 zmm8 zmm9 zmm10 zmm11 zmm12 zmm13 zmm14 zmm15
.B16.40::                       ; Preds .B16.39
                                ; Execution count [0.00e+000]
$LN2873:
        mov       rax, QWORD PTR [56+rbp]                       ;\\Mac\Home\Documents\Studium\6. Semester\Bachelorarbeit\Code\PerformanceTests\Enclave\PerformanceTests_t.c:728.17
$LN2874:
        mov       rcx, rax                                      ;\\Mac\Home\Documents\Studium\6. Semester\Bachelorarbeit\Code\PerformanceTests\Enclave\PerformanceTests_t.c:728.17
$LN2875:
;       free(void *)
        call      free                                          ;\\Mac\Home\Documents\Studium\6. Semester\Bachelorarbeit\Code\PerformanceTests\Enclave\PerformanceTests_t.c:728.17
$LN2876:
                                ; LOE rbp rsp r12 r13 r14 r15 rip zmm6 zmm7 zmm8 zmm9 zmm10 zmm11 zmm12 zmm13 zmm14 zmm15
.B16.59::                       ; Preds .B16.40
                                ; Execution count [0.00e+000]
$LN2877:
                                ; LOE rbp rsp r12 r13 r14 r15 rip zmm6 zmm7 zmm8 zmm9 zmm10 zmm11 zmm12 zmm13 zmm14 zmm15
.B16.41::                       ; Preds .B16.59 .B16.39
                                ; Execution count [0.00e+000]
$LN2878:

;;; 	if (_in_key) free((void*)_in_key);

        mov       rax, QWORD PTR [96+rbp]                       ;\\Mac\Home\Documents\Studium\6. Semester\Bachelorarbeit\Code\PerformanceTests\Enclave\PerformanceTests_t.c:729.2
$LN2879:
        test      rax, rax                                      ;\\Mac\Home\Documents\Studium\6. Semester\Bachelorarbeit\Code\PerformanceTests\Enclave\PerformanceTests_t.c:729.2
$LN2880:
        je        .B16.43       ; Prob 50%                      ;\\Mac\Home\Documents\Studium\6. Semester\Bachelorarbeit\Code\PerformanceTests\Enclave\PerformanceTests_t.c:729.2
$LN2881:
                                ; LOE rbp rsp r12 r13 r14 r15 rip zmm6 zmm7 zmm8 zmm9 zmm10 zmm11 zmm12 zmm13 zmm14 zmm15
.B16.42::                       ; Preds .B16.41
                                ; Execution count [0.00e+000]
$LN2882:
        mov       rax, QWORD PTR [96+rbp]                       ;\\Mac\Home\Documents\Studium\6. Semester\Bachelorarbeit\Code\PerformanceTests\Enclave\PerformanceTests_t.c:729.15
$LN2883:
        mov       rcx, rax                                      ;\\Mac\Home\Documents\Studium\6. Semester\Bachelorarbeit\Code\PerformanceTests\Enclave\PerformanceTests_t.c:729.15
$LN2884:
;       free(void *)
        call      free                                          ;\\Mac\Home\Documents\Studium\6. Semester\Bachelorarbeit\Code\PerformanceTests\Enclave\PerformanceTests_t.c:729.15
$LN2885:
                                ; LOE rbp rsp r12 r13 r14 r15 rip zmm6 zmm7 zmm8 zmm9 zmm10 zmm11 zmm12 zmm13 zmm14 zmm15
.B16.60::                       ; Preds .B16.42
                                ; Execution count [0.00e+000]
$LN2886:
                                ; LOE rbp rsp r12 r13 r14 r15 rip zmm6 zmm7 zmm8 zmm9 zmm10 zmm11 zmm12 zmm13 zmm14 zmm15
.B16.43::                       ; Preds .B16.60 .B16.41
                                ; Execution count [0.00e+000]
$LN2887:

;;; 	if (_in_iv) free(_in_iv);

        mov       rax, QWORD PTR [120+rbp]                      ;\\Mac\Home\Documents\Studium\6. Semester\Bachelorarbeit\Code\PerformanceTests\Enclave\PerformanceTests_t.c:730.2
$LN2888:
        test      rax, rax                                      ;\\Mac\Home\Documents\Studium\6. Semester\Bachelorarbeit\Code\PerformanceTests\Enclave\PerformanceTests_t.c:730.2
$LN2889:
        je        .B16.45       ; Prob 50%                      ;\\Mac\Home\Documents\Studium\6. Semester\Bachelorarbeit\Code\PerformanceTests\Enclave\PerformanceTests_t.c:730.2
$LN2890:
                                ; LOE rbp rsp r12 r13 r14 r15 rip zmm6 zmm7 zmm8 zmm9 zmm10 zmm11 zmm12 zmm13 zmm14 zmm15
.B16.44::                       ; Preds .B16.43
                                ; Execution count [0.00e+000]
$LN2891:
        mov       rax, QWORD PTR [120+rbp]                      ;\\Mac\Home\Documents\Studium\6. Semester\Bachelorarbeit\Code\PerformanceTests\Enclave\PerformanceTests_t.c:730.14
$LN2892:
        mov       rcx, rax                                      ;\\Mac\Home\Documents\Studium\6. Semester\Bachelorarbeit\Code\PerformanceTests\Enclave\PerformanceTests_t.c:730.14
$LN2893:
;       free(void *)
        call      free                                          ;\\Mac\Home\Documents\Studium\6. Semester\Bachelorarbeit\Code\PerformanceTests\Enclave\PerformanceTests_t.c:730.14
$LN2894:
                                ; LOE rbp rsp r12 r13 r14 r15 rip zmm6 zmm7 zmm8 zmm9 zmm10 zmm11 zmm12 zmm13 zmm14 zmm15
.B16.61::                       ; Preds .B16.44
                                ; Execution count [0.00e+000]
$LN2895:
                                ; LOE rbp rsp r12 r13 r14 r15 rip zmm6 zmm7 zmm8 zmm9 zmm10 zmm11 zmm12 zmm13 zmm14 zmm15
.B16.45::                       ; Preds .B16.61 .B16.43
                                ; Execution count [0.00e+000]
$LN2896:

;;; 
;;; 	return status;

        mov       eax, DWORD PTR [rbp]                          ;\\Mac\Home\Documents\Studium\6. Semester\Bachelorarbeit\Code\PerformanceTests\Enclave\PerformanceTests_t.c:732.2
$LN2897:
        mov       rbx, QWORD PTR [184+rbp]                      ;\\Mac\Home\Documents\Studium\6. Semester\Bachelorarbeit\Code\PerformanceTests\Enclave\PerformanceTests_t.c:732.2[spill]
$LN2898:
        mov       rsi, QWORD PTR [192+rbp]                      ;\\Mac\Home\Documents\Studium\6. Semester\Bachelorarbeit\Code\PerformanceTests\Enclave\PerformanceTests_t.c:732.2[spill]
$LN2899:
        mov       rdi, QWORD PTR [200+rbp]                      ;\\Mac\Home\Documents\Studium\6. Semester\Bachelorarbeit\Code\PerformanceTests\Enclave\PerformanceTests_t.c:732.2[spill]
$LN2900:
        lea       rsp, QWORD PTR [208+rbp]                      ;\\Mac\Home\Documents\Studium\6. Semester\Bachelorarbeit\Code\PerformanceTests\Enclave\PerformanceTests_t.c:732.2
$LN2901:
        pop       rbp                                           ;\\Mac\Home\Documents\Studium\6. Semester\Bachelorarbeit\Code\PerformanceTests\Enclave\PerformanceTests_t.c:732.2
$LN2902:
        ret                                                     ;\\Mac\Home\Documents\Studium\6. Semester\Bachelorarbeit\Code\PerformanceTests\Enclave\PerformanceTests_t.c:732.2
$LN2903:
                                ; LOE
.B16.46::
$LN2904:
; mark_end;
sgx_encryptBytes ENDP
$LNsgx_encryptBytes$2905:
_TEXT	ENDS
.xdata	SEGMENT  DWORD   READ  ''
	ALIGN 004H
.unwind.sgx_encryptBytes.B1_B45	DD	889856513
	DD	1913890
	DD	1991707
	DD	2061332
	DD	17302285
	DD	1342242848
.xdata	ENDS
.pdata	SEGMENT  DWORD   READ  ''
	ALIGN 004H
.pdata.sgx_encryptBytes.B1_B45	DD	imagerel .B16.1
	DD	imagerel .B16.46
	DD	imagerel .unwind.sgx_encryptBytes.B1_B45
.pdata	ENDS
_DATA	SEGMENT      'DATA'
_DATA	ENDS
; -- End  sgx_encryptBytes
_TEXT	SEGMENT      'CODE'
_2__routine_start_sgx_decryptBytes_16:
; -- Begin  sgx_decryptBytes
_TEXT	ENDS
_TEXT	SEGMENT      'CODE'
; mark_begin;

; --- sgx_decryptBytes(void *)
sgx_decryptBytes	PROC PRIVATE
; parameter 1(pms): rcx
.B17.1::                        ; Preds .B17.0
                                ; Execution count [0.00e+000]

;;; {

L135::
                                                         ;\\Mac\Home\Documents\Studium\6. Semester\Bachelorarbeit\Code\PerformanceTests\Enclave\PerformanceTests_t.c:736.1
$LN2906:
        push      rbp                                           ;\\Mac\Home\Documents\Studium\6. Semester\Bachelorarbeit\Code\PerformanceTests\Enclave\PerformanceTests_t.c:736.1
$LN2907:
        sub       rsp, 256                                      ;\\Mac\Home\Documents\Studium\6. Semester\Bachelorarbeit\Code\PerformanceTests\Enclave\PerformanceTests_t.c:736.1
$LN2908:
        lea       rbp, QWORD PTR [48+rsp]                       ;\\Mac\Home\Documents\Studium\6. Semester\Bachelorarbeit\Code\PerformanceTests\Enclave\PerformanceTests_t.c:736.1
$LN2909:
        mov       QWORD PTR [200+rbp], rdi                      ;\\Mac\Home\Documents\Studium\6. Semester\Bachelorarbeit\Code\PerformanceTests\Enclave\PerformanceTests_t.c:736.1[spill]
$LN2910:
        mov       QWORD PTR [192+rbp], rsi                      ;\\Mac\Home\Documents\Studium\6. Semester\Bachelorarbeit\Code\PerformanceTests\Enclave\PerformanceTests_t.c:736.1[spill]
$LN2911:
        mov       QWORD PTR [184+rbp], rbx                      ;\\Mac\Home\Documents\Studium\6. Semester\Bachelorarbeit\Code\PerformanceTests\Enclave\PerformanceTests_t.c:736.1[spill]
$LN2912:
        mov       QWORD PTR [224+rbp], rcx                      ;\\Mac\Home\Documents\Studium\6. Semester\Bachelorarbeit\Code\PerformanceTests\Enclave\PerformanceTests_t.c:736.1
$LN2913:

;;; 	ms_decryptBytes_t* ms = SGX_CAST(ms_decryptBytes_t*, pms);

        mov       rax, QWORD PTR [224+rbp]                      ;\\Mac\Home\Documents\Studium\6. Semester\Bachelorarbeit\Code\PerformanceTests\Enclave\PerformanceTests_t.c:737.24
$LN2914:
        mov       QWORD PTR [24+rbp], rax                       ;\\Mac\Home\Documents\Studium\6. Semester\Bachelorarbeit\Code\PerformanceTests\Enclave\PerformanceTests_t.c:737.24
$LN2915:

;;; 	sgx_status_t status = SGX_SUCCESS;

        mov       DWORD PTR [rbp], 0                            ;\\Mac\Home\Documents\Studium\6. Semester\Bachelorarbeit\Code\PerformanceTests\Enclave\PerformanceTests_t.c:738.22
$LN2916:

;;; 	uint8_t* _tmp_input = ms->ms_input;

        mov       rax, QWORD PTR [24+rbp]                       ;\\Mac\Home\Documents\Studium\6. Semester\Bachelorarbeit\Code\PerformanceTests\Enclave\PerformanceTests_t.c:739.22
$LN2917:
        mov       rax, QWORD PTR [8+rax]                        ;\\Mac\Home\Documents\Studium\6. Semester\Bachelorarbeit\Code\PerformanceTests\Enclave\PerformanceTests_t.c:739.22
$LN2918:
        mov       QWORD PTR [32+rbp], rax                       ;\\Mac\Home\Documents\Studium\6. Semester\Bachelorarbeit\Code\PerformanceTests\Enclave\PerformanceTests_t.c:739.22
$LN2919:

;;; 	size_t _tmp_length = ms->ms_length;

        mov       rax, QWORD PTR [24+rbp]                       ;\\Mac\Home\Documents\Studium\6. Semester\Bachelorarbeit\Code\PerformanceTests\Enclave\PerformanceTests_t.c:740.21
$LN2920:
        mov       rax, QWORD PTR [16+rax]                       ;\\Mac\Home\Documents\Studium\6. Semester\Bachelorarbeit\Code\PerformanceTests\Enclave\PerformanceTests_t.c:740.21
$LN2921:
        mov       QWORD PTR [40+rbp], rax                       ;\\Mac\Home\Documents\Studium\6. Semester\Bachelorarbeit\Code\PerformanceTests\Enclave\PerformanceTests_t.c:740.21
$LN2922:

;;; 	size_t _len_input = _tmp_length;

        mov       rax, QWORD PTR [40+rbp]                       ;\\Mac\Home\Documents\Studium\6. Semester\Bachelorarbeit\Code\PerformanceTests\Enclave\PerformanceTests_t.c:741.20
$LN2923:
        mov       QWORD PTR [48+rbp], rax                       ;\\Mac\Home\Documents\Studium\6. Semester\Bachelorarbeit\Code\PerformanceTests\Enclave\PerformanceTests_t.c:741.20
$LN2924:

;;; 	uint8_t* _in_input = NULL;

        mov       QWORD PTR [56+rbp], 0                         ;\\Mac\Home\Documents\Studium\6. Semester\Bachelorarbeit\Code\PerformanceTests\Enclave\PerformanceTests_t.c:742.21
$LN2925:

;;; 	uint8_t* _tmp_output = ms->ms_output;

        mov       rax, QWORD PTR [24+rbp]                       ;\\Mac\Home\Documents\Studium\6. Semester\Bachelorarbeit\Code\PerformanceTests\Enclave\PerformanceTests_t.c:743.23
$LN2926:
        mov       rax, QWORD PTR [24+rax]                       ;\\Mac\Home\Documents\Studium\6. Semester\Bachelorarbeit\Code\PerformanceTests\Enclave\PerformanceTests_t.c:743.23
$LN2927:
        mov       QWORD PTR [64+rbp], rax                       ;\\Mac\Home\Documents\Studium\6. Semester\Bachelorarbeit\Code\PerformanceTests\Enclave\PerformanceTests_t.c:743.23
$LN2928:

;;; 	uint8_t* _tmp_key = ms->ms_key;

        mov       rax, QWORD PTR [24+rbp]                       ;\\Mac\Home\Documents\Studium\6. Semester\Bachelorarbeit\Code\PerformanceTests\Enclave\PerformanceTests_t.c:744.20
$LN2929:
        mov       rax, QWORD PTR [32+rax]                       ;\\Mac\Home\Documents\Studium\6. Semester\Bachelorarbeit\Code\PerformanceTests\Enclave\PerformanceTests_t.c:744.20
$LN2930:
        mov       QWORD PTR [72+rbp], rax                       ;\\Mac\Home\Documents\Studium\6. Semester\Bachelorarbeit\Code\PerformanceTests\Enclave\PerformanceTests_t.c:744.20
$LN2931:

;;; 	size_t _tmp_keyLength = ms->ms_keyLength;

        mov       rax, QWORD PTR [24+rbp]                       ;\\Mac\Home\Documents\Studium\6. Semester\Bachelorarbeit\Code\PerformanceTests\Enclave\PerformanceTests_t.c:745.24
$LN2932:
        mov       rax, QWORD PTR [40+rax]                       ;\\Mac\Home\Documents\Studium\6. Semester\Bachelorarbeit\Code\PerformanceTests\Enclave\PerformanceTests_t.c:745.24
$LN2933:
        mov       QWORD PTR [80+rbp], rax                       ;\\Mac\Home\Documents\Studium\6. Semester\Bachelorarbeit\Code\PerformanceTests\Enclave\PerformanceTests_t.c:745.24
$LN2934:

;;; 	size_t _len_key = _tmp_keyLength;

        mov       rax, QWORD PTR [80+rbp]                       ;\\Mac\Home\Documents\Studium\6. Semester\Bachelorarbeit\Code\PerformanceTests\Enclave\PerformanceTests_t.c:746.18
$LN2935:
        mov       QWORD PTR [88+rbp], rax                       ;\\Mac\Home\Documents\Studium\6. Semester\Bachelorarbeit\Code\PerformanceTests\Enclave\PerformanceTests_t.c:746.18
$LN2936:

;;; 	uint8_t* _in_key = NULL;

        mov       QWORD PTR [96+rbp], 0                         ;\\Mac\Home\Documents\Studium\6. Semester\Bachelorarbeit\Code\PerformanceTests\Enclave\PerformanceTests_t.c:747.19
$LN2937:

;;; 	uint8_t* _tmp_iv = ms->ms_iv;

        mov       rax, QWORD PTR [24+rbp]                       ;\\Mac\Home\Documents\Studium\6. Semester\Bachelorarbeit\Code\PerformanceTests\Enclave\PerformanceTests_t.c:748.19
$LN2938:
        mov       rax, QWORD PTR [48+rax]                       ;\\Mac\Home\Documents\Studium\6. Semester\Bachelorarbeit\Code\PerformanceTests\Enclave\PerformanceTests_t.c:748.19
$LN2939:
        mov       QWORD PTR [104+rbp], rax                      ;\\Mac\Home\Documents\Studium\6. Semester\Bachelorarbeit\Code\PerformanceTests\Enclave\PerformanceTests_t.c:748.19
$LN2940:

;;; 	size_t _len_iv = 16;

        mov       QWORD PTR [112+rbp], 16                       ;\\Mac\Home\Documents\Studium\6. Semester\Bachelorarbeit\Code\PerformanceTests\Enclave\PerformanceTests_t.c:749.17
$LN2941:

;;; 	uint8_t* _in_iv = NULL;

        mov       QWORD PTR [120+rbp], 0                        ;\\Mac\Home\Documents\Studium\6. Semester\Bachelorarbeit\Code\PerformanceTests\Enclave\PerformanceTests_t.c:750.18
$LN2942:
                                ; LOE rbp rsp r12 r13 r14 r15 rip zmm6 zmm7 zmm8 zmm9 zmm10 zmm11 zmm12 zmm13 zmm14 zmm15
.B17.2::                        ; Preds .B17.5 .B17.1
                                ; Execution count [0.00e+000]
$LN2943:

;;; 
;;; 	CHECK_REF_POINTER(pms, sizeof(ms_decryptBytes_t));

        mov       rax, QWORD PTR [224+rbp]                      ;\\Mac\Home\Documents\Studium\6. Semester\Bachelorarbeit\Code\PerformanceTests\Enclave\PerformanceTests_t.c:752.2
$LN2944:
        test      rax, rax                                      ;\\Mac\Home\Documents\Studium\6. Semester\Bachelorarbeit\Code\PerformanceTests\Enclave\PerformanceTests_t.c:752.2
$LN2945:
        je        .B17.6        ; Prob 50%                      ;\\Mac\Home\Documents\Studium\6. Semester\Bachelorarbeit\Code\PerformanceTests\Enclave\PerformanceTests_t.c:752.2
$LN2946:
                                ; LOE rbp rsp r12 r13 r14 r15 rip zmm6 zmm7 zmm8 zmm9 zmm10 zmm11 zmm12 zmm13 zmm14 zmm15
.B17.3::                        ; Preds .B17.2
                                ; Execution count [0.00e+000]
$LN2947:
        mov       rax, QWORD PTR [224+rbp]                      ;\\Mac\Home\Documents\Studium\6. Semester\Bachelorarbeit\Code\PerformanceTests\Enclave\PerformanceTests_t.c:752.2
$LN2948:
        mov       edx, 56                                       ;\\Mac\Home\Documents\Studium\6. Semester\Bachelorarbeit\Code\PerformanceTests\Enclave\PerformanceTests_t.c:752.2
$LN2949:
        mov       rcx, rax                                      ;\\Mac\Home\Documents\Studium\6. Semester\Bachelorarbeit\Code\PerformanceTests\Enclave\PerformanceTests_t.c:752.2
$LN2950:
;       sgx_is_outside_enclave(const void *, size_t)
        call      sgx_is_outside_enclave                        ;\\Mac\Home\Documents\Studium\6. Semester\Bachelorarbeit\Code\PerformanceTests\Enclave\PerformanceTests_t.c:752.2
$LN2951:
                                ; LOE rbp rsp r12 r13 r14 r15 rip eax zmm6 zmm7 zmm8 zmm9 zmm10 zmm11 zmm12 zmm13 zmm14 zmm15
.B17.48::                       ; Preds .B17.3
                                ; Execution count [0.00e+000]
$LN2952:
        mov       DWORD PTR [4+rbp], eax                        ;\\Mac\Home\Documents\Studium\6. Semester\Bachelorarbeit\Code\PerformanceTests\Enclave\PerformanceTests_t.c:752.2
$LN2953:
                                ; LOE rbp rsp r12 r13 r14 r15 rip zmm6 zmm7 zmm8 zmm9 zmm10 zmm11 zmm12 zmm13 zmm14 zmm15
.B17.4::                        ; Preds .B17.48
                                ; Execution count [0.00e+000]
$LN2954:
        mov       eax, DWORD PTR [4+rbp]                        ;\\Mac\Home\Documents\Studium\6. Semester\Bachelorarbeit\Code\PerformanceTests\Enclave\PerformanceTests_t.c:752.2
$LN2955:
        test      eax, eax                                      ;\\Mac\Home\Documents\Studium\6. Semester\Bachelorarbeit\Code\PerformanceTests\Enclave\PerformanceTests_t.c:752.2
$LN2956:
        je        .B17.6        ; Prob 50%                      ;\\Mac\Home\Documents\Studium\6. Semester\Bachelorarbeit\Code\PerformanceTests\Enclave\PerformanceTests_t.c:752.2
$LN2957:
                                ; LOE rbp rsp r12 r13 r14 r15 rip zmm6 zmm7 zmm8 zmm9 zmm10 zmm11 zmm12 zmm13 zmm14 zmm15
.B17.5::                        ; Preds .B17.4
                                ; Execution count [0.00e+000]
$LN2958:
        mov       eax, 0                                        ;\\Mac\Home\Documents\Studium\6. Semester\Bachelorarbeit\Code\PerformanceTests\Enclave\PerformanceTests_t.c:752.2
$LN2959:
        test      eax, eax                                      ;\\Mac\Home\Documents\Studium\6. Semester\Bachelorarbeit\Code\PerformanceTests\Enclave\PerformanceTests_t.c:752.2
$LN2960:
        jne       .B17.2        ; Prob 0%                       ;\\Mac\Home\Documents\Studium\6. Semester\Bachelorarbeit\Code\PerformanceTests\Enclave\PerformanceTests_t.c:752.2
$LN2961:
        jmp       .B17.7        ; Prob 100%                     ;\\Mac\Home\Documents\Studium\6. Semester\Bachelorarbeit\Code\PerformanceTests\Enclave\PerformanceTests_t.c:752.2
$LN2962:
                                ; LOE rbp rsp r12 r13 r14 r15 rip zmm6 zmm7 zmm8 zmm9 zmm10 zmm11 zmm12 zmm13 zmm14 zmm15
.B17.6::                        ; Preds .B17.2 .B17.4
                                ; Execution count [0.00e+000]
$LN2963:
        mov       eax, 2                                        ;\\Mac\Home\Documents\Studium\6. Semester\Bachelorarbeit\Code\PerformanceTests\Enclave\PerformanceTests_t.c:752.2
$LN2964:
        mov       rbx, QWORD PTR [184+rbp]                      ;\\Mac\Home\Documents\Studium\6. Semester\Bachelorarbeit\Code\PerformanceTests\Enclave\PerformanceTests_t.c:752.2[spill]
$LN2965:
        mov       rsi, QWORD PTR [192+rbp]                      ;\\Mac\Home\Documents\Studium\6. Semester\Bachelorarbeit\Code\PerformanceTests\Enclave\PerformanceTests_t.c:752.2[spill]
$LN2966:
        mov       rdi, QWORD PTR [200+rbp]                      ;\\Mac\Home\Documents\Studium\6. Semester\Bachelorarbeit\Code\PerformanceTests\Enclave\PerformanceTests_t.c:752.2[spill]
$LN2967:
        lea       rsp, QWORD PTR [208+rbp]                      ;\\Mac\Home\Documents\Studium\6. Semester\Bachelorarbeit\Code\PerformanceTests\Enclave\PerformanceTests_t.c:752.2
$LN2968:
        pop       rbp                                           ;\\Mac\Home\Documents\Studium\6. Semester\Bachelorarbeit\Code\PerformanceTests\Enclave\PerformanceTests_t.c:752.2
$LN2969:
        ret                                                     ;\\Mac\Home\Documents\Studium\6. Semester\Bachelorarbeit\Code\PerformanceTests\Enclave\PerformanceTests_t.c:752.2
$LN2970:
                                ; LOE
.B17.7::                        ; Preds .B17.10 .B17.5
                                ; Execution count [0.00e+000]
$LN2971:

;;; 	CHECK_UNIQUE_POINTER(_tmp_input, _len_input);

        mov       rax, QWORD PTR [32+rbp]                       ;\\Mac\Home\Documents\Studium\6. Semester\Bachelorarbeit\Code\PerformanceTests\Enclave\PerformanceTests_t.c:753.2
$LN2972:
        test      rax, rax                                      ;\\Mac\Home\Documents\Studium\6. Semester\Bachelorarbeit\Code\PerformanceTests\Enclave\PerformanceTests_t.c:753.2
$LN2973:
        je        .B17.10       ; Prob 50%                      ;\\Mac\Home\Documents\Studium\6. Semester\Bachelorarbeit\Code\PerformanceTests\Enclave\PerformanceTests_t.c:753.2
$LN2974:
                                ; LOE rbp rsp r12 r13 r14 r15 rip zmm6 zmm7 zmm8 zmm9 zmm10 zmm11 zmm12 zmm13 zmm14 zmm15
.B17.8::                        ; Preds .B17.7
                                ; Execution count [0.00e+000]
$LN2975:
        mov       rax, QWORD PTR [32+rbp]                       ;\\Mac\Home\Documents\Studium\6. Semester\Bachelorarbeit\Code\PerformanceTests\Enclave\PerformanceTests_t.c:753.2
$LN2976:
        mov       rdx, QWORD PTR [48+rbp]                       ;\\Mac\Home\Documents\Studium\6. Semester\Bachelorarbeit\Code\PerformanceTests\Enclave\PerformanceTests_t.c:753.2
$LN2977:
        mov       rcx, rax                                      ;\\Mac\Home\Documents\Studium\6. Semester\Bachelorarbeit\Code\PerformanceTests\Enclave\PerformanceTests_t.c:753.2
$LN2978:
;       sgx_is_outside_enclave(const void *, size_t)
        call      sgx_is_outside_enclave                        ;\\Mac\Home\Documents\Studium\6. Semester\Bachelorarbeit\Code\PerformanceTests\Enclave\PerformanceTests_t.c:753.2
$LN2979:
                                ; LOE rbp rsp r12 r13 r14 r15 rip eax zmm6 zmm7 zmm8 zmm9 zmm10 zmm11 zmm12 zmm13 zmm14 zmm15
.B17.49::                       ; Preds .B17.8
                                ; Execution count [0.00e+000]
$LN2980:
        mov       DWORD PTR [8+rbp], eax                        ;\\Mac\Home\Documents\Studium\6. Semester\Bachelorarbeit\Code\PerformanceTests\Enclave\PerformanceTests_t.c:753.2
$LN2981:
                                ; LOE rbp rsp r12 r13 r14 r15 rip zmm6 zmm7 zmm8 zmm9 zmm10 zmm11 zmm12 zmm13 zmm14 zmm15
.B17.9::                        ; Preds .B17.49
                                ; Execution count [0.00e+000]
$LN2982:
        mov       eax, DWORD PTR [8+rbp]                        ;\\Mac\Home\Documents\Studium\6. Semester\Bachelorarbeit\Code\PerformanceTests\Enclave\PerformanceTests_t.c:753.2
$LN2983:
        test      eax, eax                                      ;\\Mac\Home\Documents\Studium\6. Semester\Bachelorarbeit\Code\PerformanceTests\Enclave\PerformanceTests_t.c:753.2
$LN2984:
        je        .B17.11       ; Prob 50%                      ;\\Mac\Home\Documents\Studium\6. Semester\Bachelorarbeit\Code\PerformanceTests\Enclave\PerformanceTests_t.c:753.2
$LN2985:
                                ; LOE rbp rsp r12 r13 r14 r15 rip zmm6 zmm7 zmm8 zmm9 zmm10 zmm11 zmm12 zmm13 zmm14 zmm15
.B17.10::                       ; Preds .B17.9 .B17.7
                                ; Execution count [0.00e+000]
$LN2986:
        mov       eax, 0                                        ;\\Mac\Home\Documents\Studium\6. Semester\Bachelorarbeit\Code\PerformanceTests\Enclave\PerformanceTests_t.c:753.2
$LN2987:
        test      eax, eax                                      ;\\Mac\Home\Documents\Studium\6. Semester\Bachelorarbeit\Code\PerformanceTests\Enclave\PerformanceTests_t.c:753.2
$LN2988:
        jne       .B17.7        ; Prob 0%                       ;\\Mac\Home\Documents\Studium\6. Semester\Bachelorarbeit\Code\PerformanceTests\Enclave\PerformanceTests_t.c:753.2
$LN2989:
        jmp       .B17.12       ; Prob 100%                     ;\\Mac\Home\Documents\Studium\6. Semester\Bachelorarbeit\Code\PerformanceTests\Enclave\PerformanceTests_t.c:753.2
$LN2990:
                                ; LOE rbp rsp r12 r13 r14 r15 rip zmm6 zmm7 zmm8 zmm9 zmm10 zmm11 zmm12 zmm13 zmm14 zmm15
.B17.11::                       ; Preds .B17.9
                                ; Execution count [0.00e+000]
$LN2991:
        mov       eax, 2                                        ;\\Mac\Home\Documents\Studium\6. Semester\Bachelorarbeit\Code\PerformanceTests\Enclave\PerformanceTests_t.c:753.2
$LN2992:
        mov       rbx, QWORD PTR [184+rbp]                      ;\\Mac\Home\Documents\Studium\6. Semester\Bachelorarbeit\Code\PerformanceTests\Enclave\PerformanceTests_t.c:753.2[spill]
$LN2993:
        mov       rsi, QWORD PTR [192+rbp]                      ;\\Mac\Home\Documents\Studium\6. Semester\Bachelorarbeit\Code\PerformanceTests\Enclave\PerformanceTests_t.c:753.2[spill]
$LN2994:
        mov       rdi, QWORD PTR [200+rbp]                      ;\\Mac\Home\Documents\Studium\6. Semester\Bachelorarbeit\Code\PerformanceTests\Enclave\PerformanceTests_t.c:753.2[spill]
$LN2995:
        lea       rsp, QWORD PTR [208+rbp]                      ;\\Mac\Home\Documents\Studium\6. Semester\Bachelorarbeit\Code\PerformanceTests\Enclave\PerformanceTests_t.c:753.2
$LN2996:
        pop       rbp                                           ;\\Mac\Home\Documents\Studium\6. Semester\Bachelorarbeit\Code\PerformanceTests\Enclave\PerformanceTests_t.c:753.2
$LN2997:
        ret                                                     ;\\Mac\Home\Documents\Studium\6. Semester\Bachelorarbeit\Code\PerformanceTests\Enclave\PerformanceTests_t.c:753.2
$LN2998:
                                ; LOE
.B17.12::                       ; Preds .B17.15 .B17.10
                                ; Execution count [0.00e+000]
$LN2999:

;;; 	CHECK_UNIQUE_POINTER(_tmp_key, _len_key);

        mov       rax, QWORD PTR [72+rbp]                       ;\\Mac\Home\Documents\Studium\6. Semester\Bachelorarbeit\Code\PerformanceTests\Enclave\PerformanceTests_t.c:754.2
$LN3000:
        test      rax, rax                                      ;\\Mac\Home\Documents\Studium\6. Semester\Bachelorarbeit\Code\PerformanceTests\Enclave\PerformanceTests_t.c:754.2
$LN3001:
        je        .B17.15       ; Prob 50%                      ;\\Mac\Home\Documents\Studium\6. Semester\Bachelorarbeit\Code\PerformanceTests\Enclave\PerformanceTests_t.c:754.2
$LN3002:
                                ; LOE rbp rsp r12 r13 r14 r15 rip zmm6 zmm7 zmm8 zmm9 zmm10 zmm11 zmm12 zmm13 zmm14 zmm15
.B17.13::                       ; Preds .B17.12
                                ; Execution count [0.00e+000]
$LN3003:
        mov       rax, QWORD PTR [72+rbp]                       ;\\Mac\Home\Documents\Studium\6. Semester\Bachelorarbeit\Code\PerformanceTests\Enclave\PerformanceTests_t.c:754.2
$LN3004:
        mov       rdx, QWORD PTR [88+rbp]                       ;\\Mac\Home\Documents\Studium\6. Semester\Bachelorarbeit\Code\PerformanceTests\Enclave\PerformanceTests_t.c:754.2
$LN3005:
        mov       rcx, rax                                      ;\\Mac\Home\Documents\Studium\6. Semester\Bachelorarbeit\Code\PerformanceTests\Enclave\PerformanceTests_t.c:754.2
$LN3006:
;       sgx_is_outside_enclave(const void *, size_t)
        call      sgx_is_outside_enclave                        ;\\Mac\Home\Documents\Studium\6. Semester\Bachelorarbeit\Code\PerformanceTests\Enclave\PerformanceTests_t.c:754.2
$LN3007:
                                ; LOE rbp rsp r12 r13 r14 r15 rip eax zmm6 zmm7 zmm8 zmm9 zmm10 zmm11 zmm12 zmm13 zmm14 zmm15
.B17.50::                       ; Preds .B17.13
                                ; Execution count [0.00e+000]
$LN3008:
        mov       DWORD PTR [12+rbp], eax                       ;\\Mac\Home\Documents\Studium\6. Semester\Bachelorarbeit\Code\PerformanceTests\Enclave\PerformanceTests_t.c:754.2
$LN3009:
                                ; LOE rbp rsp r12 r13 r14 r15 rip zmm6 zmm7 zmm8 zmm9 zmm10 zmm11 zmm12 zmm13 zmm14 zmm15
.B17.14::                       ; Preds .B17.50
                                ; Execution count [0.00e+000]
$LN3010:
        mov       eax, DWORD PTR [12+rbp]                       ;\\Mac\Home\Documents\Studium\6. Semester\Bachelorarbeit\Code\PerformanceTests\Enclave\PerformanceTests_t.c:754.2
$LN3011:
        test      eax, eax                                      ;\\Mac\Home\Documents\Studium\6. Semester\Bachelorarbeit\Code\PerformanceTests\Enclave\PerformanceTests_t.c:754.2
$LN3012:
        je        .B17.16       ; Prob 50%                      ;\\Mac\Home\Documents\Studium\6. Semester\Bachelorarbeit\Code\PerformanceTests\Enclave\PerformanceTests_t.c:754.2
$LN3013:
                                ; LOE rbp rsp r12 r13 r14 r15 rip zmm6 zmm7 zmm8 zmm9 zmm10 zmm11 zmm12 zmm13 zmm14 zmm15
.B17.15::                       ; Preds .B17.14 .B17.12
                                ; Execution count [0.00e+000]
$LN3014:
        mov       eax, 0                                        ;\\Mac\Home\Documents\Studium\6. Semester\Bachelorarbeit\Code\PerformanceTests\Enclave\PerformanceTests_t.c:754.2
$LN3015:
        test      eax, eax                                      ;\\Mac\Home\Documents\Studium\6. Semester\Bachelorarbeit\Code\PerformanceTests\Enclave\PerformanceTests_t.c:754.2
$LN3016:
        jne       .B17.12       ; Prob 0%                       ;\\Mac\Home\Documents\Studium\6. Semester\Bachelorarbeit\Code\PerformanceTests\Enclave\PerformanceTests_t.c:754.2
$LN3017:
        jmp       .B17.17       ; Prob 100%                     ;\\Mac\Home\Documents\Studium\6. Semester\Bachelorarbeit\Code\PerformanceTests\Enclave\PerformanceTests_t.c:754.2
$LN3018:
                                ; LOE rbp rsp r12 r13 r14 r15 rip zmm6 zmm7 zmm8 zmm9 zmm10 zmm11 zmm12 zmm13 zmm14 zmm15
.B17.16::                       ; Preds .B17.14
                                ; Execution count [0.00e+000]
$LN3019:
        mov       eax, 2                                        ;\\Mac\Home\Documents\Studium\6. Semester\Bachelorarbeit\Code\PerformanceTests\Enclave\PerformanceTests_t.c:754.2
$LN3020:
        mov       rbx, QWORD PTR [184+rbp]                      ;\\Mac\Home\Documents\Studium\6. Semester\Bachelorarbeit\Code\PerformanceTests\Enclave\PerformanceTests_t.c:754.2[spill]
$LN3021:
        mov       rsi, QWORD PTR [192+rbp]                      ;\\Mac\Home\Documents\Studium\6. Semester\Bachelorarbeit\Code\PerformanceTests\Enclave\PerformanceTests_t.c:754.2[spill]
$LN3022:
        mov       rdi, QWORD PTR [200+rbp]                      ;\\Mac\Home\Documents\Studium\6. Semester\Bachelorarbeit\Code\PerformanceTests\Enclave\PerformanceTests_t.c:754.2[spill]
$LN3023:
        lea       rsp, QWORD PTR [208+rbp]                      ;\\Mac\Home\Documents\Studium\6. Semester\Bachelorarbeit\Code\PerformanceTests\Enclave\PerformanceTests_t.c:754.2
$LN3024:
        pop       rbp                                           ;\\Mac\Home\Documents\Studium\6. Semester\Bachelorarbeit\Code\PerformanceTests\Enclave\PerformanceTests_t.c:754.2
$LN3025:
        ret                                                     ;\\Mac\Home\Documents\Studium\6. Semester\Bachelorarbeit\Code\PerformanceTests\Enclave\PerformanceTests_t.c:754.2
$LN3026:
                                ; LOE
.B17.17::                       ; Preds .B17.20 .B17.15
                                ; Execution count [0.00e+000]
$LN3027:

;;; 	CHECK_UNIQUE_POINTER(_tmp_iv, _len_iv);

        mov       rax, QWORD PTR [104+rbp]                      ;\\Mac\Home\Documents\Studium\6. Semester\Bachelorarbeit\Code\PerformanceTests\Enclave\PerformanceTests_t.c:755.2
$LN3028:
        test      rax, rax                                      ;\\Mac\Home\Documents\Studium\6. Semester\Bachelorarbeit\Code\PerformanceTests\Enclave\PerformanceTests_t.c:755.2
$LN3029:
        je        .B17.20       ; Prob 50%                      ;\\Mac\Home\Documents\Studium\6. Semester\Bachelorarbeit\Code\PerformanceTests\Enclave\PerformanceTests_t.c:755.2
$LN3030:
                                ; LOE rbp rsp r12 r13 r14 r15 rip zmm6 zmm7 zmm8 zmm9 zmm10 zmm11 zmm12 zmm13 zmm14 zmm15
.B17.18::                       ; Preds .B17.17
                                ; Execution count [0.00e+000]
$LN3031:
        mov       rax, QWORD PTR [104+rbp]                      ;\\Mac\Home\Documents\Studium\6. Semester\Bachelorarbeit\Code\PerformanceTests\Enclave\PerformanceTests_t.c:755.2
$LN3032:
        mov       rdx, QWORD PTR [112+rbp]                      ;\\Mac\Home\Documents\Studium\6. Semester\Bachelorarbeit\Code\PerformanceTests\Enclave\PerformanceTests_t.c:755.2
$LN3033:
        mov       rcx, rax                                      ;\\Mac\Home\Documents\Studium\6. Semester\Bachelorarbeit\Code\PerformanceTests\Enclave\PerformanceTests_t.c:755.2
$LN3034:
;       sgx_is_outside_enclave(const void *, size_t)
        call      sgx_is_outside_enclave                        ;\\Mac\Home\Documents\Studium\6. Semester\Bachelorarbeit\Code\PerformanceTests\Enclave\PerformanceTests_t.c:755.2
$LN3035:
                                ; LOE rbp rsp r12 r13 r14 r15 rip eax zmm6 zmm7 zmm8 zmm9 zmm10 zmm11 zmm12 zmm13 zmm14 zmm15
.B17.51::                       ; Preds .B17.18
                                ; Execution count [0.00e+000]
$LN3036:
        mov       DWORD PTR [16+rbp], eax                       ;\\Mac\Home\Documents\Studium\6. Semester\Bachelorarbeit\Code\PerformanceTests\Enclave\PerformanceTests_t.c:755.2
$LN3037:
                                ; LOE rbp rsp r12 r13 r14 r15 rip zmm6 zmm7 zmm8 zmm9 zmm10 zmm11 zmm12 zmm13 zmm14 zmm15
.B17.19::                       ; Preds .B17.51
                                ; Execution count [0.00e+000]
$LN3038:
        mov       eax, DWORD PTR [16+rbp]                       ;\\Mac\Home\Documents\Studium\6. Semester\Bachelorarbeit\Code\PerformanceTests\Enclave\PerformanceTests_t.c:755.2
$LN3039:
        test      eax, eax                                      ;\\Mac\Home\Documents\Studium\6. Semester\Bachelorarbeit\Code\PerformanceTests\Enclave\PerformanceTests_t.c:755.2
$LN3040:
        je        .B17.21       ; Prob 50%                      ;\\Mac\Home\Documents\Studium\6. Semester\Bachelorarbeit\Code\PerformanceTests\Enclave\PerformanceTests_t.c:755.2
$LN3041:
                                ; LOE rbp rsp r12 r13 r14 r15 rip zmm6 zmm7 zmm8 zmm9 zmm10 zmm11 zmm12 zmm13 zmm14 zmm15
.B17.20::                       ; Preds .B17.19 .B17.17
                                ; Execution count [0.00e+000]
$LN3042:
        mov       eax, 0                                        ;\\Mac\Home\Documents\Studium\6. Semester\Bachelorarbeit\Code\PerformanceTests\Enclave\PerformanceTests_t.c:755.2
$LN3043:
        test      eax, eax                                      ;\\Mac\Home\Documents\Studium\6. Semester\Bachelorarbeit\Code\PerformanceTests\Enclave\PerformanceTests_t.c:755.2
$LN3044:
        jne       .B17.17       ; Prob 0%                       ;\\Mac\Home\Documents\Studium\6. Semester\Bachelorarbeit\Code\PerformanceTests\Enclave\PerformanceTests_t.c:755.2
$LN3045:
        jmp       .B17.22       ; Prob 100%                     ;\\Mac\Home\Documents\Studium\6. Semester\Bachelorarbeit\Code\PerformanceTests\Enclave\PerformanceTests_t.c:755.2
$LN3046:
                                ; LOE rbp rsp r12 r13 r14 r15 rip zmm6 zmm7 zmm8 zmm9 zmm10 zmm11 zmm12 zmm13 zmm14 zmm15
.B17.21::                       ; Preds .B17.19
                                ; Execution count [0.00e+000]
$LN3047:
        mov       eax, 2                                        ;\\Mac\Home\Documents\Studium\6. Semester\Bachelorarbeit\Code\PerformanceTests\Enclave\PerformanceTests_t.c:755.2
$LN3048:
        mov       rbx, QWORD PTR [184+rbp]                      ;\\Mac\Home\Documents\Studium\6. Semester\Bachelorarbeit\Code\PerformanceTests\Enclave\PerformanceTests_t.c:755.2[spill]
$LN3049:
        mov       rsi, QWORD PTR [192+rbp]                      ;\\Mac\Home\Documents\Studium\6. Semester\Bachelorarbeit\Code\PerformanceTests\Enclave\PerformanceTests_t.c:755.2[spill]
$LN3050:
        mov       rdi, QWORD PTR [200+rbp]                      ;\\Mac\Home\Documents\Studium\6. Semester\Bachelorarbeit\Code\PerformanceTests\Enclave\PerformanceTests_t.c:755.2[spill]
$LN3051:
        lea       rsp, QWORD PTR [208+rbp]                      ;\\Mac\Home\Documents\Studium\6. Semester\Bachelorarbeit\Code\PerformanceTests\Enclave\PerformanceTests_t.c:755.2
$LN3052:
        pop       rbp                                           ;\\Mac\Home\Documents\Studium\6. Semester\Bachelorarbeit\Code\PerformanceTests\Enclave\PerformanceTests_t.c:755.2
$LN3053:
        ret                                                     ;\\Mac\Home\Documents\Studium\6. Semester\Bachelorarbeit\Code\PerformanceTests\Enclave\PerformanceTests_t.c:755.2
$LN3054:
                                ; LOE
.B17.22::                       ; Preds .B17.20
                                ; Execution count [0.00e+000]
$LN3055:

;;; 
;;; 	if (_tmp_input != NULL) {

        mov       rax, QWORD PTR [32+rbp]                       ;\\Mac\Home\Documents\Studium\6. Semester\Bachelorarbeit\Code\PerformanceTests\Enclave\PerformanceTests_t.c:757.2
$LN3056:
        test      rax, rax                                      ;\\Mac\Home\Documents\Studium\6. Semester\Bachelorarbeit\Code\PerformanceTests\Enclave\PerformanceTests_t.c:757.2
$LN3057:
        je        .B17.27       ; Prob 50%                      ;\\Mac\Home\Documents\Studium\6. Semester\Bachelorarbeit\Code\PerformanceTests\Enclave\PerformanceTests_t.c:757.2
$LN3058:
                                ; LOE rbp rsp r12 r13 r14 r15 rip zmm6 zmm7 zmm8 zmm9 zmm10 zmm11 zmm12 zmm13 zmm14 zmm15
.B17.23::                       ; Preds .B17.22
                                ; Execution count [0.00e+000]
$LN3059:

;;; 		_in_input = (uint8_t*)malloc(_len_input);

        mov       rax, QWORD PTR [48+rbp]                       ;\\Mac\Home\Documents\Studium\6. Semester\Bachelorarbeit\Code\PerformanceTests\Enclave\PerformanceTests_t.c:758.3
$LN3060:
        mov       rcx, rax                                      ;\\Mac\Home\Documents\Studium\6. Semester\Bachelorarbeit\Code\PerformanceTests\Enclave\PerformanceTests_t.c:758.3
$LN3061:
;       malloc(size_t)
        call      malloc                                        ;\\Mac\Home\Documents\Studium\6. Semester\Bachelorarbeit\Code\PerformanceTests\Enclave\PerformanceTests_t.c:758.3
$LN3062:
                                ; LOE rax rbp rsp r12 r13 r14 r15 rip zmm6 zmm7 zmm8 zmm9 zmm10 zmm11 zmm12 zmm13 zmm14 zmm15
.B17.52::                       ; Preds .B17.23
                                ; Execution count [0.00e+000]
$LN3063:
        mov       QWORD PTR [128+rbp], rax                      ;\\Mac\Home\Documents\Studium\6. Semester\Bachelorarbeit\Code\PerformanceTests\Enclave\PerformanceTests_t.c:758.3
$LN3064:
                                ; LOE rbp rsp r12 r13 r14 r15 rip zmm6 zmm7 zmm8 zmm9 zmm10 zmm11 zmm12 zmm13 zmm14 zmm15
.B17.24::                       ; Preds .B17.52
                                ; Execution count [0.00e+000]
$LN3065:
        mov       rax, QWORD PTR [128+rbp]                      ;\\Mac\Home\Documents\Studium\6. Semester\Bachelorarbeit\Code\PerformanceTests\Enclave\PerformanceTests_t.c:758.3
$LN3066:
        mov       QWORD PTR [56+rbp], rax                       ;\\Mac\Home\Documents\Studium\6. Semester\Bachelorarbeit\Code\PerformanceTests\Enclave\PerformanceTests_t.c:758.3
$LN3067:

;;; 		if (_in_input == NULL) {

        mov       rax, QWORD PTR [56+rbp]                       ;\\Mac\Home\Documents\Studium\6. Semester\Bachelorarbeit\Code\PerformanceTests\Enclave\PerformanceTests_t.c:759.3
$LN3068:
        test      rax, rax                                      ;\\Mac\Home\Documents\Studium\6. Semester\Bachelorarbeit\Code\PerformanceTests\Enclave\PerformanceTests_t.c:759.3
$LN3069:
        jne       .B17.26       ; Prob 50%                      ;\\Mac\Home\Documents\Studium\6. Semester\Bachelorarbeit\Code\PerformanceTests\Enclave\PerformanceTests_t.c:759.3
$LN3070:
                                ; LOE rbp rsp r12 r13 r14 r15 rip zmm6 zmm7 zmm8 zmm9 zmm10 zmm11 zmm12 zmm13 zmm14 zmm15
.B17.25::                       ; Preds .B17.24
                                ; Execution count [0.00e+000]
$LN3071:

;;; 			status = SGX_ERROR_OUT_OF_MEMORY;

        mov       DWORD PTR [rbp], 3                            ;\\Mac\Home\Documents\Studium\6. Semester\Bachelorarbeit\Code\PerformanceTests\Enclave\PerformanceTests_t.c:760.4
$LN3072:
        jmp       .B17.39       ; Prob 100%                     ;\\Mac\Home\Documents\Studium\6. Semester\Bachelorarbeit\Code\PerformanceTests\Enclave\PerformanceTests_t.c:760.4
$LN3073:
                                ; LOE rbp rsp r12 r13 r14 r15 rip zmm6 zmm7 zmm8 zmm9 zmm10 zmm11 zmm12 zmm13 zmm14 zmm15
.B17.26::                       ; Preds .B17.24
                                ; Execution count [0.00e+000]
$LN3074:

;;; 			goto err;
;;; 		}
;;; 
;;; 		memcpy(_in_input, _tmp_input, _len_input);

        mov       rax, QWORD PTR [56+rbp]                       ;\\Mac\Home\Documents\Studium\6. Semester\Bachelorarbeit\Code\PerformanceTests\Enclave\PerformanceTests_t.c:764.3
$LN3075:
        mov       rdx, QWORD PTR [32+rbp]                       ;\\Mac\Home\Documents\Studium\6. Semester\Bachelorarbeit\Code\PerformanceTests\Enclave\PerformanceTests_t.c:764.3
$LN3076:
        mov       rcx, QWORD PTR [48+rbp]                       ;\\Mac\Home\Documents\Studium\6. Semester\Bachelorarbeit\Code\PerformanceTests\Enclave\PerformanceTests_t.c:764.3
$LN3077:
        mov       rdi, rax                                      ;\\Mac\Home\Documents\Studium\6. Semester\Bachelorarbeit\Code\PerformanceTests\Enclave\PerformanceTests_t.c:764.3
$LN3078:
        mov       rsi, rdx                                      ;\\Mac\Home\Documents\Studium\6. Semester\Bachelorarbeit\Code\PerformanceTests\Enclave\PerformanceTests_t.c:764.3
$LN3079:
        mov       rdx, rdi                                      ;\\Mac\Home\Documents\Studium\6. Semester\Bachelorarbeit\Code\PerformanceTests\Enclave\PerformanceTests_t.c:764.3
$LN3080:
        mov       eax, ecx                                      ;\\Mac\Home\Documents\Studium\6. Semester\Bachelorarbeit\Code\PerformanceTests\Enclave\PerformanceTests_t.c:764.3
$LN3081:
        shr       rcx, 2                                        ;\\Mac\Home\Documents\Studium\6. Semester\Bachelorarbeit\Code\PerformanceTests\Enclave\PerformanceTests_t.c:764.3
$LN3082:
        rep   movsd                                             ;\\Mac\Home\Documents\Studium\6. Semester\Bachelorarbeit\Code\PerformanceTests\Enclave\PerformanceTests_t.c:764.3
$LN3083:
        mov       ecx, eax                                      ;\\Mac\Home\Documents\Studium\6. Semester\Bachelorarbeit\Code\PerformanceTests\Enclave\PerformanceTests_t.c:764.3
$LN3084:
        and       ecx, 3                                        ;\\Mac\Home\Documents\Studium\6. Semester\Bachelorarbeit\Code\PerformanceTests\Enclave\PerformanceTests_t.c:764.3
$LN3085:
        rep   movsb                                             ;\\Mac\Home\Documents\Studium\6. Semester\Bachelorarbeit\Code\PerformanceTests\Enclave\PerformanceTests_t.c:764.3
$LN3086:
        mov       rax, rdx                                      ;\\Mac\Home\Documents\Studium\6. Semester\Bachelorarbeit\Code\PerformanceTests\Enclave\PerformanceTests_t.c:764.3
$LN3087:
                                ; LOE rax rbp rsp r12 r13 r14 r15 rip zmm6 zmm7 zmm8 zmm9 zmm10 zmm11 zmm12 zmm13 zmm14 zmm15
.B17.53::                       ; Preds .B17.26
                                ; Execution count [0.00e+000]
$LN3088:
        mov       QWORD PTR [144+rbp], rax                      ;\\Mac\Home\Documents\Studium\6. Semester\Bachelorarbeit\Code\PerformanceTests\Enclave\PerformanceTests_t.c:764.3
$LN3089:
                                ; LOE rbp rsp r12 r13 r14 r15 rip zmm6 zmm7 zmm8 zmm9 zmm10 zmm11 zmm12 zmm13 zmm14 zmm15
.B17.27::                       ; Preds .B17.53 .B17.22
                                ; Execution count [0.00e+000]
$LN3090:

;;; 	}
;;; 	if (_tmp_key != NULL) {

        mov       rax, QWORD PTR [72+rbp]                       ;\\Mac\Home\Documents\Studium\6. Semester\Bachelorarbeit\Code\PerformanceTests\Enclave\PerformanceTests_t.c:766.2
$LN3091:
        test      rax, rax                                      ;\\Mac\Home\Documents\Studium\6. Semester\Bachelorarbeit\Code\PerformanceTests\Enclave\PerformanceTests_t.c:766.2
$LN3092:
        je        .B17.32       ; Prob 50%                      ;\\Mac\Home\Documents\Studium\6. Semester\Bachelorarbeit\Code\PerformanceTests\Enclave\PerformanceTests_t.c:766.2
$LN3093:
                                ; LOE rbp rsp r12 r13 r14 r15 rip zmm6 zmm7 zmm8 zmm9 zmm10 zmm11 zmm12 zmm13 zmm14 zmm15
.B17.28::                       ; Preds .B17.27
                                ; Execution count [0.00e+000]
$LN3094:

;;; 		_in_key = (uint8_t*)malloc(_len_key);

        mov       rax, QWORD PTR [88+rbp]                       ;\\Mac\Home\Documents\Studium\6. Semester\Bachelorarbeit\Code\PerformanceTests\Enclave\PerformanceTests_t.c:767.3
$LN3095:
        mov       rcx, rax                                      ;\\Mac\Home\Documents\Studium\6. Semester\Bachelorarbeit\Code\PerformanceTests\Enclave\PerformanceTests_t.c:767.3
$LN3096:
;       malloc(size_t)
        call      malloc                                        ;\\Mac\Home\Documents\Studium\6. Semester\Bachelorarbeit\Code\PerformanceTests\Enclave\PerformanceTests_t.c:767.3
$LN3097:
                                ; LOE rax rbp rsp r12 r13 r14 r15 rip zmm6 zmm7 zmm8 zmm9 zmm10 zmm11 zmm12 zmm13 zmm14 zmm15
.B17.54::                       ; Preds .B17.28
                                ; Execution count [0.00e+000]
$LN3098:
        mov       QWORD PTR [136+rbp], rax                      ;\\Mac\Home\Documents\Studium\6. Semester\Bachelorarbeit\Code\PerformanceTests\Enclave\PerformanceTests_t.c:767.3
$LN3099:
                                ; LOE rbp rsp r12 r13 r14 r15 rip zmm6 zmm7 zmm8 zmm9 zmm10 zmm11 zmm12 zmm13 zmm14 zmm15
.B17.29::                       ; Preds .B17.54
                                ; Execution count [0.00e+000]
$LN3100:
        mov       rax, QWORD PTR [136+rbp]                      ;\\Mac\Home\Documents\Studium\6. Semester\Bachelorarbeit\Code\PerformanceTests\Enclave\PerformanceTests_t.c:767.3
$LN3101:
        mov       QWORD PTR [96+rbp], rax                       ;\\Mac\Home\Documents\Studium\6. Semester\Bachelorarbeit\Code\PerformanceTests\Enclave\PerformanceTests_t.c:767.3
$LN3102:

;;; 		if (_in_key == NULL) {

        mov       rax, QWORD PTR [96+rbp]                       ;\\Mac\Home\Documents\Studium\6. Semester\Bachelorarbeit\Code\PerformanceTests\Enclave\PerformanceTests_t.c:768.3
$LN3103:
        test      rax, rax                                      ;\\Mac\Home\Documents\Studium\6. Semester\Bachelorarbeit\Code\PerformanceTests\Enclave\PerformanceTests_t.c:768.3
$LN3104:
        jne       .B17.31       ; Prob 50%                      ;\\Mac\Home\Documents\Studium\6. Semester\Bachelorarbeit\Code\PerformanceTests\Enclave\PerformanceTests_t.c:768.3
$LN3105:
                                ; LOE rbp rsp r12 r13 r14 r15 rip zmm6 zmm7 zmm8 zmm9 zmm10 zmm11 zmm12 zmm13 zmm14 zmm15
.B17.30::                       ; Preds .B17.29
                                ; Execution count [0.00e+000]
$LN3106:

;;; 			status = SGX_ERROR_OUT_OF_MEMORY;

        mov       DWORD PTR [rbp], 3                            ;\\Mac\Home\Documents\Studium\6. Semester\Bachelorarbeit\Code\PerformanceTests\Enclave\PerformanceTests_t.c:769.4
$LN3107:
        jmp       .B17.39       ; Prob 100%                     ;\\Mac\Home\Documents\Studium\6. Semester\Bachelorarbeit\Code\PerformanceTests\Enclave\PerformanceTests_t.c:769.4
$LN3108:
                                ; LOE rbp rsp r12 r13 r14 r15 rip zmm6 zmm7 zmm8 zmm9 zmm10 zmm11 zmm12 zmm13 zmm14 zmm15
.B17.31::                       ; Preds .B17.29
                                ; Execution count [0.00e+000]
$LN3109:

;;; 			goto err;
;;; 		}
;;; 
;;; 		memcpy((void*)_in_key, _tmp_key, _len_key);

        mov       rax, QWORD PTR [96+rbp]                       ;\\Mac\Home\Documents\Studium\6. Semester\Bachelorarbeit\Code\PerformanceTests\Enclave\PerformanceTests_t.c:773.3
$LN3110:
        mov       rdx, QWORD PTR [72+rbp]                       ;\\Mac\Home\Documents\Studium\6. Semester\Bachelorarbeit\Code\PerformanceTests\Enclave\PerformanceTests_t.c:773.3
$LN3111:
        mov       rcx, QWORD PTR [88+rbp]                       ;\\Mac\Home\Documents\Studium\6. Semester\Bachelorarbeit\Code\PerformanceTests\Enclave\PerformanceTests_t.c:773.3
$LN3112:
        mov       rdi, rax                                      ;\\Mac\Home\Documents\Studium\6. Semester\Bachelorarbeit\Code\PerformanceTests\Enclave\PerformanceTests_t.c:773.3
$LN3113:
        mov       rsi, rdx                                      ;\\Mac\Home\Documents\Studium\6. Semester\Bachelorarbeit\Code\PerformanceTests\Enclave\PerformanceTests_t.c:773.3
$LN3114:
        mov       rdx, rdi                                      ;\\Mac\Home\Documents\Studium\6. Semester\Bachelorarbeit\Code\PerformanceTests\Enclave\PerformanceTests_t.c:773.3
$LN3115:
        mov       eax, ecx                                      ;\\Mac\Home\Documents\Studium\6. Semester\Bachelorarbeit\Code\PerformanceTests\Enclave\PerformanceTests_t.c:773.3
$LN3116:
        shr       rcx, 2                                        ;\\Mac\Home\Documents\Studium\6. Semester\Bachelorarbeit\Code\PerformanceTests\Enclave\PerformanceTests_t.c:773.3
$LN3117:
        rep   movsd                                             ;\\Mac\Home\Documents\Studium\6. Semester\Bachelorarbeit\Code\PerformanceTests\Enclave\PerformanceTests_t.c:773.3
$LN3118:
        mov       ecx, eax                                      ;\\Mac\Home\Documents\Studium\6. Semester\Bachelorarbeit\Code\PerformanceTests\Enclave\PerformanceTests_t.c:773.3
$LN3119:
        and       ecx, 3                                        ;\\Mac\Home\Documents\Studium\6. Semester\Bachelorarbeit\Code\PerformanceTests\Enclave\PerformanceTests_t.c:773.3
$LN3120:
        rep   movsb                                             ;\\Mac\Home\Documents\Studium\6. Semester\Bachelorarbeit\Code\PerformanceTests\Enclave\PerformanceTests_t.c:773.3
$LN3121:
        mov       rax, rdx                                      ;\\Mac\Home\Documents\Studium\6. Semester\Bachelorarbeit\Code\PerformanceTests\Enclave\PerformanceTests_t.c:773.3
$LN3122:
                                ; LOE rax rbp rsp r12 r13 r14 r15 rip zmm6 zmm7 zmm8 zmm9 zmm10 zmm11 zmm12 zmm13 zmm14 zmm15
.B17.55::                       ; Preds .B17.31
                                ; Execution count [0.00e+000]
$LN3123:
        mov       QWORD PTR [160+rbp], rax                      ;\\Mac\Home\Documents\Studium\6. Semester\Bachelorarbeit\Code\PerformanceTests\Enclave\PerformanceTests_t.c:773.3
$LN3124:
                                ; LOE rbp rsp r12 r13 r14 r15 rip zmm6 zmm7 zmm8 zmm9 zmm10 zmm11 zmm12 zmm13 zmm14 zmm15
.B17.32::                       ; Preds .B17.55 .B17.27
                                ; Execution count [0.00e+000]
$LN3125:

;;; 	}
;;; 	if (_tmp_iv != NULL) {

        mov       rax, QWORD PTR [104+rbp]                      ;\\Mac\Home\Documents\Studium\6. Semester\Bachelorarbeit\Code\PerformanceTests\Enclave\PerformanceTests_t.c:775.2
$LN3126:
        test      rax, rax                                      ;\\Mac\Home\Documents\Studium\6. Semester\Bachelorarbeit\Code\PerformanceTests\Enclave\PerformanceTests_t.c:775.2
$LN3127:
        je        .B17.37       ; Prob 50%                      ;\\Mac\Home\Documents\Studium\6. Semester\Bachelorarbeit\Code\PerformanceTests\Enclave\PerformanceTests_t.c:775.2
$LN3128:
                                ; LOE rbp rsp r12 r13 r14 r15 rip zmm6 zmm7 zmm8 zmm9 zmm10 zmm11 zmm12 zmm13 zmm14 zmm15
.B17.33::                       ; Preds .B17.32
                                ; Execution count [0.00e+000]
$LN3129:

;;; 		_in_iv = (uint8_t*)malloc(_len_iv);

        mov       rax, QWORD PTR [112+rbp]                      ;\\Mac\Home\Documents\Studium\6. Semester\Bachelorarbeit\Code\PerformanceTests\Enclave\PerformanceTests_t.c:776.3
$LN3130:
        mov       rcx, rax                                      ;\\Mac\Home\Documents\Studium\6. Semester\Bachelorarbeit\Code\PerformanceTests\Enclave\PerformanceTests_t.c:776.3
$LN3131:
;       malloc(size_t)
        call      malloc                                        ;\\Mac\Home\Documents\Studium\6. Semester\Bachelorarbeit\Code\PerformanceTests\Enclave\PerformanceTests_t.c:776.3
$LN3132:
                                ; LOE rax rbp rsp r12 r13 r14 r15 rip zmm6 zmm7 zmm8 zmm9 zmm10 zmm11 zmm12 zmm13 zmm14 zmm15
.B17.56::                       ; Preds .B17.33
                                ; Execution count [0.00e+000]
$LN3133:
        mov       QWORD PTR [152+rbp], rax                      ;\\Mac\Home\Documents\Studium\6. Semester\Bachelorarbeit\Code\PerformanceTests\Enclave\PerformanceTests_t.c:776.3
$LN3134:
                                ; LOE rbp rsp r12 r13 r14 r15 rip zmm6 zmm7 zmm8 zmm9 zmm10 zmm11 zmm12 zmm13 zmm14 zmm15
.B17.34::                       ; Preds .B17.56
                                ; Execution count [0.00e+000]
$LN3135:
        mov       rax, QWORD PTR [152+rbp]                      ;\\Mac\Home\Documents\Studium\6. Semester\Bachelorarbeit\Code\PerformanceTests\Enclave\PerformanceTests_t.c:776.3
$LN3136:
        mov       QWORD PTR [120+rbp], rax                      ;\\Mac\Home\Documents\Studium\6. Semester\Bachelorarbeit\Code\PerformanceTests\Enclave\PerformanceTests_t.c:776.3
$LN3137:

;;; 		if (_in_iv == NULL) {

        mov       rax, QWORD PTR [120+rbp]                      ;\\Mac\Home\Documents\Studium\6. Semester\Bachelorarbeit\Code\PerformanceTests\Enclave\PerformanceTests_t.c:777.3
$LN3138:
        test      rax, rax                                      ;\\Mac\Home\Documents\Studium\6. Semester\Bachelorarbeit\Code\PerformanceTests\Enclave\PerformanceTests_t.c:777.3
$LN3139:
        jne       .B17.36       ; Prob 50%                      ;\\Mac\Home\Documents\Studium\6. Semester\Bachelorarbeit\Code\PerformanceTests\Enclave\PerformanceTests_t.c:777.3
$LN3140:
                                ; LOE rbp rsp r12 r13 r14 r15 rip zmm6 zmm7 zmm8 zmm9 zmm10 zmm11 zmm12 zmm13 zmm14 zmm15
.B17.35::                       ; Preds .B17.34
                                ; Execution count [0.00e+000]
$LN3141:

;;; 			status = SGX_ERROR_OUT_OF_MEMORY;

        mov       DWORD PTR [rbp], 3                            ;\\Mac\Home\Documents\Studium\6. Semester\Bachelorarbeit\Code\PerformanceTests\Enclave\PerformanceTests_t.c:778.4
$LN3142:
        jmp       .B17.39       ; Prob 100%                     ;\\Mac\Home\Documents\Studium\6. Semester\Bachelorarbeit\Code\PerformanceTests\Enclave\PerformanceTests_t.c:778.4
$LN3143:
                                ; LOE rbp rsp r12 r13 r14 r15 rip zmm6 zmm7 zmm8 zmm9 zmm10 zmm11 zmm12 zmm13 zmm14 zmm15
.B17.36::                       ; Preds .B17.34
                                ; Execution count [0.00e+000]
$LN3144:

;;; 			goto err;
;;; 		}
;;; 
;;; 		memcpy(_in_iv, _tmp_iv, _len_iv);

        mov       rax, QWORD PTR [120+rbp]                      ;\\Mac\Home\Documents\Studium\6. Semester\Bachelorarbeit\Code\PerformanceTests\Enclave\PerformanceTests_t.c:782.3
$LN3145:
        mov       rdx, QWORD PTR [104+rbp]                      ;\\Mac\Home\Documents\Studium\6. Semester\Bachelorarbeit\Code\PerformanceTests\Enclave\PerformanceTests_t.c:782.3
$LN3146:
        mov       rcx, QWORD PTR [112+rbp]                      ;\\Mac\Home\Documents\Studium\6. Semester\Bachelorarbeit\Code\PerformanceTests\Enclave\PerformanceTests_t.c:782.3
$LN3147:
        mov       rdi, rax                                      ;\\Mac\Home\Documents\Studium\6. Semester\Bachelorarbeit\Code\PerformanceTests\Enclave\PerformanceTests_t.c:782.3
$LN3148:
        mov       rsi, rdx                                      ;\\Mac\Home\Documents\Studium\6. Semester\Bachelorarbeit\Code\PerformanceTests\Enclave\PerformanceTests_t.c:782.3
$LN3149:
        mov       rdx, rdi                                      ;\\Mac\Home\Documents\Studium\6. Semester\Bachelorarbeit\Code\PerformanceTests\Enclave\PerformanceTests_t.c:782.3
$LN3150:
        mov       eax, ecx                                      ;\\Mac\Home\Documents\Studium\6. Semester\Bachelorarbeit\Code\PerformanceTests\Enclave\PerformanceTests_t.c:782.3
$LN3151:
        shr       rcx, 2                                        ;\\Mac\Home\Documents\Studium\6. Semester\Bachelorarbeit\Code\PerformanceTests\Enclave\PerformanceTests_t.c:782.3
$LN3152:
        rep   movsd                                             ;\\Mac\Home\Documents\Studium\6. Semester\Bachelorarbeit\Code\PerformanceTests\Enclave\PerformanceTests_t.c:782.3
$LN3153:
        mov       ecx, eax                                      ;\\Mac\Home\Documents\Studium\6. Semester\Bachelorarbeit\Code\PerformanceTests\Enclave\PerformanceTests_t.c:782.3
$LN3154:
        and       ecx, 3                                        ;\\Mac\Home\Documents\Studium\6. Semester\Bachelorarbeit\Code\PerformanceTests\Enclave\PerformanceTests_t.c:782.3
$LN3155:
        rep   movsb                                             ;\\Mac\Home\Documents\Studium\6. Semester\Bachelorarbeit\Code\PerformanceTests\Enclave\PerformanceTests_t.c:782.3
$LN3156:
        mov       rax, rdx                                      ;\\Mac\Home\Documents\Studium\6. Semester\Bachelorarbeit\Code\PerformanceTests\Enclave\PerformanceTests_t.c:782.3
$LN3157:
                                ; LOE rax rbp rsp r12 r13 r14 r15 rip zmm6 zmm7 zmm8 zmm9 zmm10 zmm11 zmm12 zmm13 zmm14 zmm15
.B17.57::                       ; Preds .B17.36
                                ; Execution count [0.00e+000]
$LN3158:
        mov       QWORD PTR [168+rbp], rax                      ;\\Mac\Home\Documents\Studium\6. Semester\Bachelorarbeit\Code\PerformanceTests\Enclave\PerformanceTests_t.c:782.3
$LN3159:
                                ; LOE rbp rsp r12 r13 r14 r15 rip zmm6 zmm7 zmm8 zmm9 zmm10 zmm11 zmm12 zmm13 zmm14 zmm15
.B17.37::                       ; Preds .B17.57 .B17.32
                                ; Execution count [0.00e+000]
$LN3160:

;;; 	}
;;; 	ms->ms_retval = decryptBytes(_in_input, _tmp_length, _tmp_output, (const uint8_t*)_in_key, _tmp_keyLength, _in_iv);

        mov       rax, QWORD PTR [56+rbp]                       ;\\Mac\Home\Documents\Studium\6. Semester\Bachelorarbeit\Code\PerformanceTests\Enclave\PerformanceTests_t.c:784.2
$LN3161:
        mov       rdx, QWORD PTR [40+rbp]                       ;\\Mac\Home\Documents\Studium\6. Semester\Bachelorarbeit\Code\PerformanceTests\Enclave\PerformanceTests_t.c:784.2
$LN3162:
        mov       rcx, QWORD PTR [64+rbp]                       ;\\Mac\Home\Documents\Studium\6. Semester\Bachelorarbeit\Code\PerformanceTests\Enclave\PerformanceTests_t.c:784.2
$LN3163:
        mov       rbx, QWORD PTR [96+rbp]                       ;\\Mac\Home\Documents\Studium\6. Semester\Bachelorarbeit\Code\PerformanceTests\Enclave\PerformanceTests_t.c:784.2
$LN3164:
        mov       rsi, QWORD PTR [80+rbp]                       ;\\Mac\Home\Documents\Studium\6. Semester\Bachelorarbeit\Code\PerformanceTests\Enclave\PerformanceTests_t.c:784.2
$LN3165:
        mov       QWORD PTR [32+rsp], rsi                       ;\\Mac\Home\Documents\Studium\6. Semester\Bachelorarbeit\Code\PerformanceTests\Enclave\PerformanceTests_t.c:784.2
$LN3166:
        mov       rsi, QWORD PTR [120+rbp]                      ;\\Mac\Home\Documents\Studium\6. Semester\Bachelorarbeit\Code\PerformanceTests\Enclave\PerformanceTests_t.c:784.2
$LN3167:
        mov       QWORD PTR [40+rsp], rsi                       ;\\Mac\Home\Documents\Studium\6. Semester\Bachelorarbeit\Code\PerformanceTests\Enclave\PerformanceTests_t.c:784.2
$LN3168:
        mov       QWORD PTR [176+rbp], rcx                      ;\\Mac\Home\Documents\Studium\6. Semester\Bachelorarbeit\Code\PerformanceTests\Enclave\PerformanceTests_t.c:784.2[spill]
$LN3169:
        mov       rcx, rax                                      ;\\Mac\Home\Documents\Studium\6. Semester\Bachelorarbeit\Code\PerformanceTests\Enclave\PerformanceTests_t.c:784.2
$LN3170:
        mov       rax, QWORD PTR [176+rbp]                      ;\\Mac\Home\Documents\Studium\6. Semester\Bachelorarbeit\Code\PerformanceTests\Enclave\PerformanceTests_t.c:784.2[spill]
$LN3171:
        mov       r8, rax                                       ;\\Mac\Home\Documents\Studium\6. Semester\Bachelorarbeit\Code\PerformanceTests\Enclave\PerformanceTests_t.c:784.2
$LN3172:
        mov       r9, rbx                                       ;\\Mac\Home\Documents\Studium\6. Semester\Bachelorarbeit\Code\PerformanceTests\Enclave\PerformanceTests_t.c:784.2
$LN3173:
;       decryptBytes(uint8_t *, size_t, uint8_t *, const uint8_t *, size_t, uint8_t *)
        call      decryptBytes                                  ;\\Mac\Home\Documents\Studium\6. Semester\Bachelorarbeit\Code\PerformanceTests\Enclave\PerformanceTests_t.c:784.2
$LN3174:
                                ; LOE rbp rsp r12 r13 r14 r15 rip eax zmm6 zmm7 zmm8 zmm9 zmm10 zmm11 zmm12 zmm13 zmm14 zmm15
.B17.58::                       ; Preds .B17.37
                                ; Execution count [0.00e+000]
$LN3175:
        mov       DWORD PTR [20+rbp], eax                       ;\\Mac\Home\Documents\Studium\6. Semester\Bachelorarbeit\Code\PerformanceTests\Enclave\PerformanceTests_t.c:784.2
$LN3176:
                                ; LOE rbp rsp r12 r13 r14 r15 rip zmm6 zmm7 zmm8 zmm9 zmm10 zmm11 zmm12 zmm13 zmm14 zmm15
.B17.38::                       ; Preds .B17.58
                                ; Execution count [0.00e+000]
$LN3177:
        mov       rax, QWORD PTR [24+rbp]                       ;\\Mac\Home\Documents\Studium\6. Semester\Bachelorarbeit\Code\PerformanceTests\Enclave\PerformanceTests_t.c:784.2
$LN3178:
        mov       edx, DWORD PTR [20+rbp]                       ;\\Mac\Home\Documents\Studium\6. Semester\Bachelorarbeit\Code\PerformanceTests\Enclave\PerformanceTests_t.c:784.2
$LN3179:
        mov       DWORD PTR [rax], edx                          ;\\Mac\Home\Documents\Studium\6. Semester\Bachelorarbeit\Code\PerformanceTests\Enclave\PerformanceTests_t.c:784.2
$LN3180:
                                ; LOE rbp rsp r12 r13 r14 r15 rip zmm6 zmm7 zmm8 zmm9 zmm10 zmm11 zmm12 zmm13 zmm14 zmm15
.B17.39::                       ; Preds .B17.38 .B17.35 .B17.30 .B17.25
                                ; Execution count [0.00e+000]
$LN3181:

;;; err:
;;; 	if (_in_input) free(_in_input);

        mov       rax, QWORD PTR [56+rbp]                       ;\\Mac\Home\Documents\Studium\6. Semester\Bachelorarbeit\Code\PerformanceTests\Enclave\PerformanceTests_t.c:786.2
$LN3182:
        test      rax, rax                                      ;\\Mac\Home\Documents\Studium\6. Semester\Bachelorarbeit\Code\PerformanceTests\Enclave\PerformanceTests_t.c:786.2
$LN3183:
        je        .B17.41       ; Prob 50%                      ;\\Mac\Home\Documents\Studium\6. Semester\Bachelorarbeit\Code\PerformanceTests\Enclave\PerformanceTests_t.c:786.2
$LN3184:
                                ; LOE rbp rsp r12 r13 r14 r15 rip zmm6 zmm7 zmm8 zmm9 zmm10 zmm11 zmm12 zmm13 zmm14 zmm15
.B17.40::                       ; Preds .B17.39
                                ; Execution count [0.00e+000]
$LN3185:
        mov       rax, QWORD PTR [56+rbp]                       ;\\Mac\Home\Documents\Studium\6. Semester\Bachelorarbeit\Code\PerformanceTests\Enclave\PerformanceTests_t.c:786.17
$LN3186:
        mov       rcx, rax                                      ;\\Mac\Home\Documents\Studium\6. Semester\Bachelorarbeit\Code\PerformanceTests\Enclave\PerformanceTests_t.c:786.17
$LN3187:
;       free(void *)
        call      free                                          ;\\Mac\Home\Documents\Studium\6. Semester\Bachelorarbeit\Code\PerformanceTests\Enclave\PerformanceTests_t.c:786.17
$LN3188:
                                ; LOE rbp rsp r12 r13 r14 r15 rip zmm6 zmm7 zmm8 zmm9 zmm10 zmm11 zmm12 zmm13 zmm14 zmm15
.B17.59::                       ; Preds .B17.40
                                ; Execution count [0.00e+000]
$LN3189:
                                ; LOE rbp rsp r12 r13 r14 r15 rip zmm6 zmm7 zmm8 zmm9 zmm10 zmm11 zmm12 zmm13 zmm14 zmm15
.B17.41::                       ; Preds .B17.59 .B17.39
                                ; Execution count [0.00e+000]
$LN3190:

;;; 	if (_in_key) free((void*)_in_key);

        mov       rax, QWORD PTR [96+rbp]                       ;\\Mac\Home\Documents\Studium\6. Semester\Bachelorarbeit\Code\PerformanceTests\Enclave\PerformanceTests_t.c:787.2
$LN3191:
        test      rax, rax                                      ;\\Mac\Home\Documents\Studium\6. Semester\Bachelorarbeit\Code\PerformanceTests\Enclave\PerformanceTests_t.c:787.2
$LN3192:
        je        .B17.43       ; Prob 50%                      ;\\Mac\Home\Documents\Studium\6. Semester\Bachelorarbeit\Code\PerformanceTests\Enclave\PerformanceTests_t.c:787.2
$LN3193:
                                ; LOE rbp rsp r12 r13 r14 r15 rip zmm6 zmm7 zmm8 zmm9 zmm10 zmm11 zmm12 zmm13 zmm14 zmm15
.B17.42::                       ; Preds .B17.41
                                ; Execution count [0.00e+000]
$LN3194:
        mov       rax, QWORD PTR [96+rbp]                       ;\\Mac\Home\Documents\Studium\6. Semester\Bachelorarbeit\Code\PerformanceTests\Enclave\PerformanceTests_t.c:787.15
$LN3195:
        mov       rcx, rax                                      ;\\Mac\Home\Documents\Studium\6. Semester\Bachelorarbeit\Code\PerformanceTests\Enclave\PerformanceTests_t.c:787.15
$LN3196:
;       free(void *)
        call      free                                          ;\\Mac\Home\Documents\Studium\6. Semester\Bachelorarbeit\Code\PerformanceTests\Enclave\PerformanceTests_t.c:787.15
$LN3197:
                                ; LOE rbp rsp r12 r13 r14 r15 rip zmm6 zmm7 zmm8 zmm9 zmm10 zmm11 zmm12 zmm13 zmm14 zmm15
.B17.60::                       ; Preds .B17.42
                                ; Execution count [0.00e+000]
$LN3198:
                                ; LOE rbp rsp r12 r13 r14 r15 rip zmm6 zmm7 zmm8 zmm9 zmm10 zmm11 zmm12 zmm13 zmm14 zmm15
.B17.43::                       ; Preds .B17.60 .B17.41
                                ; Execution count [0.00e+000]
$LN3199:

;;; 	if (_in_iv) free(_in_iv);

        mov       rax, QWORD PTR [120+rbp]                      ;\\Mac\Home\Documents\Studium\6. Semester\Bachelorarbeit\Code\PerformanceTests\Enclave\PerformanceTests_t.c:788.2
$LN3200:
        test      rax, rax                                      ;\\Mac\Home\Documents\Studium\6. Semester\Bachelorarbeit\Code\PerformanceTests\Enclave\PerformanceTests_t.c:788.2
$LN3201:
        je        .B17.45       ; Prob 50%                      ;\\Mac\Home\Documents\Studium\6. Semester\Bachelorarbeit\Code\PerformanceTests\Enclave\PerformanceTests_t.c:788.2
$LN3202:
                                ; LOE rbp rsp r12 r13 r14 r15 rip zmm6 zmm7 zmm8 zmm9 zmm10 zmm11 zmm12 zmm13 zmm14 zmm15
.B17.44::                       ; Preds .B17.43
                                ; Execution count [0.00e+000]
$LN3203:
        mov       rax, QWORD PTR [120+rbp]                      ;\\Mac\Home\Documents\Studium\6. Semester\Bachelorarbeit\Code\PerformanceTests\Enclave\PerformanceTests_t.c:788.14
$LN3204:
        mov       rcx, rax                                      ;\\Mac\Home\Documents\Studium\6. Semester\Bachelorarbeit\Code\PerformanceTests\Enclave\PerformanceTests_t.c:788.14
$LN3205:
;       free(void *)
        call      free                                          ;\\Mac\Home\Documents\Studium\6. Semester\Bachelorarbeit\Code\PerformanceTests\Enclave\PerformanceTests_t.c:788.14
$LN3206:
                                ; LOE rbp rsp r12 r13 r14 r15 rip zmm6 zmm7 zmm8 zmm9 zmm10 zmm11 zmm12 zmm13 zmm14 zmm15
.B17.61::                       ; Preds .B17.44
                                ; Execution count [0.00e+000]
$LN3207:
                                ; LOE rbp rsp r12 r13 r14 r15 rip zmm6 zmm7 zmm8 zmm9 zmm10 zmm11 zmm12 zmm13 zmm14 zmm15
.B17.45::                       ; Preds .B17.61 .B17.43
                                ; Execution count [0.00e+000]
$LN3208:

;;; 
;;; 	return status;

        mov       eax, DWORD PTR [rbp]                          ;\\Mac\Home\Documents\Studium\6. Semester\Bachelorarbeit\Code\PerformanceTests\Enclave\PerformanceTests_t.c:790.2
$LN3209:
        mov       rbx, QWORD PTR [184+rbp]                      ;\\Mac\Home\Documents\Studium\6. Semester\Bachelorarbeit\Code\PerformanceTests\Enclave\PerformanceTests_t.c:790.2[spill]
$LN3210:
        mov       rsi, QWORD PTR [192+rbp]                      ;\\Mac\Home\Documents\Studium\6. Semester\Bachelorarbeit\Code\PerformanceTests\Enclave\PerformanceTests_t.c:790.2[spill]
$LN3211:
        mov       rdi, QWORD PTR [200+rbp]                      ;\\Mac\Home\Documents\Studium\6. Semester\Bachelorarbeit\Code\PerformanceTests\Enclave\PerformanceTests_t.c:790.2[spill]
$LN3212:
        lea       rsp, QWORD PTR [208+rbp]                      ;\\Mac\Home\Documents\Studium\6. Semester\Bachelorarbeit\Code\PerformanceTests\Enclave\PerformanceTests_t.c:790.2
$LN3213:
        pop       rbp                                           ;\\Mac\Home\Documents\Studium\6. Semester\Bachelorarbeit\Code\PerformanceTests\Enclave\PerformanceTests_t.c:790.2
$LN3214:
        ret                                                     ;\\Mac\Home\Documents\Studium\6. Semester\Bachelorarbeit\Code\PerformanceTests\Enclave\PerformanceTests_t.c:790.2
$LN3215:
                                ; LOE
.B17.46::
$LN3216:
; mark_end;
sgx_decryptBytes ENDP
$LNsgx_decryptBytes$3217:
_TEXT	ENDS
.xdata	SEGMENT  DWORD   READ  ''
	ALIGN 004H
.unwind.sgx_decryptBytes.B1_B45	DD	889856513
	DD	1913890
	DD	1991707
	DD	2061332
	DD	17302285
	DD	1342242848
.xdata	ENDS
.pdata	SEGMENT  DWORD   READ  ''
	ALIGN 004H
.pdata.sgx_decryptBytes.B1_B45	DD	imagerel .B17.1
	DD	imagerel .B17.46
	DD	imagerel .unwind.sgx_decryptBytes.B1_B45
.pdata	ENDS
_DATA	SEGMENT      'DATA'
_DATA	ENDS
; -- End  sgx_decryptBytes
_TEXT	SEGMENT      'CODE'
_2__routine_start_sgx_oc_cpuidex_17:
; -- Begin  sgx_oc_cpuidex
_TEXT	ENDS
_TEXT	SEGMENT      'CODE'
; mark_begin;

	PUBLIC sgx_oc_cpuidex
; --- sgx_oc_cpuidex(int *, int, int)
sgx_oc_cpuidex	PROC 
; parameter 1(cpuinfo): rcx
; parameter 2(leaf): edx
; parameter 3(subleaf): r8d
.B18.1::                        ; Preds .B18.0
                                ; Execution count [0.00e+000]

;;; {

L145::
                                                         ;\\Mac\Home\Documents\Studium\6. Semester\Bachelorarbeit\Code\PerformanceTests\Enclave\PerformanceTests_t.c:835.1
$LN3218:
        push      rbp                                           ;\\Mac\Home\Documents\Studium\6. Semester\Bachelorarbeit\Code\PerformanceTests\Enclave\PerformanceTests_t.c:835.1
$LN3219:
        sub       rsp, 144                                      ;\\Mac\Home\Documents\Studium\6. Semester\Bachelorarbeit\Code\PerformanceTests\Enclave\PerformanceTests_t.c:835.1
$LN3220:
        lea       rbp, QWORD PTR [32+rsp]                       ;\\Mac\Home\Documents\Studium\6. Semester\Bachelorarbeit\Code\PerformanceTests\Enclave\PerformanceTests_t.c:835.1
$LN3221:
        mov       QWORD PTR [96+rbp], rdi                       ;\\Mac\Home\Documents\Studium\6. Semester\Bachelorarbeit\Code\PerformanceTests\Enclave\PerformanceTests_t.c:835.1[spill]
$LN3222:
        mov       QWORD PTR [88+rbp], rsi                       ;\\Mac\Home\Documents\Studium\6. Semester\Bachelorarbeit\Code\PerformanceTests\Enclave\PerformanceTests_t.c:835.1[spill]
$LN3223:
        mov       QWORD PTR [128+rbp], rcx                      ;\\Mac\Home\Documents\Studium\6. Semester\Bachelorarbeit\Code\PerformanceTests\Enclave\PerformanceTests_t.c:835.1
$LN3224:
        mov       DWORD PTR [136+rbp], edx                      ;\\Mac\Home\Documents\Studium\6. Semester\Bachelorarbeit\Code\PerformanceTests\Enclave\PerformanceTests_t.c:835.1
$LN3225:
        mov       DWORD PTR [144+rbp], r8d                      ;\\Mac\Home\Documents\Studium\6. Semester\Bachelorarbeit\Code\PerformanceTests\Enclave\PerformanceTests_t.c:835.1
$LN3226:

;;; 	sgx_status_t status = SGX_SUCCESS;

        mov       DWORD PTR [rbp], 0                            ;\\Mac\Home\Documents\Studium\6. Semester\Bachelorarbeit\Code\PerformanceTests\Enclave\PerformanceTests_t.c:836.22
$LN3227:

;;; 	size_t _len_cpuinfo = 4 * sizeof(*cpuinfo);

        mov       QWORD PTR [24+rbp], 16                        ;\\Mac\Home\Documents\Studium\6. Semester\Bachelorarbeit\Code\PerformanceTests\Enclave\PerformanceTests_t.c:837.22
$LN3228:

;;; 
;;; 	ms_sgx_oc_cpuidex_t* ms = NULL;

        mov       QWORD PTR [32+rbp], 0                         ;\\Mac\Home\Documents\Studium\6. Semester\Bachelorarbeit\Code\PerformanceTests\Enclave\PerformanceTests_t.c:839.26
$LN3229:

;;; 	size_t ocalloc_size = sizeof(ms_sgx_oc_cpuidex_t);

        mov       QWORD PTR [40+rbp], 16                        ;\\Mac\Home\Documents\Studium\6. Semester\Bachelorarbeit\Code\PerformanceTests\Enclave\PerformanceTests_t.c:840.22
$LN3230:

;;; 	void *__tmp = NULL;

        mov       QWORD PTR [48+rbp], 0                         ;\\Mac\Home\Documents\Studium\6. Semester\Bachelorarbeit\Code\PerformanceTests\Enclave\PerformanceTests_t.c:841.14
$LN3231:

;;; 
;;; 	ocalloc_size += (cpuinfo != NULL && sgx_is_within_enclave(cpuinfo, _len_cpuinfo)) ? _len_cpuinfo : 0;

        mov       rax, QWORD PTR [128+rbp]                      ;\\Mac\Home\Documents\Studium\6. Semester\Bachelorarbeit\Code\PerformanceTests\Enclave\PerformanceTests_t.c:843.2
$LN3232:
        test      rax, rax                                      ;\\Mac\Home\Documents\Studium\6. Semester\Bachelorarbeit\Code\PerformanceTests\Enclave\PerformanceTests_t.c:843.2
$LN3233:
        jne       .B18.3        ; Prob 50%                      ;\\Mac\Home\Documents\Studium\6. Semester\Bachelorarbeit\Code\PerformanceTests\Enclave\PerformanceTests_t.c:843.2
$LN3234:
                                ; LOE rbx rbp rsp r12 r13 r14 r15 rip zmm6 zmm7 zmm8 zmm9 zmm10 zmm11 zmm12 zmm13 zmm14 zmm15
.B18.2::                        ; Preds .B18.1
                                ; Execution count [0.00e+000]
$LN3235:
        mov       DWORD PTR [8+rbp], 0                          ;\\Mac\Home\Documents\Studium\6. Semester\Bachelorarbeit\Code\PerformanceTests\Enclave\PerformanceTests_t.c:843.2
$LN3236:
        jmp       .B18.7        ; Prob 100%                     ;\\Mac\Home\Documents\Studium\6. Semester\Bachelorarbeit\Code\PerformanceTests\Enclave\PerformanceTests_t.c:843.2
$LN3237:
                                ; LOE rbx rbp rsp r12 r13 r14 r15 rip zmm6 zmm7 zmm8 zmm9 zmm10 zmm11 zmm12 zmm13 zmm14 zmm15
.B18.3::                        ; Preds .B18.1
                                ; Execution count [0.00e+000]
$LN3238:
        mov       rax, QWORD PTR [128+rbp]                      ;\\Mac\Home\Documents\Studium\6. Semester\Bachelorarbeit\Code\PerformanceTests\Enclave\PerformanceTests_t.c:843.2
$LN3239:
        mov       rdx, QWORD PTR [24+rbp]                       ;\\Mac\Home\Documents\Studium\6. Semester\Bachelorarbeit\Code\PerformanceTests\Enclave\PerformanceTests_t.c:843.2
$LN3240:
        mov       rcx, rax                                      ;\\Mac\Home\Documents\Studium\6. Semester\Bachelorarbeit\Code\PerformanceTests\Enclave\PerformanceTests_t.c:843.2
$LN3241:
;       sgx_is_within_enclave(const void *, size_t)
        call      sgx_is_within_enclave                         ;\\Mac\Home\Documents\Studium\6. Semester\Bachelorarbeit\Code\PerformanceTests\Enclave\PerformanceTests_t.c:843.2
$LN3242:
                                ; LOE rbx rbp rsp r12 r13 r14 r15 rip eax zmm6 zmm7 zmm8 zmm9 zmm10 zmm11 zmm12 zmm13 zmm14 zmm15
.B18.29::                       ; Preds .B18.3
                                ; Execution count [0.00e+000]
$LN3243:
        mov       DWORD PTR [4+rbp], eax                        ;\\Mac\Home\Documents\Studium\6. Semester\Bachelorarbeit\Code\PerformanceTests\Enclave\PerformanceTests_t.c:843.2
$LN3244:
                                ; LOE rbx rbp rsp r12 r13 r14 r15 rip zmm6 zmm7 zmm8 zmm9 zmm10 zmm11 zmm12 zmm13 zmm14 zmm15
.B18.4::                        ; Preds .B18.29
                                ; Execution count [0.00e+000]
$LN3245:
        mov       eax, DWORD PTR [4+rbp]                        ;\\Mac\Home\Documents\Studium\6. Semester\Bachelorarbeit\Code\PerformanceTests\Enclave\PerformanceTests_t.c:843.2
$LN3246:
        test      eax, eax                                      ;\\Mac\Home\Documents\Studium\6. Semester\Bachelorarbeit\Code\PerformanceTests\Enclave\PerformanceTests_t.c:843.2
$LN3247:
        jne       .B18.6        ; Prob 50%                      ;\\Mac\Home\Documents\Studium\6. Semester\Bachelorarbeit\Code\PerformanceTests\Enclave\PerformanceTests_t.c:843.2
$LN3248:
                                ; LOE rbx rbp rsp r12 r13 r14 r15 rip zmm6 zmm7 zmm8 zmm9 zmm10 zmm11 zmm12 zmm13 zmm14 zmm15
.B18.5::                        ; Preds .B18.4
                                ; Execution count [0.00e+000]
$LN3249:
        mov       DWORD PTR [8+rbp], 0                          ;\\Mac\Home\Documents\Studium\6. Semester\Bachelorarbeit\Code\PerformanceTests\Enclave\PerformanceTests_t.c:843.2
$LN3250:
        jmp       .B18.7        ; Prob 100%                     ;\\Mac\Home\Documents\Studium\6. Semester\Bachelorarbeit\Code\PerformanceTests\Enclave\PerformanceTests_t.c:843.2
$LN3251:
                                ; LOE rbx rbp rsp r12 r13 r14 r15 rip zmm6 zmm7 zmm8 zmm9 zmm10 zmm11 zmm12 zmm13 zmm14 zmm15
.B18.6::                        ; Preds .B18.4
                                ; Execution count [0.00e+000]
$LN3252:
        mov       DWORD PTR [8+rbp], 1                          ;\\Mac\Home\Documents\Studium\6. Semester\Bachelorarbeit\Code\PerformanceTests\Enclave\PerformanceTests_t.c:843.2
$LN3253:
                                ; LOE rbx rbp rsp r12 r13 r14 r15 rip zmm6 zmm7 zmm8 zmm9 zmm10 zmm11 zmm12 zmm13 zmm14 zmm15
.B18.7::                        ; Preds .B18.6 .B18.5 .B18.2
                                ; Execution count [0.00e+000]
$LN3254:
        mov       eax, DWORD PTR [8+rbp]                        ;\\Mac\Home\Documents\Studium\6. Semester\Bachelorarbeit\Code\PerformanceTests\Enclave\PerformanceTests_t.c:843.2
$LN3255:
        test      eax, eax                                      ;\\Mac\Home\Documents\Studium\6. Semester\Bachelorarbeit\Code\PerformanceTests\Enclave\PerformanceTests_t.c:843.2
$LN3256:
        jne       .B18.9        ; Prob 50%                      ;\\Mac\Home\Documents\Studium\6. Semester\Bachelorarbeit\Code\PerformanceTests\Enclave\PerformanceTests_t.c:843.2
$LN3257:
                                ; LOE rbx rbp rsp r12 r13 r14 r15 rip zmm6 zmm7 zmm8 zmm9 zmm10 zmm11 zmm12 zmm13 zmm14 zmm15
.B18.8::                        ; Preds .B18.7
                                ; Execution count [0.00e+000]
$LN3258:
        mov       QWORD PTR [56+rbp], 0                         ;\\Mac\Home\Documents\Studium\6. Semester\Bachelorarbeit\Code\PerformanceTests\Enclave\PerformanceTests_t.c:843.2
$LN3259:
        jmp       .B18.10       ; Prob 100%                     ;\\Mac\Home\Documents\Studium\6. Semester\Bachelorarbeit\Code\PerformanceTests\Enclave\PerformanceTests_t.c:843.2
$LN3260:
                                ; LOE rbx rbp rsp r12 r13 r14 r15 rip zmm6 zmm7 zmm8 zmm9 zmm10 zmm11 zmm12 zmm13 zmm14 zmm15
.B18.9::                        ; Preds .B18.7
                                ; Execution count [0.00e+000]
$LN3261:
        mov       rax, QWORD PTR [24+rbp]                       ;\\Mac\Home\Documents\Studium\6. Semester\Bachelorarbeit\Code\PerformanceTests\Enclave\PerformanceTests_t.c:843.2
$LN3262:
        mov       QWORD PTR [56+rbp], rax                       ;\\Mac\Home\Documents\Studium\6. Semester\Bachelorarbeit\Code\PerformanceTests\Enclave\PerformanceTests_t.c:843.2
$LN3263:
                                ; LOE rbx rbp rsp r12 r13 r14 r15 rip zmm6 zmm7 zmm8 zmm9 zmm10 zmm11 zmm12 zmm13 zmm14 zmm15
.B18.10::                       ; Preds .B18.9 .B18.8
                                ; Execution count [0.00e+000]
$LN3264:
        mov       rax, QWORD PTR [56+rbp]                       ;\\Mac\Home\Documents\Studium\6. Semester\Bachelorarbeit\Code\PerformanceTests\Enclave\PerformanceTests_t.c:843.2
$LN3265:
        add       rax, QWORD PTR [40+rbp]                       ;\\Mac\Home\Documents\Studium\6. Semester\Bachelorarbeit\Code\PerformanceTests\Enclave\PerformanceTests_t.c:843.2
$LN3266:
        mov       QWORD PTR [40+rbp], rax                       ;\\Mac\Home\Documents\Studium\6. Semester\Bachelorarbeit\Code\PerformanceTests\Enclave\PerformanceTests_t.c:843.2
$LN3267:

;;; 
;;; 	__tmp = sgx_ocalloc(ocalloc_size);

        mov       rax, QWORD PTR [40+rbp]                       ;\\Mac\Home\Documents\Studium\6. Semester\Bachelorarbeit\Code\PerformanceTests\Enclave\PerformanceTests_t.c:845.2
$LN3268:
        mov       rcx, rax                                      ;\\Mac\Home\Documents\Studium\6. Semester\Bachelorarbeit\Code\PerformanceTests\Enclave\PerformanceTests_t.c:845.2
$LN3269:
;       sgx_ocalloc(size_t)
        call      sgx_ocalloc                                   ;\\Mac\Home\Documents\Studium\6. Semester\Bachelorarbeit\Code\PerformanceTests\Enclave\PerformanceTests_t.c:845.2
$LN3270:
                                ; LOE rax rbx rbp rsp r12 r13 r14 r15 rip zmm6 zmm7 zmm8 zmm9 zmm10 zmm11 zmm12 zmm13 zmm14 zmm15
.B18.30::                       ; Preds .B18.10
                                ; Execution count [0.00e+000]
$LN3271:
        mov       QWORD PTR [64+rbp], rax                       ;\\Mac\Home\Documents\Studium\6. Semester\Bachelorarbeit\Code\PerformanceTests\Enclave\PerformanceTests_t.c:845.2
$LN3272:
                                ; LOE rbx rbp rsp r12 r13 r14 r15 rip zmm6 zmm7 zmm8 zmm9 zmm10 zmm11 zmm12 zmm13 zmm14 zmm15
.B18.11::                       ; Preds .B18.30
                                ; Execution count [0.00e+000]
$LN3273:
        mov       rax, QWORD PTR [64+rbp]                       ;\\Mac\Home\Documents\Studium\6. Semester\Bachelorarbeit\Code\PerformanceTests\Enclave\PerformanceTests_t.c:845.2
$LN3274:
        mov       QWORD PTR [48+rbp], rax                       ;\\Mac\Home\Documents\Studium\6. Semester\Bachelorarbeit\Code\PerformanceTests\Enclave\PerformanceTests_t.c:845.2
$LN3275:

;;; 	if (__tmp == NULL) {

        mov       rax, QWORD PTR [48+rbp]                       ;\\Mac\Home\Documents\Studium\6. Semester\Bachelorarbeit\Code\PerformanceTests\Enclave\PerformanceTests_t.c:846.2
$LN3276:
        test      rax, rax                                      ;\\Mac\Home\Documents\Studium\6. Semester\Bachelorarbeit\Code\PerformanceTests\Enclave\PerformanceTests_t.c:846.2
$LN3277:
        jne       .B18.14       ; Prob 50%                      ;\\Mac\Home\Documents\Studium\6. Semester\Bachelorarbeit\Code\PerformanceTests\Enclave\PerformanceTests_t.c:846.2
$LN3278:
                                ; LOE rbx rbp rsp r12 r13 r14 r15 rip zmm6 zmm7 zmm8 zmm9 zmm10 zmm11 zmm12 zmm13 zmm14 zmm15
.B18.12::                       ; Preds .B18.11
                                ; Execution count [0.00e+000]
$LN3279:

;;; 		sgx_ocfree();

;       sgx_ocfree(void)
        call      sgx_ocfree                                    ;\\Mac\Home\Documents\Studium\6. Semester\Bachelorarbeit\Code\PerformanceTests\Enclave\PerformanceTests_t.c:847.3
$LN3280:
                                ; LOE rbx rbp rsp r12 r13 r14 r15 rip zmm6 zmm7 zmm8 zmm9 zmm10 zmm11 zmm12 zmm13 zmm14 zmm15
.B18.13::                       ; Preds .B18.12
                                ; Execution count [0.00e+000]
$LN3281:

;;; 		return SGX_ERROR_UNEXPECTED;

        mov       eax, 1                                        ;\\Mac\Home\Documents\Studium\6. Semester\Bachelorarbeit\Code\PerformanceTests\Enclave\PerformanceTests_t.c:848.3
$LN3282:
        mov       rsi, QWORD PTR [88+rbp]                       ;\\Mac\Home\Documents\Studium\6. Semester\Bachelorarbeit\Code\PerformanceTests\Enclave\PerformanceTests_t.c:848.3[spill]
$LN3283:
        mov       rdi, QWORD PTR [96+rbp]                       ;\\Mac\Home\Documents\Studium\6. Semester\Bachelorarbeit\Code\PerformanceTests\Enclave\PerformanceTests_t.c:848.3[spill]
$LN3284:
        lea       rsp, QWORD PTR [112+rbp]                      ;\\Mac\Home\Documents\Studium\6. Semester\Bachelorarbeit\Code\PerformanceTests\Enclave\PerformanceTests_t.c:848.3
$LN3285:
        pop       rbp                                           ;\\Mac\Home\Documents\Studium\6. Semester\Bachelorarbeit\Code\PerformanceTests\Enclave\PerformanceTests_t.c:848.3
$LN3286:
        ret                                                     ;\\Mac\Home\Documents\Studium\6. Semester\Bachelorarbeit\Code\PerformanceTests\Enclave\PerformanceTests_t.c:848.3
$LN3287:
                                ; LOE
.B18.14::                       ; Preds .B18.11
                                ; Execution count [0.00e+000]
$LN3288:

;;; 	}
;;; 	ms = (ms_sgx_oc_cpuidex_t*)__tmp;

        mov       rax, QWORD PTR [48+rbp]                       ;\\Mac\Home\Documents\Studium\6. Semester\Bachelorarbeit\Code\PerformanceTests\Enclave\PerformanceTests_t.c:850.2
$LN3289:
        mov       QWORD PTR [32+rbp], rax                       ;\\Mac\Home\Documents\Studium\6. Semester\Bachelorarbeit\Code\PerformanceTests\Enclave\PerformanceTests_t.c:850.2
$LN3290:

;;; 	__tmp = (void *)((size_t)__tmp + sizeof(ms_sgx_oc_cpuidex_t));

        add       QWORD PTR [48+rbp], 16                        ;\\Mac\Home\Documents\Studium\6. Semester\Bachelorarbeit\Code\PerformanceTests\Enclave\PerformanceTests_t.c:851.2
$LN3291:

;;; 
;;; 	if (cpuinfo != NULL && sgx_is_within_enclave(cpuinfo, _len_cpuinfo)) {

        mov       rax, QWORD PTR [128+rbp]                      ;\\Mac\Home\Documents\Studium\6. Semester\Bachelorarbeit\Code\PerformanceTests\Enclave\PerformanceTests_t.c:853.2
$LN3292:
        test      rax, rax                                      ;\\Mac\Home\Documents\Studium\6. Semester\Bachelorarbeit\Code\PerformanceTests\Enclave\PerformanceTests_t.c:853.2
$LN3293:
        je        .B18.18       ; Prob 50%                      ;\\Mac\Home\Documents\Studium\6. Semester\Bachelorarbeit\Code\PerformanceTests\Enclave\PerformanceTests_t.c:853.2
$LN3294:
                                ; LOE rbx rbp rsp r12 r13 r14 r15 rip zmm6 zmm7 zmm8 zmm9 zmm10 zmm11 zmm12 zmm13 zmm14 zmm15
.B18.15::                       ; Preds .B18.14
                                ; Execution count [0.00e+000]
$LN3295:
        mov       rax, QWORD PTR [128+rbp]                      ;\\Mac\Home\Documents\Studium\6. Semester\Bachelorarbeit\Code\PerformanceTests\Enclave\PerformanceTests_t.c:853.2
$LN3296:
        mov       rdx, QWORD PTR [24+rbp]                       ;\\Mac\Home\Documents\Studium\6. Semester\Bachelorarbeit\Code\PerformanceTests\Enclave\PerformanceTests_t.c:853.2
$LN3297:
        mov       rcx, rax                                      ;\\Mac\Home\Documents\Studium\6. Semester\Bachelorarbeit\Code\PerformanceTests\Enclave\PerformanceTests_t.c:853.2
$LN3298:
;       sgx_is_within_enclave(const void *, size_t)
        call      sgx_is_within_enclave                         ;\\Mac\Home\Documents\Studium\6. Semester\Bachelorarbeit\Code\PerformanceTests\Enclave\PerformanceTests_t.c:853.2
$LN3299:
                                ; LOE rbx rbp rsp r12 r13 r14 r15 rip eax zmm6 zmm7 zmm8 zmm9 zmm10 zmm11 zmm12 zmm13 zmm14 zmm15
.B18.31::                       ; Preds .B18.15
                                ; Execution count [0.00e+000]
$LN3300:
        mov       DWORD PTR [12+rbp], eax                       ;\\Mac\Home\Documents\Studium\6. Semester\Bachelorarbeit\Code\PerformanceTests\Enclave\PerformanceTests_t.c:853.2
$LN3301:
                                ; LOE rbx rbp rsp r12 r13 r14 r15 rip zmm6 zmm7 zmm8 zmm9 zmm10 zmm11 zmm12 zmm13 zmm14 zmm15
.B18.16::                       ; Preds .B18.31
                                ; Execution count [0.00e+000]
$LN3302:
        mov       eax, DWORD PTR [12+rbp]                       ;\\Mac\Home\Documents\Studium\6. Semester\Bachelorarbeit\Code\PerformanceTests\Enclave\PerformanceTests_t.c:853.2
$LN3303:
        test      eax, eax                                      ;\\Mac\Home\Documents\Studium\6. Semester\Bachelorarbeit\Code\PerformanceTests\Enclave\PerformanceTests_t.c:853.2
$LN3304:
        je        .B18.18       ; Prob 50%                      ;\\Mac\Home\Documents\Studium\6. Semester\Bachelorarbeit\Code\PerformanceTests\Enclave\PerformanceTests_t.c:853.2
$LN3305:
                                ; LOE rbx rbp rsp r12 r13 r14 r15 rip zmm6 zmm7 zmm8 zmm9 zmm10 zmm11 zmm12 zmm13 zmm14 zmm15
.B18.17::                       ; Preds .B18.16
                                ; Execution count [0.00e+000]
$LN3306:

;;; 		ms->ms_cpuinfo = (int*)__tmp;

        mov       rax, QWORD PTR [32+rbp]                       ;\\Mac\Home\Documents\Studium\6. Semester\Bachelorarbeit\Code\PerformanceTests\Enclave\PerformanceTests_t.c:854.3
$LN3307:
        mov       rdx, QWORD PTR [48+rbp]                       ;\\Mac\Home\Documents\Studium\6. Semester\Bachelorarbeit\Code\PerformanceTests\Enclave\PerformanceTests_t.c:854.3
$LN3308:
        mov       QWORD PTR [rax], rdx                          ;\\Mac\Home\Documents\Studium\6. Semester\Bachelorarbeit\Code\PerformanceTests\Enclave\PerformanceTests_t.c:854.3
$LN3309:

;;; 		__tmp = (void *)((size_t)__tmp + _len_cpuinfo);

        mov       rax, QWORD PTR [24+rbp]                       ;\\Mac\Home\Documents\Studium\6. Semester\Bachelorarbeit\Code\PerformanceTests\Enclave\PerformanceTests_t.c:855.3
$LN3310:
        add       rax, QWORD PTR [48+rbp]                       ;\\Mac\Home\Documents\Studium\6. Semester\Bachelorarbeit\Code\PerformanceTests\Enclave\PerformanceTests_t.c:855.3
$LN3311:
        mov       QWORD PTR [48+rbp], rax                       ;\\Mac\Home\Documents\Studium\6. Semester\Bachelorarbeit\Code\PerformanceTests\Enclave\PerformanceTests_t.c:855.3
$LN3312:

;;; 		memcpy(ms->ms_cpuinfo, cpuinfo, _len_cpuinfo);

        mov       rax, QWORD PTR [32+rbp]                       ;\\Mac\Home\Documents\Studium\6. Semester\Bachelorarbeit\Code\PerformanceTests\Enclave\PerformanceTests_t.c:856.3
$LN3313:
        mov       rax, QWORD PTR [rax]                          ;\\Mac\Home\Documents\Studium\6. Semester\Bachelorarbeit\Code\PerformanceTests\Enclave\PerformanceTests_t.c:856.3
$LN3314:
        mov       rdx, QWORD PTR [128+rbp]                      ;\\Mac\Home\Documents\Studium\6. Semester\Bachelorarbeit\Code\PerformanceTests\Enclave\PerformanceTests_t.c:856.3
$LN3315:
        mov       rcx, QWORD PTR [24+rbp]                       ;\\Mac\Home\Documents\Studium\6. Semester\Bachelorarbeit\Code\PerformanceTests\Enclave\PerformanceTests_t.c:856.3
$LN3316:
        mov       rdi, rax                                      ;\\Mac\Home\Documents\Studium\6. Semester\Bachelorarbeit\Code\PerformanceTests\Enclave\PerformanceTests_t.c:856.3
$LN3317:
        mov       rsi, rdx                                      ;\\Mac\Home\Documents\Studium\6. Semester\Bachelorarbeit\Code\PerformanceTests\Enclave\PerformanceTests_t.c:856.3
$LN3318:
        mov       rdx, rdi                                      ;\\Mac\Home\Documents\Studium\6. Semester\Bachelorarbeit\Code\PerformanceTests\Enclave\PerformanceTests_t.c:856.3
$LN3319:
        mov       eax, ecx                                      ;\\Mac\Home\Documents\Studium\6. Semester\Bachelorarbeit\Code\PerformanceTests\Enclave\PerformanceTests_t.c:856.3
$LN3320:
        shr       rcx, 2                                        ;\\Mac\Home\Documents\Studium\6. Semester\Bachelorarbeit\Code\PerformanceTests\Enclave\PerformanceTests_t.c:856.3
$LN3321:
        rep   movsd                                             ;\\Mac\Home\Documents\Studium\6. Semester\Bachelorarbeit\Code\PerformanceTests\Enclave\PerformanceTests_t.c:856.3
$LN3322:
        mov       ecx, eax                                      ;\\Mac\Home\Documents\Studium\6. Semester\Bachelorarbeit\Code\PerformanceTests\Enclave\PerformanceTests_t.c:856.3
$LN3323:
        and       ecx, 3                                        ;\\Mac\Home\Documents\Studium\6. Semester\Bachelorarbeit\Code\PerformanceTests\Enclave\PerformanceTests_t.c:856.3
$LN3324:
        rep   movsb                                             ;\\Mac\Home\Documents\Studium\6. Semester\Bachelorarbeit\Code\PerformanceTests\Enclave\PerformanceTests_t.c:856.3
$LN3325:
        mov       rax, rdx                                      ;\\Mac\Home\Documents\Studium\6. Semester\Bachelorarbeit\Code\PerformanceTests\Enclave\PerformanceTests_t.c:856.3
$LN3326:
                                ; LOE rax rbx rbp rsp r12 r13 r14 r15 rip zmm6 zmm7 zmm8 zmm9 zmm10 zmm11 zmm12 zmm13 zmm14 zmm15
.B18.32::                       ; Preds .B18.17
                                ; Execution count [0.00e+000]
$LN3327:
        mov       QWORD PTR [72+rbp], rax                       ;\\Mac\Home\Documents\Studium\6. Semester\Bachelorarbeit\Code\PerformanceTests\Enclave\PerformanceTests_t.c:856.3
$LN3328:
        jmp       .B18.22       ; Prob 100%                     ;\\Mac\Home\Documents\Studium\6. Semester\Bachelorarbeit\Code\PerformanceTests\Enclave\PerformanceTests_t.c:856.3
$LN3329:
                                ; LOE rbx rbp rsp r12 r13 r14 r15 rip zmm6 zmm7 zmm8 zmm9 zmm10 zmm11 zmm12 zmm13 zmm14 zmm15
.B18.18::                       ; Preds .B18.14 .B18.16
                                ; Execution count [0.00e+000]
$LN3330:

;;; 	} else if (cpuinfo == NULL) {

        mov       rax, QWORD PTR [128+rbp]                      ;\\Mac\Home\Documents\Studium\6. Semester\Bachelorarbeit\Code\PerformanceTests\Enclave\PerformanceTests_t.c:857.9
$LN3331:
        test      rax, rax                                      ;\\Mac\Home\Documents\Studium\6. Semester\Bachelorarbeit\Code\PerformanceTests\Enclave\PerformanceTests_t.c:857.9
$LN3332:
        jne       .B18.20       ; Prob 50%                      ;\\Mac\Home\Documents\Studium\6. Semester\Bachelorarbeit\Code\PerformanceTests\Enclave\PerformanceTests_t.c:857.9
$LN3333:
                                ; LOE rbx rbp rsp r12 r13 r14 r15 rip zmm6 zmm7 zmm8 zmm9 zmm10 zmm11 zmm12 zmm13 zmm14 zmm15
.B18.19::                       ; Preds .B18.18
                                ; Execution count [0.00e+000]
$LN3334:

;;; 		ms->ms_cpuinfo = NULL;

        mov       rax, QWORD PTR [32+rbp]                       ;\\Mac\Home\Documents\Studium\6. Semester\Bachelorarbeit\Code\PerformanceTests\Enclave\PerformanceTests_t.c:858.3
$LN3335:
        mov       QWORD PTR [rax], 0                            ;\\Mac\Home\Documents\Studium\6. Semester\Bachelorarbeit\Code\PerformanceTests\Enclave\PerformanceTests_t.c:858.3
$LN3336:
        jmp       .B18.22       ; Prob 100%                     ;\\Mac\Home\Documents\Studium\6. Semester\Bachelorarbeit\Code\PerformanceTests\Enclave\PerformanceTests_t.c:858.3
$LN3337:
                                ; LOE rbx rbp rsp r12 r13 r14 r15 rip zmm6 zmm7 zmm8 zmm9 zmm10 zmm11 zmm12 zmm13 zmm14 zmm15
.B18.20::                       ; Preds .B18.18
                                ; Execution count [0.00e+000]
$LN3338:

;;; 	} else {
;;; 		sgx_ocfree();

;       sgx_ocfree(void)
        call      sgx_ocfree                                    ;\\Mac\Home\Documents\Studium\6. Semester\Bachelorarbeit\Code\PerformanceTests\Enclave\PerformanceTests_t.c:860.3
$LN3339:
                                ; LOE rbx rbp rsp r12 r13 r14 r15 rip zmm6 zmm7 zmm8 zmm9 zmm10 zmm11 zmm12 zmm13 zmm14 zmm15
.B18.21::                       ; Preds .B18.20
                                ; Execution count [0.00e+000]
$LN3340:

;;; 		return SGX_ERROR_INVALID_PARAMETER;

        mov       eax, 2                                        ;\\Mac\Home\Documents\Studium\6. Semester\Bachelorarbeit\Code\PerformanceTests\Enclave\PerformanceTests_t.c:861.3
$LN3341:
        mov       rsi, QWORD PTR [88+rbp]                       ;\\Mac\Home\Documents\Studium\6. Semester\Bachelorarbeit\Code\PerformanceTests\Enclave\PerformanceTests_t.c:861.3[spill]
$LN3342:
        mov       rdi, QWORD PTR [96+rbp]                       ;\\Mac\Home\Documents\Studium\6. Semester\Bachelorarbeit\Code\PerformanceTests\Enclave\PerformanceTests_t.c:861.3[spill]
$LN3343:
        lea       rsp, QWORD PTR [112+rbp]                      ;\\Mac\Home\Documents\Studium\6. Semester\Bachelorarbeit\Code\PerformanceTests\Enclave\PerformanceTests_t.c:861.3
$LN3344:
        pop       rbp                                           ;\\Mac\Home\Documents\Studium\6. Semester\Bachelorarbeit\Code\PerformanceTests\Enclave\PerformanceTests_t.c:861.3
$LN3345:
        ret                                                     ;\\Mac\Home\Documents\Studium\6. Semester\Bachelorarbeit\Code\PerformanceTests\Enclave\PerformanceTests_t.c:861.3
$LN3346:
                                ; LOE
.B18.22::                       ; Preds .B18.32 .B18.19
                                ; Execution count [0.00e+000]
$LN3347:

;;; 	}
;;; 	
;;; 	ms->ms_leaf = leaf;

        mov       rax, QWORD PTR [32+rbp]                       ;\\Mac\Home\Documents\Studium\6. Semester\Bachelorarbeit\Code\PerformanceTests\Enclave\PerformanceTests_t.c:864.2
$LN3348:
        mov       edx, DWORD PTR [136+rbp]                      ;\\Mac\Home\Documents\Studium\6. Semester\Bachelorarbeit\Code\PerformanceTests\Enclave\PerformanceTests_t.c:864.2
$LN3349:
        mov       DWORD PTR [8+rax], edx                        ;\\Mac\Home\Documents\Studium\6. Semester\Bachelorarbeit\Code\PerformanceTests\Enclave\PerformanceTests_t.c:864.2
$LN3350:

;;; 	ms->ms_subleaf = subleaf;

        mov       rax, QWORD PTR [32+rbp]                       ;\\Mac\Home\Documents\Studium\6. Semester\Bachelorarbeit\Code\PerformanceTests\Enclave\PerformanceTests_t.c:865.2
$LN3351:
        mov       edx, DWORD PTR [144+rbp]                      ;\\Mac\Home\Documents\Studium\6. Semester\Bachelorarbeit\Code\PerformanceTests\Enclave\PerformanceTests_t.c:865.2
$LN3352:
        mov       DWORD PTR [12+rax], edx                       ;\\Mac\Home\Documents\Studium\6. Semester\Bachelorarbeit\Code\PerformanceTests\Enclave\PerformanceTests_t.c:865.2
$LN3353:

;;; 	status = sgx_ocall(0, ms);

        mov       eax, 0                                        ;\\Mac\Home\Documents\Studium\6. Semester\Bachelorarbeit\Code\PerformanceTests\Enclave\PerformanceTests_t.c:866.2
$LN3354:
        mov       rdx, QWORD PTR [32+rbp]                       ;\\Mac\Home\Documents\Studium\6. Semester\Bachelorarbeit\Code\PerformanceTests\Enclave\PerformanceTests_t.c:866.2
$LN3355:
        mov       ecx, eax                                      ;\\Mac\Home\Documents\Studium\6. Semester\Bachelorarbeit\Code\PerformanceTests\Enclave\PerformanceTests_t.c:866.2
$LN3356:
;       sgx_ocall(const unsigned int, void *)
        call      sgx_ocall                                     ;\\Mac\Home\Documents\Studium\6. Semester\Bachelorarbeit\Code\PerformanceTests\Enclave\PerformanceTests_t.c:866.2
$LN3357:
                                ; LOE rbx rbp rsp r12 r13 r14 r15 rip eax zmm6 zmm7 zmm8 zmm9 zmm10 zmm11 zmm12 zmm13 zmm14 zmm15
.B18.33::                       ; Preds .B18.22
                                ; Execution count [0.00e+000]
$LN3358:
        mov       DWORD PTR [16+rbp], eax                       ;\\Mac\Home\Documents\Studium\6. Semester\Bachelorarbeit\Code\PerformanceTests\Enclave\PerformanceTests_t.c:866.2
$LN3359:
                                ; LOE rbx rbp rsp r12 r13 r14 r15 rip zmm6 zmm7 zmm8 zmm9 zmm10 zmm11 zmm12 zmm13 zmm14 zmm15
.B18.23::                       ; Preds .B18.33
                                ; Execution count [0.00e+000]
$LN3360:
        mov       eax, DWORD PTR [16+rbp]                       ;\\Mac\Home\Documents\Studium\6. Semester\Bachelorarbeit\Code\PerformanceTests\Enclave\PerformanceTests_t.c:866.2
$LN3361:
        mov       DWORD PTR [rbp], eax                          ;\\Mac\Home\Documents\Studium\6. Semester\Bachelorarbeit\Code\PerformanceTests\Enclave\PerformanceTests_t.c:866.2
$LN3362:

;;; 
;;; 	if (cpuinfo) memcpy((void*)cpuinfo, ms->ms_cpuinfo, _len_cpuinfo);

        mov       rax, QWORD PTR [128+rbp]                      ;\\Mac\Home\Documents\Studium\6. Semester\Bachelorarbeit\Code\PerformanceTests\Enclave\PerformanceTests_t.c:868.2
$LN3363:
        test      rax, rax                                      ;\\Mac\Home\Documents\Studium\6. Semester\Bachelorarbeit\Code\PerformanceTests\Enclave\PerformanceTests_t.c:868.2
$LN3364:
        je        .B18.25       ; Prob 50%                      ;\\Mac\Home\Documents\Studium\6. Semester\Bachelorarbeit\Code\PerformanceTests\Enclave\PerformanceTests_t.c:868.2
$LN3365:
                                ; LOE rbx rbp rsp r12 r13 r14 r15 rip zmm6 zmm7 zmm8 zmm9 zmm10 zmm11 zmm12 zmm13 zmm14 zmm15
.B18.24::                       ; Preds .B18.23
                                ; Execution count [0.00e+000]
$LN3366:
        mov       rax, QWORD PTR [128+rbp]                      ;\\Mac\Home\Documents\Studium\6. Semester\Bachelorarbeit\Code\PerformanceTests\Enclave\PerformanceTests_t.c:868.15
$LN3367:
        mov       rdx, QWORD PTR [32+rbp]                       ;\\Mac\Home\Documents\Studium\6. Semester\Bachelorarbeit\Code\PerformanceTests\Enclave\PerformanceTests_t.c:868.15
$LN3368:
        mov       rdx, QWORD PTR [rdx]                          ;\\Mac\Home\Documents\Studium\6. Semester\Bachelorarbeit\Code\PerformanceTests\Enclave\PerformanceTests_t.c:868.15
$LN3369:
        mov       rcx, QWORD PTR [24+rbp]                       ;\\Mac\Home\Documents\Studium\6. Semester\Bachelorarbeit\Code\PerformanceTests\Enclave\PerformanceTests_t.c:868.15
$LN3370:
        mov       rdi, rax                                      ;\\Mac\Home\Documents\Studium\6. Semester\Bachelorarbeit\Code\PerformanceTests\Enclave\PerformanceTests_t.c:868.15
$LN3371:
        mov       rsi, rdx                                      ;\\Mac\Home\Documents\Studium\6. Semester\Bachelorarbeit\Code\PerformanceTests\Enclave\PerformanceTests_t.c:868.15
$LN3372:
        mov       rdx, rdi                                      ;\\Mac\Home\Documents\Studium\6. Semester\Bachelorarbeit\Code\PerformanceTests\Enclave\PerformanceTests_t.c:868.15
$LN3373:
        mov       eax, ecx                                      ;\\Mac\Home\Documents\Studium\6. Semester\Bachelorarbeit\Code\PerformanceTests\Enclave\PerformanceTests_t.c:868.15
$LN3374:
        shr       rcx, 2                                        ;\\Mac\Home\Documents\Studium\6. Semester\Bachelorarbeit\Code\PerformanceTests\Enclave\PerformanceTests_t.c:868.15
$LN3375:
        rep   movsd                                             ;\\Mac\Home\Documents\Studium\6. Semester\Bachelorarbeit\Code\PerformanceTests\Enclave\PerformanceTests_t.c:868.15
$LN3376:
        mov       ecx, eax                                      ;\\Mac\Home\Documents\Studium\6. Semester\Bachelorarbeit\Code\PerformanceTests\Enclave\PerformanceTests_t.c:868.15
$LN3377:
        and       ecx, 3                                        ;\\Mac\Home\Documents\Studium\6. Semester\Bachelorarbeit\Code\PerformanceTests\Enclave\PerformanceTests_t.c:868.15
$LN3378:
        rep   movsb                                             ;\\Mac\Home\Documents\Studium\6. Semester\Bachelorarbeit\Code\PerformanceTests\Enclave\PerformanceTests_t.c:868.15
$LN3379:
        mov       rax, rdx                                      ;\\Mac\Home\Documents\Studium\6. Semester\Bachelorarbeit\Code\PerformanceTests\Enclave\PerformanceTests_t.c:868.15
$LN3380:
                                ; LOE rax rbx rbp rsp r12 r13 r14 r15 rip zmm6 zmm7 zmm8 zmm9 zmm10 zmm11 zmm12 zmm13 zmm14 zmm15
.B18.34::                       ; Preds .B18.24
                                ; Execution count [0.00e+000]
$LN3381:
        mov       QWORD PTR [80+rbp], rax                       ;\\Mac\Home\Documents\Studium\6. Semester\Bachelorarbeit\Code\PerformanceTests\Enclave\PerformanceTests_t.c:868.15
$LN3382:
                                ; LOE rbx rbp rsp r12 r13 r14 r15 rip zmm6 zmm7 zmm8 zmm9 zmm10 zmm11 zmm12 zmm13 zmm14 zmm15
.B18.25::                       ; Preds .B18.34 .B18.23
                                ; Execution count [0.00e+000]
$LN3383:

;;; 
;;; 	sgx_ocfree();

;       sgx_ocfree(void)
        call      sgx_ocfree                                    ;\\Mac\Home\Documents\Studium\6. Semester\Bachelorarbeit\Code\PerformanceTests\Enclave\PerformanceTests_t.c:870.2
$LN3384:
                                ; LOE rbx rbp rsp r12 r13 r14 r15 rip zmm6 zmm7 zmm8 zmm9 zmm10 zmm11 zmm12 zmm13 zmm14 zmm15
.B18.26::                       ; Preds .B18.25
                                ; Execution count [0.00e+000]
$LN3385:

;;; 	return status;

        mov       eax, DWORD PTR [rbp]                          ;\\Mac\Home\Documents\Studium\6. Semester\Bachelorarbeit\Code\PerformanceTests\Enclave\PerformanceTests_t.c:871.2
$LN3386:
        mov       rsi, QWORD PTR [88+rbp]                       ;\\Mac\Home\Documents\Studium\6. Semester\Bachelorarbeit\Code\PerformanceTests\Enclave\PerformanceTests_t.c:871.2[spill]
$LN3387:
        mov       rdi, QWORD PTR [96+rbp]                       ;\\Mac\Home\Documents\Studium\6. Semester\Bachelorarbeit\Code\PerformanceTests\Enclave\PerformanceTests_t.c:871.2[spill]
$LN3388:
        lea       rsp, QWORD PTR [112+rbp]                      ;\\Mac\Home\Documents\Studium\6. Semester\Bachelorarbeit\Code\PerformanceTests\Enclave\PerformanceTests_t.c:871.2
$LN3389:
        pop       rbp                                           ;\\Mac\Home\Documents\Studium\6. Semester\Bachelorarbeit\Code\PerformanceTests\Enclave\PerformanceTests_t.c:871.2
$LN3390:
        ret                                                     ;\\Mac\Home\Documents\Studium\6. Semester\Bachelorarbeit\Code\PerformanceTests\Enclave\PerformanceTests_t.c:871.2
$LN3391:
                                ; LOE
.B18.27::
$LN3392:
; mark_end;
sgx_oc_cpuidex ENDP
$LNsgx_oc_cpuidex$3393:
_TEXT	ENDS
.xdata	SEGMENT  DWORD   READ  ''
	ALIGN 004H
.unwind.sgx_oc_cpuidex.B1_B26	DD	621286657
	DD	1008661
	DD	1078289
	DD	17302285
	DD	1342242834
.xdata	ENDS
.pdata	SEGMENT  DWORD   READ  ''
	ALIGN 004H
.pdata.sgx_oc_cpuidex.B1_B26	DD	imagerel .B18.1
	DD	imagerel .B18.27
	DD	imagerel .unwind.sgx_oc_cpuidex.B1_B26
.pdata	ENDS
_DATA	SEGMENT      'DATA'
_DATA	ENDS
; -- End  sgx_oc_cpuidex
_TEXT	SEGMENT      'CODE'
_2__routine_start_sgx_thread_wait_untrusted_event_ocall_18:
; -- Begin  sgx_thread_wait_untrusted_event_ocall
_TEXT	ENDS
_TEXT	SEGMENT      'CODE'
; mark_begin;

	PUBLIC sgx_thread_wait_untrusted_event_ocall
; --- sgx_thread_wait_untrusted_event_ocall(int *, const void *)
sgx_thread_wait_untrusted_event_ocall	PROC 
; parameter 1(retval): rcx
; parameter 2(self): rdx
.B19.1::                        ; Preds .B19.0
                                ; Execution count [0.00e+000]

;;; {

L153::
                                                         ;\\Mac\Home\Documents\Studium\6. Semester\Bachelorarbeit\Code\PerformanceTests\Enclave\PerformanceTests_t.c:875.1
$LN3394:
        push      rbp                                           ;\\Mac\Home\Documents\Studium\6. Semester\Bachelorarbeit\Code\PerformanceTests\Enclave\PerformanceTests_t.c:875.1
$LN3395:
        sub       rsp, 80                                       ;\\Mac\Home\Documents\Studium\6. Semester\Bachelorarbeit\Code\PerformanceTests\Enclave\PerformanceTests_t.c:875.1
$LN3396:
        lea       rbp, QWORD PTR [32+rsp]                       ;\\Mac\Home\Documents\Studium\6. Semester\Bachelorarbeit\Code\PerformanceTests\Enclave\PerformanceTests_t.c:875.1
$LN3397:
        mov       QWORD PTR [64+rbp], rcx                       ;\\Mac\Home\Documents\Studium\6. Semester\Bachelorarbeit\Code\PerformanceTests\Enclave\PerformanceTests_t.c:875.1
$LN3398:
        mov       QWORD PTR [72+rbp], rdx                       ;\\Mac\Home\Documents\Studium\6. Semester\Bachelorarbeit\Code\PerformanceTests\Enclave\PerformanceTests_t.c:875.1
$LN3399:

;;; 	sgx_status_t status = SGX_SUCCESS;

        mov       DWORD PTR [rbp], 0                            ;\\Mac\Home\Documents\Studium\6. Semester\Bachelorarbeit\Code\PerformanceTests\Enclave\PerformanceTests_t.c:876.22
$LN3400:

;;; 
;;; 	ms_sgx_thread_wait_untrusted_event_ocall_t* ms = NULL;

        mov       QWORD PTR [8+rbp], 0                          ;\\Mac\Home\Documents\Studium\6. Semester\Bachelorarbeit\Code\PerformanceTests\Enclave\PerformanceTests_t.c:878.49
$LN3401:

;;; 	size_t ocalloc_size = sizeof(ms_sgx_thread_wait_untrusted_event_ocall_t);

        mov       QWORD PTR [16+rbp], 16                        ;\\Mac\Home\Documents\Studium\6. Semester\Bachelorarbeit\Code\PerformanceTests\Enclave\PerformanceTests_t.c:879.22
$LN3402:

;;; 	void *__tmp = NULL;

        mov       QWORD PTR [24+rbp], 0                         ;\\Mac\Home\Documents\Studium\6. Semester\Bachelorarbeit\Code\PerformanceTests\Enclave\PerformanceTests_t.c:880.14
$LN3403:

;;; 
;;; 
;;; 	__tmp = sgx_ocalloc(ocalloc_size);

        mov       rax, QWORD PTR [16+rbp]                       ;\\Mac\Home\Documents\Studium\6. Semester\Bachelorarbeit\Code\PerformanceTests\Enclave\PerformanceTests_t.c:883.2
$LN3404:
        mov       rcx, rax                                      ;\\Mac\Home\Documents\Studium\6. Semester\Bachelorarbeit\Code\PerformanceTests\Enclave\PerformanceTests_t.c:883.2
$LN3405:
;       sgx_ocalloc(size_t)
        call      sgx_ocalloc                                   ;\\Mac\Home\Documents\Studium\6. Semester\Bachelorarbeit\Code\PerformanceTests\Enclave\PerformanceTests_t.c:883.2
$LN3406:
                                ; LOE rax rbx rbp rsi rdi rsp r12 r13 r14 r15 rip zmm6 zmm7 zmm8 zmm9 zmm10 zmm11 zmm12 zmm13 zmm14 zmm15
.B19.12::                       ; Preds .B19.1
                                ; Execution count [0.00e+000]
$LN3407:
        mov       QWORD PTR [32+rbp], rax                       ;\\Mac\Home\Documents\Studium\6. Semester\Bachelorarbeit\Code\PerformanceTests\Enclave\PerformanceTests_t.c:883.2
$LN3408:
                                ; LOE rbx rbp rsi rdi rsp r12 r13 r14 r15 rip zmm6 zmm7 zmm8 zmm9 zmm10 zmm11 zmm12 zmm13 zmm14 zmm15
.B19.2::                        ; Preds .B19.12
                                ; Execution count [0.00e+000]
$LN3409:
        mov       rax, QWORD PTR [32+rbp]                       ;\\Mac\Home\Documents\Studium\6. Semester\Bachelorarbeit\Code\PerformanceTests\Enclave\PerformanceTests_t.c:883.2
$LN3410:
        mov       QWORD PTR [24+rbp], rax                       ;\\Mac\Home\Documents\Studium\6. Semester\Bachelorarbeit\Code\PerformanceTests\Enclave\PerformanceTests_t.c:883.2
$LN3411:

;;; 	if (__tmp == NULL) {

        mov       rax, QWORD PTR [24+rbp]                       ;\\Mac\Home\Documents\Studium\6. Semester\Bachelorarbeit\Code\PerformanceTests\Enclave\PerformanceTests_t.c:884.2
$LN3412:
        test      rax, rax                                      ;\\Mac\Home\Documents\Studium\6. Semester\Bachelorarbeit\Code\PerformanceTests\Enclave\PerformanceTests_t.c:884.2
$LN3413:
        jne       .B19.5        ; Prob 50%                      ;\\Mac\Home\Documents\Studium\6. Semester\Bachelorarbeit\Code\PerformanceTests\Enclave\PerformanceTests_t.c:884.2
$LN3414:
                                ; LOE rbx rbp rsi rdi rsp r12 r13 r14 r15 rip zmm6 zmm7 zmm8 zmm9 zmm10 zmm11 zmm12 zmm13 zmm14 zmm15
.B19.3::                        ; Preds .B19.2
                                ; Execution count [0.00e+000]
$LN3415:

;;; 		sgx_ocfree();

;       sgx_ocfree(void)
        call      sgx_ocfree                                    ;\\Mac\Home\Documents\Studium\6. Semester\Bachelorarbeit\Code\PerformanceTests\Enclave\PerformanceTests_t.c:885.3
$LN3416:
                                ; LOE rbx rbp rsi rdi rsp r12 r13 r14 r15 rip zmm6 zmm7 zmm8 zmm9 zmm10 zmm11 zmm12 zmm13 zmm14 zmm15
.B19.4::                        ; Preds .B19.3
                                ; Execution count [0.00e+000]
$LN3417:

;;; 		return SGX_ERROR_UNEXPECTED;

        mov       eax, 1                                        ;\\Mac\Home\Documents\Studium\6. Semester\Bachelorarbeit\Code\PerformanceTests\Enclave\PerformanceTests_t.c:886.3
$LN3418:
        lea       rsp, QWORD PTR [48+rbp]                       ;\\Mac\Home\Documents\Studium\6. Semester\Bachelorarbeit\Code\PerformanceTests\Enclave\PerformanceTests_t.c:886.3
$LN3419:
        pop       rbp                                           ;\\Mac\Home\Documents\Studium\6. Semester\Bachelorarbeit\Code\PerformanceTests\Enclave\PerformanceTests_t.c:886.3
$LN3420:
        ret                                                     ;\\Mac\Home\Documents\Studium\6. Semester\Bachelorarbeit\Code\PerformanceTests\Enclave\PerformanceTests_t.c:886.3
$LN3421:
                                ; LOE
.B19.5::                        ; Preds .B19.2
                                ; Execution count [0.00e+000]
$LN3422:

;;; 	}
;;; 	ms = (ms_sgx_thread_wait_untrusted_event_ocall_t*)__tmp;

        mov       rax, QWORD PTR [24+rbp]                       ;\\Mac\Home\Documents\Studium\6. Semester\Bachelorarbeit\Code\PerformanceTests\Enclave\PerformanceTests_t.c:888.2
$LN3423:
        mov       QWORD PTR [8+rbp], rax                        ;\\Mac\Home\Documents\Studium\6. Semester\Bachelorarbeit\Code\PerformanceTests\Enclave\PerformanceTests_t.c:888.2
$LN3424:

;;; 	__tmp = (void *)((size_t)__tmp + sizeof(ms_sgx_thread_wait_untrusted_event_ocall_t));

        add       QWORD PTR [24+rbp], 16                        ;\\Mac\Home\Documents\Studium\6. Semester\Bachelorarbeit\Code\PerformanceTests\Enclave\PerformanceTests_t.c:889.2
$LN3425:

;;; 
;;; 	ms->ms_self = SGX_CAST(void*, self);

        mov       rax, QWORD PTR [8+rbp]                        ;\\Mac\Home\Documents\Studium\6. Semester\Bachelorarbeit\Code\PerformanceTests\Enclave\PerformanceTests_t.c:891.2
$LN3426:
        mov       rdx, QWORD PTR [72+rbp]                       ;\\Mac\Home\Documents\Studium\6. Semester\Bachelorarbeit\Code\PerformanceTests\Enclave\PerformanceTests_t.c:891.2
$LN3427:
        mov       QWORD PTR [8+rax], rdx                        ;\\Mac\Home\Documents\Studium\6. Semester\Bachelorarbeit\Code\PerformanceTests\Enclave\PerformanceTests_t.c:891.2
$LN3428:

;;; 	status = sgx_ocall(1, ms);

        mov       eax, 1                                        ;\\Mac\Home\Documents\Studium\6. Semester\Bachelorarbeit\Code\PerformanceTests\Enclave\PerformanceTests_t.c:892.2
$LN3429:
        mov       rdx, QWORD PTR [8+rbp]                        ;\\Mac\Home\Documents\Studium\6. Semester\Bachelorarbeit\Code\PerformanceTests\Enclave\PerformanceTests_t.c:892.2
$LN3430:
        mov       ecx, eax                                      ;\\Mac\Home\Documents\Studium\6. Semester\Bachelorarbeit\Code\PerformanceTests\Enclave\PerformanceTests_t.c:892.2
$LN3431:
;       sgx_ocall(const unsigned int, void *)
        call      sgx_ocall                                     ;\\Mac\Home\Documents\Studium\6. Semester\Bachelorarbeit\Code\PerformanceTests\Enclave\PerformanceTests_t.c:892.2
$LN3432:
                                ; LOE rbx rbp rsi rdi rsp r12 r13 r14 r15 rip eax zmm6 zmm7 zmm8 zmm9 zmm10 zmm11 zmm12 zmm13 zmm14 zmm15
.B19.13::                       ; Preds .B19.5
                                ; Execution count [0.00e+000]
$LN3433:
        mov       DWORD PTR [4+rbp], eax                        ;\\Mac\Home\Documents\Studium\6. Semester\Bachelorarbeit\Code\PerformanceTests\Enclave\PerformanceTests_t.c:892.2
$LN3434:
                                ; LOE rbx rbp rsi rdi rsp r12 r13 r14 r15 rip zmm6 zmm7 zmm8 zmm9 zmm10 zmm11 zmm12 zmm13 zmm14 zmm15
.B19.6::                        ; Preds .B19.13
                                ; Execution count [0.00e+000]
$LN3435:
        mov       eax, DWORD PTR [4+rbp]                        ;\\Mac\Home\Documents\Studium\6. Semester\Bachelorarbeit\Code\PerformanceTests\Enclave\PerformanceTests_t.c:892.2
$LN3436:
        mov       DWORD PTR [rbp], eax                          ;\\Mac\Home\Documents\Studium\6. Semester\Bachelorarbeit\Code\PerformanceTests\Enclave\PerformanceTests_t.c:892.2
$LN3437:

;;; 
;;; 	if (retval) *retval = ms->ms_retval;

        mov       rax, QWORD PTR [64+rbp]                       ;\\Mac\Home\Documents\Studium\6. Semester\Bachelorarbeit\Code\PerformanceTests\Enclave\PerformanceTests_t.c:894.2
$LN3438:
        test      rax, rax                                      ;\\Mac\Home\Documents\Studium\6. Semester\Bachelorarbeit\Code\PerformanceTests\Enclave\PerformanceTests_t.c:894.2
$LN3439:
        je        .B19.8        ; Prob 50%                      ;\\Mac\Home\Documents\Studium\6. Semester\Bachelorarbeit\Code\PerformanceTests\Enclave\PerformanceTests_t.c:894.2
$LN3440:
                                ; LOE rbx rbp rsi rdi rsp r12 r13 r14 r15 rip zmm6 zmm7 zmm8 zmm9 zmm10 zmm11 zmm12 zmm13 zmm14 zmm15
.B19.7::                        ; Preds .B19.6
                                ; Execution count [0.00e+000]
$LN3441:
        mov       rax, QWORD PTR [8+rbp]                        ;\\Mac\Home\Documents\Studium\6. Semester\Bachelorarbeit\Code\PerformanceTests\Enclave\PerformanceTests_t.c:894.14
$LN3442:
        mov       rdx, QWORD PTR [64+rbp]                       ;\\Mac\Home\Documents\Studium\6. Semester\Bachelorarbeit\Code\PerformanceTests\Enclave\PerformanceTests_t.c:894.14
$LN3443:
        mov       eax, DWORD PTR [rax]                          ;\\Mac\Home\Documents\Studium\6. Semester\Bachelorarbeit\Code\PerformanceTests\Enclave\PerformanceTests_t.c:894.14
$LN3444:
        mov       DWORD PTR [rdx], eax                          ;\\Mac\Home\Documents\Studium\6. Semester\Bachelorarbeit\Code\PerformanceTests\Enclave\PerformanceTests_t.c:894.14
$LN3445:
                                ; LOE rbx rbp rsi rdi rsp r12 r13 r14 r15 rip zmm6 zmm7 zmm8 zmm9 zmm10 zmm11 zmm12 zmm13 zmm14 zmm15
.B19.8::                        ; Preds .B19.7 .B19.6
                                ; Execution count [0.00e+000]
$LN3446:

;;; 
;;; 	sgx_ocfree();

;       sgx_ocfree(void)
        call      sgx_ocfree                                    ;\\Mac\Home\Documents\Studium\6. Semester\Bachelorarbeit\Code\PerformanceTests\Enclave\PerformanceTests_t.c:896.2
$LN3447:
                                ; LOE rbx rbp rsi rdi rsp r12 r13 r14 r15 rip zmm6 zmm7 zmm8 zmm9 zmm10 zmm11 zmm12 zmm13 zmm14 zmm15
.B19.9::                        ; Preds .B19.8
                                ; Execution count [0.00e+000]
$LN3448:

;;; 	return status;

        mov       eax, DWORD PTR [rbp]                          ;\\Mac\Home\Documents\Studium\6. Semester\Bachelorarbeit\Code\PerformanceTests\Enclave\PerformanceTests_t.c:897.2
$LN3449:
        lea       rsp, QWORD PTR [48+rbp]                       ;\\Mac\Home\Documents\Studium\6. Semester\Bachelorarbeit\Code\PerformanceTests\Enclave\PerformanceTests_t.c:897.2
$LN3450:
        pop       rbp                                           ;\\Mac\Home\Documents\Studium\6. Semester\Bachelorarbeit\Code\PerformanceTests\Enclave\PerformanceTests_t.c:897.2
$LN3451:
        ret                                                     ;\\Mac\Home\Documents\Studium\6. Semester\Bachelorarbeit\Code\PerformanceTests\Enclave\PerformanceTests_t.c:897.2
$LN3452:
                                ; LOE
.B19.10::
$LN3453:
; mark_end;
sgx_thread_wait_untrusted_event_ocall ENDP
$LNsgx_thread_wait_untrusted_event_ocall$3454:
_TEXT	ENDS
.xdata	SEGMENT  DWORD   READ  ''
	ALIGN 004H
.unwind.sgx_thread_wait_untrusted_event_ocall.B1_B9	DD	620956161
	DD	2449801994
	DD	20481
.xdata	ENDS
.pdata	SEGMENT  DWORD   READ  ''
	ALIGN 004H
.pdata.sgx_thread_wait_untrusted_event_ocall.B1_B9	DD	imagerel .B19.1
	DD	imagerel .B19.10
	DD	imagerel .unwind.sgx_thread_wait_untrusted_event_ocall.B1_B9
.pdata	ENDS
_DATA	SEGMENT      'DATA'
_DATA	ENDS
; -- End  sgx_thread_wait_untrusted_event_ocall
_TEXT	SEGMENT      'CODE'
_2__routine_start_sgx_thread_set_untrusted_event_ocall_19:
; -- Begin  sgx_thread_set_untrusted_event_ocall
_TEXT	ENDS
_TEXT	SEGMENT      'CODE'
; mark_begin;

	PUBLIC sgx_thread_set_untrusted_event_ocall
; --- sgx_thread_set_untrusted_event_ocall(int *, const void *)
sgx_thread_set_untrusted_event_ocall	PROC 
; parameter 1(retval): rcx
; parameter 2(waiter): rdx
.B20.1::                        ; Preds .B20.0
                                ; Execution count [0.00e+000]

;;; {

L160::
                                                         ;\\Mac\Home\Documents\Studium\6. Semester\Bachelorarbeit\Code\PerformanceTests\Enclave\PerformanceTests_t.c:901.1
$LN3455:
        push      rbp                                           ;\\Mac\Home\Documents\Studium\6. Semester\Bachelorarbeit\Code\PerformanceTests\Enclave\PerformanceTests_t.c:901.1
$LN3456:
        sub       rsp, 80                                       ;\\Mac\Home\Documents\Studium\6. Semester\Bachelorarbeit\Code\PerformanceTests\Enclave\PerformanceTests_t.c:901.1
$LN3457:
        lea       rbp, QWORD PTR [32+rsp]                       ;\\Mac\Home\Documents\Studium\6. Semester\Bachelorarbeit\Code\PerformanceTests\Enclave\PerformanceTests_t.c:901.1
$LN3458:
        mov       QWORD PTR [64+rbp], rcx                       ;\\Mac\Home\Documents\Studium\6. Semester\Bachelorarbeit\Code\PerformanceTests\Enclave\PerformanceTests_t.c:901.1
$LN3459:
        mov       QWORD PTR [72+rbp], rdx                       ;\\Mac\Home\Documents\Studium\6. Semester\Bachelorarbeit\Code\PerformanceTests\Enclave\PerformanceTests_t.c:901.1
$LN3460:

;;; 	sgx_status_t status = SGX_SUCCESS;

        mov       DWORD PTR [rbp], 0                            ;\\Mac\Home\Documents\Studium\6. Semester\Bachelorarbeit\Code\PerformanceTests\Enclave\PerformanceTests_t.c:902.22
$LN3461:

;;; 
;;; 	ms_sgx_thread_set_untrusted_event_ocall_t* ms = NULL;

        mov       QWORD PTR [8+rbp], 0                          ;\\Mac\Home\Documents\Studium\6. Semester\Bachelorarbeit\Code\PerformanceTests\Enclave\PerformanceTests_t.c:904.48
$LN3462:

;;; 	size_t ocalloc_size = sizeof(ms_sgx_thread_set_untrusted_event_ocall_t);

        mov       QWORD PTR [16+rbp], 16                        ;\\Mac\Home\Documents\Studium\6. Semester\Bachelorarbeit\Code\PerformanceTests\Enclave\PerformanceTests_t.c:905.22
$LN3463:

;;; 	void *__tmp = NULL;

        mov       QWORD PTR [24+rbp], 0                         ;\\Mac\Home\Documents\Studium\6. Semester\Bachelorarbeit\Code\PerformanceTests\Enclave\PerformanceTests_t.c:906.14
$LN3464:

;;; 
;;; 
;;; 	__tmp = sgx_ocalloc(ocalloc_size);

        mov       rax, QWORD PTR [16+rbp]                       ;\\Mac\Home\Documents\Studium\6. Semester\Bachelorarbeit\Code\PerformanceTests\Enclave\PerformanceTests_t.c:909.2
$LN3465:
        mov       rcx, rax                                      ;\\Mac\Home\Documents\Studium\6. Semester\Bachelorarbeit\Code\PerformanceTests\Enclave\PerformanceTests_t.c:909.2
$LN3466:
;       sgx_ocalloc(size_t)
        call      sgx_ocalloc                                   ;\\Mac\Home\Documents\Studium\6. Semester\Bachelorarbeit\Code\PerformanceTests\Enclave\PerformanceTests_t.c:909.2
$LN3467:
                                ; LOE rax rbx rbp rsi rdi rsp r12 r13 r14 r15 rip zmm6 zmm7 zmm8 zmm9 zmm10 zmm11 zmm12 zmm13 zmm14 zmm15
.B20.12::                       ; Preds .B20.1
                                ; Execution count [0.00e+000]
$LN3468:
        mov       QWORD PTR [32+rbp], rax                       ;\\Mac\Home\Documents\Studium\6. Semester\Bachelorarbeit\Code\PerformanceTests\Enclave\PerformanceTests_t.c:909.2
$LN3469:
                                ; LOE rbx rbp rsi rdi rsp r12 r13 r14 r15 rip zmm6 zmm7 zmm8 zmm9 zmm10 zmm11 zmm12 zmm13 zmm14 zmm15
.B20.2::                        ; Preds .B20.12
                                ; Execution count [0.00e+000]
$LN3470:
        mov       rax, QWORD PTR [32+rbp]                       ;\\Mac\Home\Documents\Studium\6. Semester\Bachelorarbeit\Code\PerformanceTests\Enclave\PerformanceTests_t.c:909.2
$LN3471:
        mov       QWORD PTR [24+rbp], rax                       ;\\Mac\Home\Documents\Studium\6. Semester\Bachelorarbeit\Code\PerformanceTests\Enclave\PerformanceTests_t.c:909.2
$LN3472:

;;; 	if (__tmp == NULL) {

        mov       rax, QWORD PTR [24+rbp]                       ;\\Mac\Home\Documents\Studium\6. Semester\Bachelorarbeit\Code\PerformanceTests\Enclave\PerformanceTests_t.c:910.2
$LN3473:
        test      rax, rax                                      ;\\Mac\Home\Documents\Studium\6. Semester\Bachelorarbeit\Code\PerformanceTests\Enclave\PerformanceTests_t.c:910.2
$LN3474:
        jne       .B20.5        ; Prob 50%                      ;\\Mac\Home\Documents\Studium\6. Semester\Bachelorarbeit\Code\PerformanceTests\Enclave\PerformanceTests_t.c:910.2
$LN3475:
                                ; LOE rbx rbp rsi rdi rsp r12 r13 r14 r15 rip zmm6 zmm7 zmm8 zmm9 zmm10 zmm11 zmm12 zmm13 zmm14 zmm15
.B20.3::                        ; Preds .B20.2
                                ; Execution count [0.00e+000]
$LN3476:

;;; 		sgx_ocfree();

;       sgx_ocfree(void)
        call      sgx_ocfree                                    ;\\Mac\Home\Documents\Studium\6. Semester\Bachelorarbeit\Code\PerformanceTests\Enclave\PerformanceTests_t.c:911.3
$LN3477:
                                ; LOE rbx rbp rsi rdi rsp r12 r13 r14 r15 rip zmm6 zmm7 zmm8 zmm9 zmm10 zmm11 zmm12 zmm13 zmm14 zmm15
.B20.4::                        ; Preds .B20.3
                                ; Execution count [0.00e+000]
$LN3478:

;;; 		return SGX_ERROR_UNEXPECTED;

        mov       eax, 1                                        ;\\Mac\Home\Documents\Studium\6. Semester\Bachelorarbeit\Code\PerformanceTests\Enclave\PerformanceTests_t.c:912.3
$LN3479:
        lea       rsp, QWORD PTR [48+rbp]                       ;\\Mac\Home\Documents\Studium\6. Semester\Bachelorarbeit\Code\PerformanceTests\Enclave\PerformanceTests_t.c:912.3
$LN3480:
        pop       rbp                                           ;\\Mac\Home\Documents\Studium\6. Semester\Bachelorarbeit\Code\PerformanceTests\Enclave\PerformanceTests_t.c:912.3
$LN3481:
        ret                                                     ;\\Mac\Home\Documents\Studium\6. Semester\Bachelorarbeit\Code\PerformanceTests\Enclave\PerformanceTests_t.c:912.3
$LN3482:
                                ; LOE
.B20.5::                        ; Preds .B20.2
                                ; Execution count [0.00e+000]
$LN3483:

;;; 	}
;;; 	ms = (ms_sgx_thread_set_untrusted_event_ocall_t*)__tmp;

        mov       rax, QWORD PTR [24+rbp]                       ;\\Mac\Home\Documents\Studium\6. Semester\Bachelorarbeit\Code\PerformanceTests\Enclave\PerformanceTests_t.c:914.2
$LN3484:
        mov       QWORD PTR [8+rbp], rax                        ;\\Mac\Home\Documents\Studium\6. Semester\Bachelorarbeit\Code\PerformanceTests\Enclave\PerformanceTests_t.c:914.2
$LN3485:

;;; 	__tmp = (void *)((size_t)__tmp + sizeof(ms_sgx_thread_set_untrusted_event_ocall_t));

        add       QWORD PTR [24+rbp], 16                        ;\\Mac\Home\Documents\Studium\6. Semester\Bachelorarbeit\Code\PerformanceTests\Enclave\PerformanceTests_t.c:915.2
$LN3486:

;;; 
;;; 	ms->ms_waiter = SGX_CAST(void*, waiter);

        mov       rax, QWORD PTR [8+rbp]                        ;\\Mac\Home\Documents\Studium\6. Semester\Bachelorarbeit\Code\PerformanceTests\Enclave\PerformanceTests_t.c:917.2
$LN3487:
        mov       rdx, QWORD PTR [72+rbp]                       ;\\Mac\Home\Documents\Studium\6. Semester\Bachelorarbeit\Code\PerformanceTests\Enclave\PerformanceTests_t.c:917.2
$LN3488:
        mov       QWORD PTR [8+rax], rdx                        ;\\Mac\Home\Documents\Studium\6. Semester\Bachelorarbeit\Code\PerformanceTests\Enclave\PerformanceTests_t.c:917.2
$LN3489:

;;; 	status = sgx_ocall(2, ms);

        mov       eax, 2                                        ;\\Mac\Home\Documents\Studium\6. Semester\Bachelorarbeit\Code\PerformanceTests\Enclave\PerformanceTests_t.c:918.2
$LN3490:
        mov       rdx, QWORD PTR [8+rbp]                        ;\\Mac\Home\Documents\Studium\6. Semester\Bachelorarbeit\Code\PerformanceTests\Enclave\PerformanceTests_t.c:918.2
$LN3491:
        mov       ecx, eax                                      ;\\Mac\Home\Documents\Studium\6. Semester\Bachelorarbeit\Code\PerformanceTests\Enclave\PerformanceTests_t.c:918.2
$LN3492:
;       sgx_ocall(const unsigned int, void *)
        call      sgx_ocall                                     ;\\Mac\Home\Documents\Studium\6. Semester\Bachelorarbeit\Code\PerformanceTests\Enclave\PerformanceTests_t.c:918.2
$LN3493:
                                ; LOE rbx rbp rsi rdi rsp r12 r13 r14 r15 rip eax zmm6 zmm7 zmm8 zmm9 zmm10 zmm11 zmm12 zmm13 zmm14 zmm15
.B20.13::                       ; Preds .B20.5
                                ; Execution count [0.00e+000]
$LN3494:
        mov       DWORD PTR [4+rbp], eax                        ;\\Mac\Home\Documents\Studium\6. Semester\Bachelorarbeit\Code\PerformanceTests\Enclave\PerformanceTests_t.c:918.2
$LN3495:
                                ; LOE rbx rbp rsi rdi rsp r12 r13 r14 r15 rip zmm6 zmm7 zmm8 zmm9 zmm10 zmm11 zmm12 zmm13 zmm14 zmm15
.B20.6::                        ; Preds .B20.13
                                ; Execution count [0.00e+000]
$LN3496:
        mov       eax, DWORD PTR [4+rbp]                        ;\\Mac\Home\Documents\Studium\6. Semester\Bachelorarbeit\Code\PerformanceTests\Enclave\PerformanceTests_t.c:918.2
$LN3497:
        mov       DWORD PTR [rbp], eax                          ;\\Mac\Home\Documents\Studium\6. Semester\Bachelorarbeit\Code\PerformanceTests\Enclave\PerformanceTests_t.c:918.2
$LN3498:

;;; 
;;; 	if (retval) *retval = ms->ms_retval;

        mov       rax, QWORD PTR [64+rbp]                       ;\\Mac\Home\Documents\Studium\6. Semester\Bachelorarbeit\Code\PerformanceTests\Enclave\PerformanceTests_t.c:920.2
$LN3499:
        test      rax, rax                                      ;\\Mac\Home\Documents\Studium\6. Semester\Bachelorarbeit\Code\PerformanceTests\Enclave\PerformanceTests_t.c:920.2
$LN3500:
        je        .B20.8        ; Prob 50%                      ;\\Mac\Home\Documents\Studium\6. Semester\Bachelorarbeit\Code\PerformanceTests\Enclave\PerformanceTests_t.c:920.2
$LN3501:
                                ; LOE rbx rbp rsi rdi rsp r12 r13 r14 r15 rip zmm6 zmm7 zmm8 zmm9 zmm10 zmm11 zmm12 zmm13 zmm14 zmm15
.B20.7::                        ; Preds .B20.6
                                ; Execution count [0.00e+000]
$LN3502:
        mov       rax, QWORD PTR [8+rbp]                        ;\\Mac\Home\Documents\Studium\6. Semester\Bachelorarbeit\Code\PerformanceTests\Enclave\PerformanceTests_t.c:920.14
$LN3503:
        mov       rdx, QWORD PTR [64+rbp]                       ;\\Mac\Home\Documents\Studium\6. Semester\Bachelorarbeit\Code\PerformanceTests\Enclave\PerformanceTests_t.c:920.14
$LN3504:
        mov       eax, DWORD PTR [rax]                          ;\\Mac\Home\Documents\Studium\6. Semester\Bachelorarbeit\Code\PerformanceTests\Enclave\PerformanceTests_t.c:920.14
$LN3505:
        mov       DWORD PTR [rdx], eax                          ;\\Mac\Home\Documents\Studium\6. Semester\Bachelorarbeit\Code\PerformanceTests\Enclave\PerformanceTests_t.c:920.14
$LN3506:
                                ; LOE rbx rbp rsi rdi rsp r12 r13 r14 r15 rip zmm6 zmm7 zmm8 zmm9 zmm10 zmm11 zmm12 zmm13 zmm14 zmm15
.B20.8::                        ; Preds .B20.7 .B20.6
                                ; Execution count [0.00e+000]
$LN3507:

;;; 
;;; 	sgx_ocfree();

;       sgx_ocfree(void)
        call      sgx_ocfree                                    ;\\Mac\Home\Documents\Studium\6. Semester\Bachelorarbeit\Code\PerformanceTests\Enclave\PerformanceTests_t.c:922.2
$LN3508:
                                ; LOE rbx rbp rsi rdi rsp r12 r13 r14 r15 rip zmm6 zmm7 zmm8 zmm9 zmm10 zmm11 zmm12 zmm13 zmm14 zmm15
.B20.9::                        ; Preds .B20.8
                                ; Execution count [0.00e+000]
$LN3509:

;;; 	return status;

        mov       eax, DWORD PTR [rbp]                          ;\\Mac\Home\Documents\Studium\6. Semester\Bachelorarbeit\Code\PerformanceTests\Enclave\PerformanceTests_t.c:923.2
$LN3510:
        lea       rsp, QWORD PTR [48+rbp]                       ;\\Mac\Home\Documents\Studium\6. Semester\Bachelorarbeit\Code\PerformanceTests\Enclave\PerformanceTests_t.c:923.2
$LN3511:
        pop       rbp                                           ;\\Mac\Home\Documents\Studium\6. Semester\Bachelorarbeit\Code\PerformanceTests\Enclave\PerformanceTests_t.c:923.2
$LN3512:
        ret                                                     ;\\Mac\Home\Documents\Studium\6. Semester\Bachelorarbeit\Code\PerformanceTests\Enclave\PerformanceTests_t.c:923.2
$LN3513:
                                ; LOE
.B20.10::
$LN3514:
; mark_end;
sgx_thread_set_untrusted_event_ocall ENDP
$LNsgx_thread_set_untrusted_event_ocall$3515:
_TEXT	ENDS
.xdata	SEGMENT  DWORD   READ  ''
	ALIGN 004H
.unwind.sgx_thread_set_untrusted_event_ocall.B1_B9	DD	620956161
	DD	2449801994
	DD	20481
.xdata	ENDS
.pdata	SEGMENT  DWORD   READ  ''
	ALIGN 004H
.pdata.sgx_thread_set_untrusted_event_ocall.B1_B9	DD	imagerel .B20.1
	DD	imagerel .B20.10
	DD	imagerel .unwind.sgx_thread_set_untrusted_event_ocall.B1_B9
.pdata	ENDS
_DATA	SEGMENT      'DATA'
_DATA	ENDS
; -- End  sgx_thread_set_untrusted_event_ocall
_TEXT	SEGMENT      'CODE'
_2__routine_start_sgx_thread_setwait_untrusted_events_ocall_20:
; -- Begin  sgx_thread_setwait_untrusted_events_ocall
_TEXT	ENDS
_TEXT	SEGMENT      'CODE'
; mark_begin;

	PUBLIC sgx_thread_setwait_untrusted_events_ocall
; --- sgx_thread_setwait_untrusted_events_ocall(int *, const void *, const void *)
sgx_thread_setwait_untrusted_events_ocall	PROC 
; parameter 1(retval): rcx
; parameter 2(waiter): rdx
; parameter 3(self): r8
.B21.1::                        ; Preds .B21.0
                                ; Execution count [0.00e+000]

;;; {

L167::
                                                         ;\\Mac\Home\Documents\Studium\6. Semester\Bachelorarbeit\Code\PerformanceTests\Enclave\PerformanceTests_t.c:927.1
$LN3516:
        push      rbp                                           ;\\Mac\Home\Documents\Studium\6. Semester\Bachelorarbeit\Code\PerformanceTests\Enclave\PerformanceTests_t.c:927.1
$LN3517:
        sub       rsp, 80                                       ;\\Mac\Home\Documents\Studium\6. Semester\Bachelorarbeit\Code\PerformanceTests\Enclave\PerformanceTests_t.c:927.1
$LN3518:
        lea       rbp, QWORD PTR [32+rsp]                       ;\\Mac\Home\Documents\Studium\6. Semester\Bachelorarbeit\Code\PerformanceTests\Enclave\PerformanceTests_t.c:927.1
$LN3519:
        mov       QWORD PTR [64+rbp], rcx                       ;\\Mac\Home\Documents\Studium\6. Semester\Bachelorarbeit\Code\PerformanceTests\Enclave\PerformanceTests_t.c:927.1
$LN3520:
        mov       QWORD PTR [72+rbp], rdx                       ;\\Mac\Home\Documents\Studium\6. Semester\Bachelorarbeit\Code\PerformanceTests\Enclave\PerformanceTests_t.c:927.1
$LN3521:
        mov       QWORD PTR [80+rbp], r8                        ;\\Mac\Home\Documents\Studium\6. Semester\Bachelorarbeit\Code\PerformanceTests\Enclave\PerformanceTests_t.c:927.1
$LN3522:

;;; 	sgx_status_t status = SGX_SUCCESS;

        mov       DWORD PTR [rbp], 0                            ;\\Mac\Home\Documents\Studium\6. Semester\Bachelorarbeit\Code\PerformanceTests\Enclave\PerformanceTests_t.c:928.22
$LN3523:

;;; 
;;; 	ms_sgx_thread_setwait_untrusted_events_ocall_t* ms = NULL;

        mov       QWORD PTR [8+rbp], 0                          ;\\Mac\Home\Documents\Studium\6. Semester\Bachelorarbeit\Code\PerformanceTests\Enclave\PerformanceTests_t.c:930.53
$LN3524:

;;; 	size_t ocalloc_size = sizeof(ms_sgx_thread_setwait_untrusted_events_ocall_t);

        mov       QWORD PTR [16+rbp], 24                        ;\\Mac\Home\Documents\Studium\6. Semester\Bachelorarbeit\Code\PerformanceTests\Enclave\PerformanceTests_t.c:931.22
$LN3525:

;;; 	void *__tmp = NULL;

        mov       QWORD PTR [24+rbp], 0                         ;\\Mac\Home\Documents\Studium\6. Semester\Bachelorarbeit\Code\PerformanceTests\Enclave\PerformanceTests_t.c:932.14
$LN3526:

;;; 
;;; 
;;; 	__tmp = sgx_ocalloc(ocalloc_size);

        mov       rax, QWORD PTR [16+rbp]                       ;\\Mac\Home\Documents\Studium\6. Semester\Bachelorarbeit\Code\PerformanceTests\Enclave\PerformanceTests_t.c:935.2
$LN3527:
        mov       rcx, rax                                      ;\\Mac\Home\Documents\Studium\6. Semester\Bachelorarbeit\Code\PerformanceTests\Enclave\PerformanceTests_t.c:935.2
$LN3528:
;       sgx_ocalloc(size_t)
        call      sgx_ocalloc                                   ;\\Mac\Home\Documents\Studium\6. Semester\Bachelorarbeit\Code\PerformanceTests\Enclave\PerformanceTests_t.c:935.2
$LN3529:
                                ; LOE rax rbx rbp rsi rdi rsp r12 r13 r14 r15 rip zmm6 zmm7 zmm8 zmm9 zmm10 zmm11 zmm12 zmm13 zmm14 zmm15
.B21.12::                       ; Preds .B21.1
                                ; Execution count [0.00e+000]
$LN3530:
        mov       QWORD PTR [32+rbp], rax                       ;\\Mac\Home\Documents\Studium\6. Semester\Bachelorarbeit\Code\PerformanceTests\Enclave\PerformanceTests_t.c:935.2
$LN3531:
                                ; LOE rbx rbp rsi rdi rsp r12 r13 r14 r15 rip zmm6 zmm7 zmm8 zmm9 zmm10 zmm11 zmm12 zmm13 zmm14 zmm15
.B21.2::                        ; Preds .B21.12
                                ; Execution count [0.00e+000]
$LN3532:
        mov       rax, QWORD PTR [32+rbp]                       ;\\Mac\Home\Documents\Studium\6. Semester\Bachelorarbeit\Code\PerformanceTests\Enclave\PerformanceTests_t.c:935.2
$LN3533:
        mov       QWORD PTR [24+rbp], rax                       ;\\Mac\Home\Documents\Studium\6. Semester\Bachelorarbeit\Code\PerformanceTests\Enclave\PerformanceTests_t.c:935.2
$LN3534:

;;; 	if (__tmp == NULL) {

        mov       rax, QWORD PTR [24+rbp]                       ;\\Mac\Home\Documents\Studium\6. Semester\Bachelorarbeit\Code\PerformanceTests\Enclave\PerformanceTests_t.c:936.2
$LN3535:
        test      rax, rax                                      ;\\Mac\Home\Documents\Studium\6. Semester\Bachelorarbeit\Code\PerformanceTests\Enclave\PerformanceTests_t.c:936.2
$LN3536:
        jne       .B21.5        ; Prob 50%                      ;\\Mac\Home\Documents\Studium\6. Semester\Bachelorarbeit\Code\PerformanceTests\Enclave\PerformanceTests_t.c:936.2
$LN3537:
                                ; LOE rbx rbp rsi rdi rsp r12 r13 r14 r15 rip zmm6 zmm7 zmm8 zmm9 zmm10 zmm11 zmm12 zmm13 zmm14 zmm15
.B21.3::                        ; Preds .B21.2
                                ; Execution count [0.00e+000]
$LN3538:

;;; 		sgx_ocfree();

;       sgx_ocfree(void)
        call      sgx_ocfree                                    ;\\Mac\Home\Documents\Studium\6. Semester\Bachelorarbeit\Code\PerformanceTests\Enclave\PerformanceTests_t.c:937.3
$LN3539:
                                ; LOE rbx rbp rsi rdi rsp r12 r13 r14 r15 rip zmm6 zmm7 zmm8 zmm9 zmm10 zmm11 zmm12 zmm13 zmm14 zmm15
.B21.4::                        ; Preds .B21.3
                                ; Execution count [0.00e+000]
$LN3540:

;;; 		return SGX_ERROR_UNEXPECTED;

        mov       eax, 1                                        ;\\Mac\Home\Documents\Studium\6. Semester\Bachelorarbeit\Code\PerformanceTests\Enclave\PerformanceTests_t.c:938.3
$LN3541:
        lea       rsp, QWORD PTR [48+rbp]                       ;\\Mac\Home\Documents\Studium\6. Semester\Bachelorarbeit\Code\PerformanceTests\Enclave\PerformanceTests_t.c:938.3
$LN3542:
        pop       rbp                                           ;\\Mac\Home\Documents\Studium\6. Semester\Bachelorarbeit\Code\PerformanceTests\Enclave\PerformanceTests_t.c:938.3
$LN3543:
        ret                                                     ;\\Mac\Home\Documents\Studium\6. Semester\Bachelorarbeit\Code\PerformanceTests\Enclave\PerformanceTests_t.c:938.3
$LN3544:
                                ; LOE
.B21.5::                        ; Preds .B21.2
                                ; Execution count [0.00e+000]
$LN3545:

;;; 	}
;;; 	ms = (ms_sgx_thread_setwait_untrusted_events_ocall_t*)__tmp;

        mov       rax, QWORD PTR [24+rbp]                       ;\\Mac\Home\Documents\Studium\6. Semester\Bachelorarbeit\Code\PerformanceTests\Enclave\PerformanceTests_t.c:940.2
$LN3546:
        mov       QWORD PTR [8+rbp], rax                        ;\\Mac\Home\Documents\Studium\6. Semester\Bachelorarbeit\Code\PerformanceTests\Enclave\PerformanceTests_t.c:940.2
$LN3547:

;;; 	__tmp = (void *)((size_t)__tmp + sizeof(ms_sgx_thread_setwait_untrusted_events_ocall_t));

        add       QWORD PTR [24+rbp], 24                        ;\\Mac\Home\Documents\Studium\6. Semester\Bachelorarbeit\Code\PerformanceTests\Enclave\PerformanceTests_t.c:941.2
$LN3548:

;;; 
;;; 	ms->ms_waiter = SGX_CAST(void*, waiter);

        mov       rax, QWORD PTR [8+rbp]                        ;\\Mac\Home\Documents\Studium\6. Semester\Bachelorarbeit\Code\PerformanceTests\Enclave\PerformanceTests_t.c:943.2
$LN3549:
        mov       rdx, QWORD PTR [72+rbp]                       ;\\Mac\Home\Documents\Studium\6. Semester\Bachelorarbeit\Code\PerformanceTests\Enclave\PerformanceTests_t.c:943.2
$LN3550:
        mov       QWORD PTR [8+rax], rdx                        ;\\Mac\Home\Documents\Studium\6. Semester\Bachelorarbeit\Code\PerformanceTests\Enclave\PerformanceTests_t.c:943.2
$LN3551:

;;; 	ms->ms_self = SGX_CAST(void*, self);

        mov       rax, QWORD PTR [8+rbp]                        ;\\Mac\Home\Documents\Studium\6. Semester\Bachelorarbeit\Code\PerformanceTests\Enclave\PerformanceTests_t.c:944.2
$LN3552:
        mov       rdx, QWORD PTR [80+rbp]                       ;\\Mac\Home\Documents\Studium\6. Semester\Bachelorarbeit\Code\PerformanceTests\Enclave\PerformanceTests_t.c:944.2
$LN3553:
        mov       QWORD PTR [16+rax], rdx                       ;\\Mac\Home\Documents\Studium\6. Semester\Bachelorarbeit\Code\PerformanceTests\Enclave\PerformanceTests_t.c:944.2
$LN3554:

;;; 	status = sgx_ocall(3, ms);

        mov       eax, 3                                        ;\\Mac\Home\Documents\Studium\6. Semester\Bachelorarbeit\Code\PerformanceTests\Enclave\PerformanceTests_t.c:945.2
$LN3555:
        mov       rdx, QWORD PTR [8+rbp]                        ;\\Mac\Home\Documents\Studium\6. Semester\Bachelorarbeit\Code\PerformanceTests\Enclave\PerformanceTests_t.c:945.2
$LN3556:
        mov       ecx, eax                                      ;\\Mac\Home\Documents\Studium\6. Semester\Bachelorarbeit\Code\PerformanceTests\Enclave\PerformanceTests_t.c:945.2
$LN3557:
;       sgx_ocall(const unsigned int, void *)
        call      sgx_ocall                                     ;\\Mac\Home\Documents\Studium\6. Semester\Bachelorarbeit\Code\PerformanceTests\Enclave\PerformanceTests_t.c:945.2
$LN3558:
                                ; LOE rbx rbp rsi rdi rsp r12 r13 r14 r15 rip eax zmm6 zmm7 zmm8 zmm9 zmm10 zmm11 zmm12 zmm13 zmm14 zmm15
.B21.13::                       ; Preds .B21.5
                                ; Execution count [0.00e+000]
$LN3559:
        mov       DWORD PTR [4+rbp], eax                        ;\\Mac\Home\Documents\Studium\6. Semester\Bachelorarbeit\Code\PerformanceTests\Enclave\PerformanceTests_t.c:945.2
$LN3560:
                                ; LOE rbx rbp rsi rdi rsp r12 r13 r14 r15 rip zmm6 zmm7 zmm8 zmm9 zmm10 zmm11 zmm12 zmm13 zmm14 zmm15
.B21.6::                        ; Preds .B21.13
                                ; Execution count [0.00e+000]
$LN3561:
        mov       eax, DWORD PTR [4+rbp]                        ;\\Mac\Home\Documents\Studium\6. Semester\Bachelorarbeit\Code\PerformanceTests\Enclave\PerformanceTests_t.c:945.2
$LN3562:
        mov       DWORD PTR [rbp], eax                          ;\\Mac\Home\Documents\Studium\6. Semester\Bachelorarbeit\Code\PerformanceTests\Enclave\PerformanceTests_t.c:945.2
$LN3563:

;;; 
;;; 	if (retval) *retval = ms->ms_retval;

        mov       rax, QWORD PTR [64+rbp]                       ;\\Mac\Home\Documents\Studium\6. Semester\Bachelorarbeit\Code\PerformanceTests\Enclave\PerformanceTests_t.c:947.2
$LN3564:
        test      rax, rax                                      ;\\Mac\Home\Documents\Studium\6. Semester\Bachelorarbeit\Code\PerformanceTests\Enclave\PerformanceTests_t.c:947.2
$LN3565:
        je        .B21.8        ; Prob 50%                      ;\\Mac\Home\Documents\Studium\6. Semester\Bachelorarbeit\Code\PerformanceTests\Enclave\PerformanceTests_t.c:947.2
$LN3566:
                                ; LOE rbx rbp rsi rdi rsp r12 r13 r14 r15 rip zmm6 zmm7 zmm8 zmm9 zmm10 zmm11 zmm12 zmm13 zmm14 zmm15
.B21.7::                        ; Preds .B21.6
                                ; Execution count [0.00e+000]
$LN3567:
        mov       rax, QWORD PTR [8+rbp]                        ;\\Mac\Home\Documents\Studium\6. Semester\Bachelorarbeit\Code\PerformanceTests\Enclave\PerformanceTests_t.c:947.14
$LN3568:
        mov       rdx, QWORD PTR [64+rbp]                       ;\\Mac\Home\Documents\Studium\6. Semester\Bachelorarbeit\Code\PerformanceTests\Enclave\PerformanceTests_t.c:947.14
$LN3569:
        mov       eax, DWORD PTR [rax]                          ;\\Mac\Home\Documents\Studium\6. Semester\Bachelorarbeit\Code\PerformanceTests\Enclave\PerformanceTests_t.c:947.14
$LN3570:
        mov       DWORD PTR [rdx], eax                          ;\\Mac\Home\Documents\Studium\6. Semester\Bachelorarbeit\Code\PerformanceTests\Enclave\PerformanceTests_t.c:947.14
$LN3571:
                                ; LOE rbx rbp rsi rdi rsp r12 r13 r14 r15 rip zmm6 zmm7 zmm8 zmm9 zmm10 zmm11 zmm12 zmm13 zmm14 zmm15
.B21.8::                        ; Preds .B21.7 .B21.6
                                ; Execution count [0.00e+000]
$LN3572:

;;; 
;;; 	sgx_ocfree();

;       sgx_ocfree(void)
        call      sgx_ocfree                                    ;\\Mac\Home\Documents\Studium\6. Semester\Bachelorarbeit\Code\PerformanceTests\Enclave\PerformanceTests_t.c:949.2
$LN3573:
                                ; LOE rbx rbp rsi rdi rsp r12 r13 r14 r15 rip zmm6 zmm7 zmm8 zmm9 zmm10 zmm11 zmm12 zmm13 zmm14 zmm15
.B21.9::                        ; Preds .B21.8
                                ; Execution count [0.00e+000]
$LN3574:

;;; 	return status;

        mov       eax, DWORD PTR [rbp]                          ;\\Mac\Home\Documents\Studium\6. Semester\Bachelorarbeit\Code\PerformanceTests\Enclave\PerformanceTests_t.c:950.2
$LN3575:
        lea       rsp, QWORD PTR [48+rbp]                       ;\\Mac\Home\Documents\Studium\6. Semester\Bachelorarbeit\Code\PerformanceTests\Enclave\PerformanceTests_t.c:950.2
$LN3576:
        pop       rbp                                           ;\\Mac\Home\Documents\Studium\6. Semester\Bachelorarbeit\Code\PerformanceTests\Enclave\PerformanceTests_t.c:950.2
$LN3577:
        ret                                                     ;\\Mac\Home\Documents\Studium\6. Semester\Bachelorarbeit\Code\PerformanceTests\Enclave\PerformanceTests_t.c:950.2
$LN3578:
                                ; LOE
.B21.10::
$LN3579:
; mark_end;
sgx_thread_setwait_untrusted_events_ocall ENDP
$LNsgx_thread_setwait_untrusted_events_ocall$3580:
_TEXT	ENDS
.xdata	SEGMENT  DWORD   READ  ''
	ALIGN 004H
.unwind.sgx_thread_setwait_untrusted_events_ocall.B1_B9	DD	620956161
	DD	2449801994
	DD	20481
.xdata	ENDS
.pdata	SEGMENT  DWORD   READ  ''
	ALIGN 004H
.pdata.sgx_thread_setwait_untrusted_events_ocall.B1_B9	DD	imagerel .B21.1
	DD	imagerel .B21.10
	DD	imagerel .unwind.sgx_thread_setwait_untrusted_events_ocall.B1_B9
.pdata	ENDS
_DATA	SEGMENT      'DATA'
_DATA	ENDS
; -- End  sgx_thread_setwait_untrusted_events_ocall
_TEXT	SEGMENT      'CODE'
_2__routine_start_sgx_thread_set_multiple_untrusted_events_ocall_21:
; -- Begin  sgx_thread_set_multiple_untrusted_events_ocall
_TEXT	ENDS
_TEXT	SEGMENT      'CODE'
; mark_begin;

	PUBLIC sgx_thread_set_multiple_untrusted_events_ocall
; --- sgx_thread_set_multiple_untrusted_events_ocall(int *, const void **, size_t)
sgx_thread_set_multiple_untrusted_events_ocall	PROC 
; parameter 1(retval): rcx
; parameter 2(waiters): rdx
; parameter 3(total): r8
.B22.1::                        ; Preds .B22.0
                                ; Execution count [0.00e+000]

;;; {

L174::
                                                         ;\\Mac\Home\Documents\Studium\6. Semester\Bachelorarbeit\Code\PerformanceTests\Enclave\PerformanceTests_t.c:954.1
$LN3581:
        push      rbp                                           ;\\Mac\Home\Documents\Studium\6. Semester\Bachelorarbeit\Code\PerformanceTests\Enclave\PerformanceTests_t.c:954.1
$LN3582:
        sub       rsp, 128                                      ;\\Mac\Home\Documents\Studium\6. Semester\Bachelorarbeit\Code\PerformanceTests\Enclave\PerformanceTests_t.c:954.1
$LN3583:
        lea       rbp, QWORD PTR [32+rsp]                       ;\\Mac\Home\Documents\Studium\6. Semester\Bachelorarbeit\Code\PerformanceTests\Enclave\PerformanceTests_t.c:954.1
$LN3584:
        mov       QWORD PTR [88+rbp], rdi                       ;\\Mac\Home\Documents\Studium\6. Semester\Bachelorarbeit\Code\PerformanceTests\Enclave\PerformanceTests_t.c:954.1[spill]
$LN3585:
        mov       QWORD PTR [80+rbp], rsi                       ;\\Mac\Home\Documents\Studium\6. Semester\Bachelorarbeit\Code\PerformanceTests\Enclave\PerformanceTests_t.c:954.1[spill]
$LN3586:
        mov       QWORD PTR [112+rbp], rcx                      ;\\Mac\Home\Documents\Studium\6. Semester\Bachelorarbeit\Code\PerformanceTests\Enclave\PerformanceTests_t.c:954.1
$LN3587:
        mov       QWORD PTR [120+rbp], rdx                      ;\\Mac\Home\Documents\Studium\6. Semester\Bachelorarbeit\Code\PerformanceTests\Enclave\PerformanceTests_t.c:954.1
$LN3588:
        mov       QWORD PTR [128+rbp], r8                       ;\\Mac\Home\Documents\Studium\6. Semester\Bachelorarbeit\Code\PerformanceTests\Enclave\PerformanceTests_t.c:954.1
$LN3589:

;;; 	sgx_status_t status = SGX_SUCCESS;

        mov       DWORD PTR [rbp], 0                            ;\\Mac\Home\Documents\Studium\6. Semester\Bachelorarbeit\Code\PerformanceTests\Enclave\PerformanceTests_t.c:955.22
$LN3590:

;;; 	size_t _len_waiters = total * sizeof(*waiters);

        mov       rax, QWORD PTR [128+rbp]                      ;\\Mac\Home\Documents\Studium\6. Semester\Bachelorarbeit\Code\PerformanceTests\Enclave\PerformanceTests_t.c:956.22
$LN3591:
        imul      rax, rax, 8                                   ;\\Mac\Home\Documents\Studium\6. Semester\Bachelorarbeit\Code\PerformanceTests\Enclave\PerformanceTests_t.c:956.22
$LN3592:
        mov       QWORD PTR [24+rbp], rax                       ;\\Mac\Home\Documents\Studium\6. Semester\Bachelorarbeit\Code\PerformanceTests\Enclave\PerformanceTests_t.c:956.22
$LN3593:

;;; 
;;; 	ms_sgx_thread_set_multiple_untrusted_events_ocall_t* ms = NULL;

        mov       QWORD PTR [32+rbp], 0                         ;\\Mac\Home\Documents\Studium\6. Semester\Bachelorarbeit\Code\PerformanceTests\Enclave\PerformanceTests_t.c:958.58
$LN3594:

;;; 	size_t ocalloc_size = sizeof(ms_sgx_thread_set_multiple_untrusted_events_ocall_t);

        mov       QWORD PTR [40+rbp], 24                        ;\\Mac\Home\Documents\Studium\6. Semester\Bachelorarbeit\Code\PerformanceTests\Enclave\PerformanceTests_t.c:959.22
$LN3595:

;;; 	void *__tmp = NULL;

        mov       QWORD PTR [48+rbp], 0                         ;\\Mac\Home\Documents\Studium\6. Semester\Bachelorarbeit\Code\PerformanceTests\Enclave\PerformanceTests_t.c:960.14
$LN3596:

;;; 
;;; 	ocalloc_size += (waiters != NULL && sgx_is_within_enclave(waiters, _len_waiters)) ? _len_waiters : 0;

        mov       rax, QWORD PTR [120+rbp]                      ;\\Mac\Home\Documents\Studium\6. Semester\Bachelorarbeit\Code\PerformanceTests\Enclave\PerformanceTests_t.c:962.2
$LN3597:
        test      rax, rax                                      ;\\Mac\Home\Documents\Studium\6. Semester\Bachelorarbeit\Code\PerformanceTests\Enclave\PerformanceTests_t.c:962.2
$LN3598:
        jne       .B22.3        ; Prob 50%                      ;\\Mac\Home\Documents\Studium\6. Semester\Bachelorarbeit\Code\PerformanceTests\Enclave\PerformanceTests_t.c:962.2
$LN3599:
                                ; LOE rbx rbp rsp r12 r13 r14 r15 rip zmm6 zmm7 zmm8 zmm9 zmm10 zmm11 zmm12 zmm13 zmm14 zmm15
.B22.2::                        ; Preds .B22.1
                                ; Execution count [0.00e+000]
$LN3600:
        mov       DWORD PTR [8+rbp], 0                          ;\\Mac\Home\Documents\Studium\6. Semester\Bachelorarbeit\Code\PerformanceTests\Enclave\PerformanceTests_t.c:962.2
$LN3601:
        jmp       .B22.7        ; Prob 100%                     ;\\Mac\Home\Documents\Studium\6. Semester\Bachelorarbeit\Code\PerformanceTests\Enclave\PerformanceTests_t.c:962.2
$LN3602:
                                ; LOE rbx rbp rsp r12 r13 r14 r15 rip zmm6 zmm7 zmm8 zmm9 zmm10 zmm11 zmm12 zmm13 zmm14 zmm15
.B22.3::                        ; Preds .B22.1
                                ; Execution count [0.00e+000]
$LN3603:
        mov       rax, QWORD PTR [120+rbp]                      ;\\Mac\Home\Documents\Studium\6. Semester\Bachelorarbeit\Code\PerformanceTests\Enclave\PerformanceTests_t.c:962.2
$LN3604:
        mov       rdx, QWORD PTR [24+rbp]                       ;\\Mac\Home\Documents\Studium\6. Semester\Bachelorarbeit\Code\PerformanceTests\Enclave\PerformanceTests_t.c:962.2
$LN3605:
        mov       rcx, rax                                      ;\\Mac\Home\Documents\Studium\6. Semester\Bachelorarbeit\Code\PerformanceTests\Enclave\PerformanceTests_t.c:962.2
$LN3606:
;       sgx_is_within_enclave(const void *, size_t)
        call      sgx_is_within_enclave                         ;\\Mac\Home\Documents\Studium\6. Semester\Bachelorarbeit\Code\PerformanceTests\Enclave\PerformanceTests_t.c:962.2
$LN3607:
                                ; LOE rbx rbp rsp r12 r13 r14 r15 rip eax zmm6 zmm7 zmm8 zmm9 zmm10 zmm11 zmm12 zmm13 zmm14 zmm15
.B22.29::                       ; Preds .B22.3
                                ; Execution count [0.00e+000]
$LN3608:
        mov       DWORD PTR [4+rbp], eax                        ;\\Mac\Home\Documents\Studium\6. Semester\Bachelorarbeit\Code\PerformanceTests\Enclave\PerformanceTests_t.c:962.2
$LN3609:
                                ; LOE rbx rbp rsp r12 r13 r14 r15 rip zmm6 zmm7 zmm8 zmm9 zmm10 zmm11 zmm12 zmm13 zmm14 zmm15
.B22.4::                        ; Preds .B22.29
                                ; Execution count [0.00e+000]
$LN3610:
        mov       eax, DWORD PTR [4+rbp]                        ;\\Mac\Home\Documents\Studium\6. Semester\Bachelorarbeit\Code\PerformanceTests\Enclave\PerformanceTests_t.c:962.2
$LN3611:
        test      eax, eax                                      ;\\Mac\Home\Documents\Studium\6. Semester\Bachelorarbeit\Code\PerformanceTests\Enclave\PerformanceTests_t.c:962.2
$LN3612:
        jne       .B22.6        ; Prob 50%                      ;\\Mac\Home\Documents\Studium\6. Semester\Bachelorarbeit\Code\PerformanceTests\Enclave\PerformanceTests_t.c:962.2
$LN3613:
                                ; LOE rbx rbp rsp r12 r13 r14 r15 rip zmm6 zmm7 zmm8 zmm9 zmm10 zmm11 zmm12 zmm13 zmm14 zmm15
.B22.5::                        ; Preds .B22.4
                                ; Execution count [0.00e+000]
$LN3614:
        mov       DWORD PTR [8+rbp], 0                          ;\\Mac\Home\Documents\Studium\6. Semester\Bachelorarbeit\Code\PerformanceTests\Enclave\PerformanceTests_t.c:962.2
$LN3615:
        jmp       .B22.7        ; Prob 100%                     ;\\Mac\Home\Documents\Studium\6. Semester\Bachelorarbeit\Code\PerformanceTests\Enclave\PerformanceTests_t.c:962.2
$LN3616:
                                ; LOE rbx rbp rsp r12 r13 r14 r15 rip zmm6 zmm7 zmm8 zmm9 zmm10 zmm11 zmm12 zmm13 zmm14 zmm15
.B22.6::                        ; Preds .B22.4
                                ; Execution count [0.00e+000]
$LN3617:
        mov       DWORD PTR [8+rbp], 1                          ;\\Mac\Home\Documents\Studium\6. Semester\Bachelorarbeit\Code\PerformanceTests\Enclave\PerformanceTests_t.c:962.2
$LN3618:
                                ; LOE rbx rbp rsp r12 r13 r14 r15 rip zmm6 zmm7 zmm8 zmm9 zmm10 zmm11 zmm12 zmm13 zmm14 zmm15
.B22.7::                        ; Preds .B22.6 .B22.5 .B22.2
                                ; Execution count [0.00e+000]
$LN3619:
        mov       eax, DWORD PTR [8+rbp]                        ;\\Mac\Home\Documents\Studium\6. Semester\Bachelorarbeit\Code\PerformanceTests\Enclave\PerformanceTests_t.c:962.2
$LN3620:
        test      eax, eax                                      ;\\Mac\Home\Documents\Studium\6. Semester\Bachelorarbeit\Code\PerformanceTests\Enclave\PerformanceTests_t.c:962.2
$LN3621:
        jne       .B22.9        ; Prob 50%                      ;\\Mac\Home\Documents\Studium\6. Semester\Bachelorarbeit\Code\PerformanceTests\Enclave\PerformanceTests_t.c:962.2
$LN3622:
                                ; LOE rbx rbp rsp r12 r13 r14 r15 rip zmm6 zmm7 zmm8 zmm9 zmm10 zmm11 zmm12 zmm13 zmm14 zmm15
.B22.8::                        ; Preds .B22.7
                                ; Execution count [0.00e+000]
$LN3623:
        mov       QWORD PTR [56+rbp], 0                         ;\\Mac\Home\Documents\Studium\6. Semester\Bachelorarbeit\Code\PerformanceTests\Enclave\PerformanceTests_t.c:962.2
$LN3624:
        jmp       .B22.10       ; Prob 100%                     ;\\Mac\Home\Documents\Studium\6. Semester\Bachelorarbeit\Code\PerformanceTests\Enclave\PerformanceTests_t.c:962.2
$LN3625:
                                ; LOE rbx rbp rsp r12 r13 r14 r15 rip zmm6 zmm7 zmm8 zmm9 zmm10 zmm11 zmm12 zmm13 zmm14 zmm15
.B22.9::                        ; Preds .B22.7
                                ; Execution count [0.00e+000]
$LN3626:
        mov       rax, QWORD PTR [24+rbp]                       ;\\Mac\Home\Documents\Studium\6. Semester\Bachelorarbeit\Code\PerformanceTests\Enclave\PerformanceTests_t.c:962.2
$LN3627:
        mov       QWORD PTR [56+rbp], rax                       ;\\Mac\Home\Documents\Studium\6. Semester\Bachelorarbeit\Code\PerformanceTests\Enclave\PerformanceTests_t.c:962.2
$LN3628:
                                ; LOE rbx rbp rsp r12 r13 r14 r15 rip zmm6 zmm7 zmm8 zmm9 zmm10 zmm11 zmm12 zmm13 zmm14 zmm15
.B22.10::                       ; Preds .B22.9 .B22.8
                                ; Execution count [0.00e+000]
$LN3629:
        mov       rax, QWORD PTR [56+rbp]                       ;\\Mac\Home\Documents\Studium\6. Semester\Bachelorarbeit\Code\PerformanceTests\Enclave\PerformanceTests_t.c:962.2
$LN3630:
        add       rax, QWORD PTR [40+rbp]                       ;\\Mac\Home\Documents\Studium\6. Semester\Bachelorarbeit\Code\PerformanceTests\Enclave\PerformanceTests_t.c:962.2
$LN3631:
        mov       QWORD PTR [40+rbp], rax                       ;\\Mac\Home\Documents\Studium\6. Semester\Bachelorarbeit\Code\PerformanceTests\Enclave\PerformanceTests_t.c:962.2
$LN3632:

;;; 
;;; 	__tmp = sgx_ocalloc(ocalloc_size);

        mov       rax, QWORD PTR [40+rbp]                       ;\\Mac\Home\Documents\Studium\6. Semester\Bachelorarbeit\Code\PerformanceTests\Enclave\PerformanceTests_t.c:964.2
$LN3633:
        mov       rcx, rax                                      ;\\Mac\Home\Documents\Studium\6. Semester\Bachelorarbeit\Code\PerformanceTests\Enclave\PerformanceTests_t.c:964.2
$LN3634:
;       sgx_ocalloc(size_t)
        call      sgx_ocalloc                                   ;\\Mac\Home\Documents\Studium\6. Semester\Bachelorarbeit\Code\PerformanceTests\Enclave\PerformanceTests_t.c:964.2
$LN3635:
                                ; LOE rax rbx rbp rsp r12 r13 r14 r15 rip zmm6 zmm7 zmm8 zmm9 zmm10 zmm11 zmm12 zmm13 zmm14 zmm15
.B22.30::                       ; Preds .B22.10
                                ; Execution count [0.00e+000]
$LN3636:
        mov       QWORD PTR [64+rbp], rax                       ;\\Mac\Home\Documents\Studium\6. Semester\Bachelorarbeit\Code\PerformanceTests\Enclave\PerformanceTests_t.c:964.2
$LN3637:
                                ; LOE rbx rbp rsp r12 r13 r14 r15 rip zmm6 zmm7 zmm8 zmm9 zmm10 zmm11 zmm12 zmm13 zmm14 zmm15
.B22.11::                       ; Preds .B22.30
                                ; Execution count [0.00e+000]
$LN3638:
        mov       rax, QWORD PTR [64+rbp]                       ;\\Mac\Home\Documents\Studium\6. Semester\Bachelorarbeit\Code\PerformanceTests\Enclave\PerformanceTests_t.c:964.2
$LN3639:
        mov       QWORD PTR [48+rbp], rax                       ;\\Mac\Home\Documents\Studium\6. Semester\Bachelorarbeit\Code\PerformanceTests\Enclave\PerformanceTests_t.c:964.2
$LN3640:

;;; 	if (__tmp == NULL) {

        mov       rax, QWORD PTR [48+rbp]                       ;\\Mac\Home\Documents\Studium\6. Semester\Bachelorarbeit\Code\PerformanceTests\Enclave\PerformanceTests_t.c:965.2
$LN3641:
        test      rax, rax                                      ;\\Mac\Home\Documents\Studium\6. Semester\Bachelorarbeit\Code\PerformanceTests\Enclave\PerformanceTests_t.c:965.2
$LN3642:
        jne       .B22.14       ; Prob 50%                      ;\\Mac\Home\Documents\Studium\6. Semester\Bachelorarbeit\Code\PerformanceTests\Enclave\PerformanceTests_t.c:965.2
$LN3643:
                                ; LOE rbx rbp rsp r12 r13 r14 r15 rip zmm6 zmm7 zmm8 zmm9 zmm10 zmm11 zmm12 zmm13 zmm14 zmm15
.B22.12::                       ; Preds .B22.11
                                ; Execution count [0.00e+000]
$LN3644:

;;; 		sgx_ocfree();

;       sgx_ocfree(void)
        call      sgx_ocfree                                    ;\\Mac\Home\Documents\Studium\6. Semester\Bachelorarbeit\Code\PerformanceTests\Enclave\PerformanceTests_t.c:966.3
$LN3645:
                                ; LOE rbx rbp rsp r12 r13 r14 r15 rip zmm6 zmm7 zmm8 zmm9 zmm10 zmm11 zmm12 zmm13 zmm14 zmm15
.B22.13::                       ; Preds .B22.12
                                ; Execution count [0.00e+000]
$LN3646:

;;; 		return SGX_ERROR_UNEXPECTED;

        mov       eax, 1                                        ;\\Mac\Home\Documents\Studium\6. Semester\Bachelorarbeit\Code\PerformanceTests\Enclave\PerformanceTests_t.c:967.3
$LN3647:
        mov       rsi, QWORD PTR [80+rbp]                       ;\\Mac\Home\Documents\Studium\6. Semester\Bachelorarbeit\Code\PerformanceTests\Enclave\PerformanceTests_t.c:967.3[spill]
$LN3648:
        mov       rdi, QWORD PTR [88+rbp]                       ;\\Mac\Home\Documents\Studium\6. Semester\Bachelorarbeit\Code\PerformanceTests\Enclave\PerformanceTests_t.c:967.3[spill]
$LN3649:
        lea       rsp, QWORD PTR [96+rbp]                       ;\\Mac\Home\Documents\Studium\6. Semester\Bachelorarbeit\Code\PerformanceTests\Enclave\PerformanceTests_t.c:967.3
$LN3650:
        pop       rbp                                           ;\\Mac\Home\Documents\Studium\6. Semester\Bachelorarbeit\Code\PerformanceTests\Enclave\PerformanceTests_t.c:967.3
$LN3651:
        ret                                                     ;\\Mac\Home\Documents\Studium\6. Semester\Bachelorarbeit\Code\PerformanceTests\Enclave\PerformanceTests_t.c:967.3
$LN3652:
                                ; LOE
.B22.14::                       ; Preds .B22.11
                                ; Execution count [0.00e+000]
$LN3653:

;;; 	}
;;; 	ms = (ms_sgx_thread_set_multiple_untrusted_events_ocall_t*)__tmp;

        mov       rax, QWORD PTR [48+rbp]                       ;\\Mac\Home\Documents\Studium\6. Semester\Bachelorarbeit\Code\PerformanceTests\Enclave\PerformanceTests_t.c:969.2
$LN3654:
        mov       QWORD PTR [32+rbp], rax                       ;\\Mac\Home\Documents\Studium\6. Semester\Bachelorarbeit\Code\PerformanceTests\Enclave\PerformanceTests_t.c:969.2
$LN3655:

;;; 	__tmp = (void *)((size_t)__tmp + sizeof(ms_sgx_thread_set_multiple_untrusted_events_ocall_t));

        add       QWORD PTR [48+rbp], 24                        ;\\Mac\Home\Documents\Studium\6. Semester\Bachelorarbeit\Code\PerformanceTests\Enclave\PerformanceTests_t.c:970.2
$LN3656:

;;; 
;;; 	if (waiters != NULL && sgx_is_within_enclave(waiters, _len_waiters)) {

        mov       rax, QWORD PTR [120+rbp]                      ;\\Mac\Home\Documents\Studium\6. Semester\Bachelorarbeit\Code\PerformanceTests\Enclave\PerformanceTests_t.c:972.2
$LN3657:
        test      rax, rax                                      ;\\Mac\Home\Documents\Studium\6. Semester\Bachelorarbeit\Code\PerformanceTests\Enclave\PerformanceTests_t.c:972.2
$LN3658:
        je        .B22.18       ; Prob 50%                      ;\\Mac\Home\Documents\Studium\6. Semester\Bachelorarbeit\Code\PerformanceTests\Enclave\PerformanceTests_t.c:972.2
$LN3659:
                                ; LOE rbx rbp rsp r12 r13 r14 r15 rip zmm6 zmm7 zmm8 zmm9 zmm10 zmm11 zmm12 zmm13 zmm14 zmm15
.B22.15::                       ; Preds .B22.14
                                ; Execution count [0.00e+000]
$LN3660:
        mov       rax, QWORD PTR [120+rbp]                      ;\\Mac\Home\Documents\Studium\6. Semester\Bachelorarbeit\Code\PerformanceTests\Enclave\PerformanceTests_t.c:972.2
$LN3661:
        mov       rdx, QWORD PTR [24+rbp]                       ;\\Mac\Home\Documents\Studium\6. Semester\Bachelorarbeit\Code\PerformanceTests\Enclave\PerformanceTests_t.c:972.2
$LN3662:
        mov       rcx, rax                                      ;\\Mac\Home\Documents\Studium\6. Semester\Bachelorarbeit\Code\PerformanceTests\Enclave\PerformanceTests_t.c:972.2
$LN3663:
;       sgx_is_within_enclave(const void *, size_t)
        call      sgx_is_within_enclave                         ;\\Mac\Home\Documents\Studium\6. Semester\Bachelorarbeit\Code\PerformanceTests\Enclave\PerformanceTests_t.c:972.2
$LN3664:
                                ; LOE rbx rbp rsp r12 r13 r14 r15 rip eax zmm6 zmm7 zmm8 zmm9 zmm10 zmm11 zmm12 zmm13 zmm14 zmm15
.B22.31::                       ; Preds .B22.15
                                ; Execution count [0.00e+000]
$LN3665:
        mov       DWORD PTR [12+rbp], eax                       ;\\Mac\Home\Documents\Studium\6. Semester\Bachelorarbeit\Code\PerformanceTests\Enclave\PerformanceTests_t.c:972.2
$LN3666:
                                ; LOE rbx rbp rsp r12 r13 r14 r15 rip zmm6 zmm7 zmm8 zmm9 zmm10 zmm11 zmm12 zmm13 zmm14 zmm15
.B22.16::                       ; Preds .B22.31
                                ; Execution count [0.00e+000]
$LN3667:
        mov       eax, DWORD PTR [12+rbp]                       ;\\Mac\Home\Documents\Studium\6. Semester\Bachelorarbeit\Code\PerformanceTests\Enclave\PerformanceTests_t.c:972.2
$LN3668:
        test      eax, eax                                      ;\\Mac\Home\Documents\Studium\6. Semester\Bachelorarbeit\Code\PerformanceTests\Enclave\PerformanceTests_t.c:972.2
$LN3669:
        je        .B22.18       ; Prob 50%                      ;\\Mac\Home\Documents\Studium\6. Semester\Bachelorarbeit\Code\PerformanceTests\Enclave\PerformanceTests_t.c:972.2
$LN3670:
                                ; LOE rbx rbp rsp r12 r13 r14 r15 rip zmm6 zmm7 zmm8 zmm9 zmm10 zmm11 zmm12 zmm13 zmm14 zmm15
.B22.17::                       ; Preds .B22.16
                                ; Execution count [0.00e+000]
$LN3671:

;;; 		ms->ms_waiters = (void**)__tmp;

        mov       rax, QWORD PTR [32+rbp]                       ;\\Mac\Home\Documents\Studium\6. Semester\Bachelorarbeit\Code\PerformanceTests\Enclave\PerformanceTests_t.c:973.3
$LN3672:
        mov       rdx, QWORD PTR [48+rbp]                       ;\\Mac\Home\Documents\Studium\6. Semester\Bachelorarbeit\Code\PerformanceTests\Enclave\PerformanceTests_t.c:973.3
$LN3673:
        mov       QWORD PTR [8+rax], rdx                        ;\\Mac\Home\Documents\Studium\6. Semester\Bachelorarbeit\Code\PerformanceTests\Enclave\PerformanceTests_t.c:973.3
$LN3674:

;;; 		__tmp = (void *)((size_t)__tmp + _len_waiters);

        mov       rax, QWORD PTR [24+rbp]                       ;\\Mac\Home\Documents\Studium\6. Semester\Bachelorarbeit\Code\PerformanceTests\Enclave\PerformanceTests_t.c:974.3
$LN3675:
        add       rax, QWORD PTR [48+rbp]                       ;\\Mac\Home\Documents\Studium\6. Semester\Bachelorarbeit\Code\PerformanceTests\Enclave\PerformanceTests_t.c:974.3
$LN3676:
        mov       QWORD PTR [48+rbp], rax                       ;\\Mac\Home\Documents\Studium\6. Semester\Bachelorarbeit\Code\PerformanceTests\Enclave\PerformanceTests_t.c:974.3
$LN3677:

;;; 		memcpy((void*)ms->ms_waiters, waiters, _len_waiters);

        mov       rax, QWORD PTR [32+rbp]                       ;\\Mac\Home\Documents\Studium\6. Semester\Bachelorarbeit\Code\PerformanceTests\Enclave\PerformanceTests_t.c:975.3
$LN3678:
        mov       rax, QWORD PTR [8+rax]                        ;\\Mac\Home\Documents\Studium\6. Semester\Bachelorarbeit\Code\PerformanceTests\Enclave\PerformanceTests_t.c:975.3
$LN3679:
        mov       rdx, QWORD PTR [120+rbp]                      ;\\Mac\Home\Documents\Studium\6. Semester\Bachelorarbeit\Code\PerformanceTests\Enclave\PerformanceTests_t.c:975.3
$LN3680:
        mov       rcx, QWORD PTR [24+rbp]                       ;\\Mac\Home\Documents\Studium\6. Semester\Bachelorarbeit\Code\PerformanceTests\Enclave\PerformanceTests_t.c:975.3
$LN3681:
        mov       rdi, rax                                      ;\\Mac\Home\Documents\Studium\6. Semester\Bachelorarbeit\Code\PerformanceTests\Enclave\PerformanceTests_t.c:975.3
$LN3682:
        mov       rsi, rdx                                      ;\\Mac\Home\Documents\Studium\6. Semester\Bachelorarbeit\Code\PerformanceTests\Enclave\PerformanceTests_t.c:975.3
$LN3683:
        mov       rdx, rdi                                      ;\\Mac\Home\Documents\Studium\6. Semester\Bachelorarbeit\Code\PerformanceTests\Enclave\PerformanceTests_t.c:975.3
$LN3684:
        mov       eax, ecx                                      ;\\Mac\Home\Documents\Studium\6. Semester\Bachelorarbeit\Code\PerformanceTests\Enclave\PerformanceTests_t.c:975.3
$LN3685:
        shr       rcx, 2                                        ;\\Mac\Home\Documents\Studium\6. Semester\Bachelorarbeit\Code\PerformanceTests\Enclave\PerformanceTests_t.c:975.3
$LN3686:
        rep   movsd                                             ;\\Mac\Home\Documents\Studium\6. Semester\Bachelorarbeit\Code\PerformanceTests\Enclave\PerformanceTests_t.c:975.3
$LN3687:
        mov       ecx, eax                                      ;\\Mac\Home\Documents\Studium\6. Semester\Bachelorarbeit\Code\PerformanceTests\Enclave\PerformanceTests_t.c:975.3
$LN3688:
        and       ecx, 3                                        ;\\Mac\Home\Documents\Studium\6. Semester\Bachelorarbeit\Code\PerformanceTests\Enclave\PerformanceTests_t.c:975.3
$LN3689:
        rep   movsb                                             ;\\Mac\Home\Documents\Studium\6. Semester\Bachelorarbeit\Code\PerformanceTests\Enclave\PerformanceTests_t.c:975.3
$LN3690:
        mov       rax, rdx                                      ;\\Mac\Home\Documents\Studium\6. Semester\Bachelorarbeit\Code\PerformanceTests\Enclave\PerformanceTests_t.c:975.3
$LN3691:
                                ; LOE rax rbx rbp rsp r12 r13 r14 r15 rip zmm6 zmm7 zmm8 zmm9 zmm10 zmm11 zmm12 zmm13 zmm14 zmm15
.B22.32::                       ; Preds .B22.17
                                ; Execution count [0.00e+000]
$LN3692:
        mov       QWORD PTR [72+rbp], rax                       ;\\Mac\Home\Documents\Studium\6. Semester\Bachelorarbeit\Code\PerformanceTests\Enclave\PerformanceTests_t.c:975.3
$LN3693:
        jmp       .B22.22       ; Prob 100%                     ;\\Mac\Home\Documents\Studium\6. Semester\Bachelorarbeit\Code\PerformanceTests\Enclave\PerformanceTests_t.c:975.3
$LN3694:
                                ; LOE rbx rbp rsp r12 r13 r14 r15 rip zmm6 zmm7 zmm8 zmm9 zmm10 zmm11 zmm12 zmm13 zmm14 zmm15
.B22.18::                       ; Preds .B22.14 .B22.16
                                ; Execution count [0.00e+000]
$LN3695:

;;; 	} else if (waiters == NULL) {

        mov       rax, QWORD PTR [120+rbp]                      ;\\Mac\Home\Documents\Studium\6. Semester\Bachelorarbeit\Code\PerformanceTests\Enclave\PerformanceTests_t.c:976.9
$LN3696:
        test      rax, rax                                      ;\\Mac\Home\Documents\Studium\6. Semester\Bachelorarbeit\Code\PerformanceTests\Enclave\PerformanceTests_t.c:976.9
$LN3697:
        jne       .B22.20       ; Prob 50%                      ;\\Mac\Home\Documents\Studium\6. Semester\Bachelorarbeit\Code\PerformanceTests\Enclave\PerformanceTests_t.c:976.9
$LN3698:
                                ; LOE rbx rbp rsp r12 r13 r14 r15 rip zmm6 zmm7 zmm8 zmm9 zmm10 zmm11 zmm12 zmm13 zmm14 zmm15
.B22.19::                       ; Preds .B22.18
                                ; Execution count [0.00e+000]
$LN3699:

;;; 		ms->ms_waiters = NULL;

        mov       rax, QWORD PTR [32+rbp]                       ;\\Mac\Home\Documents\Studium\6. Semester\Bachelorarbeit\Code\PerformanceTests\Enclave\PerformanceTests_t.c:977.3
$LN3700:
        mov       QWORD PTR [8+rax], 0                          ;\\Mac\Home\Documents\Studium\6. Semester\Bachelorarbeit\Code\PerformanceTests\Enclave\PerformanceTests_t.c:977.3
$LN3701:
        jmp       .B22.22       ; Prob 100%                     ;\\Mac\Home\Documents\Studium\6. Semester\Bachelorarbeit\Code\PerformanceTests\Enclave\PerformanceTests_t.c:977.3
$LN3702:
                                ; LOE rbx rbp rsp r12 r13 r14 r15 rip zmm6 zmm7 zmm8 zmm9 zmm10 zmm11 zmm12 zmm13 zmm14 zmm15
.B22.20::                       ; Preds .B22.18
                                ; Execution count [0.00e+000]
$LN3703:

;;; 	} else {
;;; 		sgx_ocfree();

;       sgx_ocfree(void)
        call      sgx_ocfree                                    ;\\Mac\Home\Documents\Studium\6. Semester\Bachelorarbeit\Code\PerformanceTests\Enclave\PerformanceTests_t.c:979.3
$LN3704:
                                ; LOE rbx rbp rsp r12 r13 r14 r15 rip zmm6 zmm7 zmm8 zmm9 zmm10 zmm11 zmm12 zmm13 zmm14 zmm15
.B22.21::                       ; Preds .B22.20
                                ; Execution count [0.00e+000]
$LN3705:

;;; 		return SGX_ERROR_INVALID_PARAMETER;

        mov       eax, 2                                        ;\\Mac\Home\Documents\Studium\6. Semester\Bachelorarbeit\Code\PerformanceTests\Enclave\PerformanceTests_t.c:980.3
$LN3706:
        mov       rsi, QWORD PTR [80+rbp]                       ;\\Mac\Home\Documents\Studium\6. Semester\Bachelorarbeit\Code\PerformanceTests\Enclave\PerformanceTests_t.c:980.3[spill]
$LN3707:
        mov       rdi, QWORD PTR [88+rbp]                       ;\\Mac\Home\Documents\Studium\6. Semester\Bachelorarbeit\Code\PerformanceTests\Enclave\PerformanceTests_t.c:980.3[spill]
$LN3708:
        lea       rsp, QWORD PTR [96+rbp]                       ;\\Mac\Home\Documents\Studium\6. Semester\Bachelorarbeit\Code\PerformanceTests\Enclave\PerformanceTests_t.c:980.3
$LN3709:
        pop       rbp                                           ;\\Mac\Home\Documents\Studium\6. Semester\Bachelorarbeit\Code\PerformanceTests\Enclave\PerformanceTests_t.c:980.3
$LN3710:
        ret                                                     ;\\Mac\Home\Documents\Studium\6. Semester\Bachelorarbeit\Code\PerformanceTests\Enclave\PerformanceTests_t.c:980.3
$LN3711:
                                ; LOE
.B22.22::                       ; Preds .B22.32 .B22.19
                                ; Execution count [0.00e+000]
$LN3712:

;;; 	}
;;; 	
;;; 	ms->ms_total = total;

        mov       rax, QWORD PTR [32+rbp]                       ;\\Mac\Home\Documents\Studium\6. Semester\Bachelorarbeit\Code\PerformanceTests\Enclave\PerformanceTests_t.c:983.2
$LN3713:
        mov       rdx, QWORD PTR [128+rbp]                      ;\\Mac\Home\Documents\Studium\6. Semester\Bachelorarbeit\Code\PerformanceTests\Enclave\PerformanceTests_t.c:983.2
$LN3714:
        mov       QWORD PTR [16+rax], rdx                       ;\\Mac\Home\Documents\Studium\6. Semester\Bachelorarbeit\Code\PerformanceTests\Enclave\PerformanceTests_t.c:983.2
$LN3715:

;;; 	status = sgx_ocall(4, ms);

        mov       eax, 4                                        ;\\Mac\Home\Documents\Studium\6. Semester\Bachelorarbeit\Code\PerformanceTests\Enclave\PerformanceTests_t.c:984.2
$LN3716:
        mov       rdx, QWORD PTR [32+rbp]                       ;\\Mac\Home\Documents\Studium\6. Semester\Bachelorarbeit\Code\PerformanceTests\Enclave\PerformanceTests_t.c:984.2
$LN3717:
        mov       ecx, eax                                      ;\\Mac\Home\Documents\Studium\6. Semester\Bachelorarbeit\Code\PerformanceTests\Enclave\PerformanceTests_t.c:984.2
$LN3718:
;       sgx_ocall(const unsigned int, void *)
        call      sgx_ocall                                     ;\\Mac\Home\Documents\Studium\6. Semester\Bachelorarbeit\Code\PerformanceTests\Enclave\PerformanceTests_t.c:984.2
$LN3719:
                                ; LOE rbx rbp rsp r12 r13 r14 r15 rip eax zmm6 zmm7 zmm8 zmm9 zmm10 zmm11 zmm12 zmm13 zmm14 zmm15
.B22.33::                       ; Preds .B22.22
                                ; Execution count [0.00e+000]
$LN3720:
        mov       DWORD PTR [16+rbp], eax                       ;\\Mac\Home\Documents\Studium\6. Semester\Bachelorarbeit\Code\PerformanceTests\Enclave\PerformanceTests_t.c:984.2
$LN3721:
                                ; LOE rbx rbp rsp r12 r13 r14 r15 rip zmm6 zmm7 zmm8 zmm9 zmm10 zmm11 zmm12 zmm13 zmm14 zmm15
.B22.23::                       ; Preds .B22.33
                                ; Execution count [0.00e+000]
$LN3722:
        mov       eax, DWORD PTR [16+rbp]                       ;\\Mac\Home\Documents\Studium\6. Semester\Bachelorarbeit\Code\PerformanceTests\Enclave\PerformanceTests_t.c:984.2
$LN3723:
        mov       DWORD PTR [rbp], eax                          ;\\Mac\Home\Documents\Studium\6. Semester\Bachelorarbeit\Code\PerformanceTests\Enclave\PerformanceTests_t.c:984.2
$LN3724:

;;; 
;;; 	if (retval) *retval = ms->ms_retval;

        mov       rax, QWORD PTR [112+rbp]                      ;\\Mac\Home\Documents\Studium\6. Semester\Bachelorarbeit\Code\PerformanceTests\Enclave\PerformanceTests_t.c:986.2
$LN3725:
        test      rax, rax                                      ;\\Mac\Home\Documents\Studium\6. Semester\Bachelorarbeit\Code\PerformanceTests\Enclave\PerformanceTests_t.c:986.2
$LN3726:
        je        .B22.25       ; Prob 50%                      ;\\Mac\Home\Documents\Studium\6. Semester\Bachelorarbeit\Code\PerformanceTests\Enclave\PerformanceTests_t.c:986.2
$LN3727:
                                ; LOE rbx rbp rsp r12 r13 r14 r15 rip zmm6 zmm7 zmm8 zmm9 zmm10 zmm11 zmm12 zmm13 zmm14 zmm15
.B22.24::                       ; Preds .B22.23
                                ; Execution count [0.00e+000]
$LN3728:
        mov       rax, QWORD PTR [32+rbp]                       ;\\Mac\Home\Documents\Studium\6. Semester\Bachelorarbeit\Code\PerformanceTests\Enclave\PerformanceTests_t.c:986.14
$LN3729:
        mov       rdx, QWORD PTR [112+rbp]                      ;\\Mac\Home\Documents\Studium\6. Semester\Bachelorarbeit\Code\PerformanceTests\Enclave\PerformanceTests_t.c:986.14
$LN3730:
        mov       eax, DWORD PTR [rax]                          ;\\Mac\Home\Documents\Studium\6. Semester\Bachelorarbeit\Code\PerformanceTests\Enclave\PerformanceTests_t.c:986.14
$LN3731:
        mov       DWORD PTR [rdx], eax                          ;\\Mac\Home\Documents\Studium\6. Semester\Bachelorarbeit\Code\PerformanceTests\Enclave\PerformanceTests_t.c:986.14
$LN3732:
                                ; LOE rbx rbp rsp r12 r13 r14 r15 rip zmm6 zmm7 zmm8 zmm9 zmm10 zmm11 zmm12 zmm13 zmm14 zmm15
.B22.25::                       ; Preds .B22.24 .B22.23
                                ; Execution count [0.00e+000]
$LN3733:

;;; 
;;; 	sgx_ocfree();

;       sgx_ocfree(void)
        call      sgx_ocfree                                    ;\\Mac\Home\Documents\Studium\6. Semester\Bachelorarbeit\Code\PerformanceTests\Enclave\PerformanceTests_t.c:988.2
$LN3734:
                                ; LOE rbx rbp rsp r12 r13 r14 r15 rip zmm6 zmm7 zmm8 zmm9 zmm10 zmm11 zmm12 zmm13 zmm14 zmm15
.B22.26::                       ; Preds .B22.25
                                ; Execution count [0.00e+000]
$LN3735:

;;; 	return status;

        mov       eax, DWORD PTR [rbp]                          ;\\Mac\Home\Documents\Studium\6. Semester\Bachelorarbeit\Code\PerformanceTests\Enclave\PerformanceTests_t.c:989.2
$LN3736:
        mov       rsi, QWORD PTR [80+rbp]                       ;\\Mac\Home\Documents\Studium\6. Semester\Bachelorarbeit\Code\PerformanceTests\Enclave\PerformanceTests_t.c:989.2[spill]
$LN3737:
        mov       rdi, QWORD PTR [88+rbp]                       ;\\Mac\Home\Documents\Studium\6. Semester\Bachelorarbeit\Code\PerformanceTests\Enclave\PerformanceTests_t.c:989.2[spill]
$LN3738:
        lea       rsp, QWORD PTR [96+rbp]                       ;\\Mac\Home\Documents\Studium\6. Semester\Bachelorarbeit\Code\PerformanceTests\Enclave\PerformanceTests_t.c:989.2
$LN3739:
        pop       rbp                                           ;\\Mac\Home\Documents\Studium\6. Semester\Bachelorarbeit\Code\PerformanceTests\Enclave\PerformanceTests_t.c:989.2
$LN3740:
        ret                                                     ;\\Mac\Home\Documents\Studium\6. Semester\Bachelorarbeit\Code\PerformanceTests\Enclave\PerformanceTests_t.c:989.2
$LN3741:
                                ; LOE
.B22.27::
$LN3742:
; mark_end;
sgx_thread_set_multiple_untrusted_events_ocall ENDP
$LNsgx_thread_set_multiple_untrusted_events_ocall$3743:
_TEXT	ENDS
.xdata	SEGMENT  DWORD   READ  ''
	ALIGN 004H
.unwind.sgx_thread_set_multiple_untrusted_events_ocall.B1_B26	DD	621221121
	DD	943125
	DD	1012753
	DD	4060611341
	DD	20481
.xdata	ENDS
.pdata	SEGMENT  DWORD   READ  ''
	ALIGN 004H
.pdata.sgx_thread_set_multiple_untrusted_events_ocall.B1_B26	DD	imagerel .B22.1
	DD	imagerel .B22.27
	DD	imagerel .unwind.sgx_thread_set_multiple_untrusted_events_ocall.B1_B26
.pdata	ENDS
_DATA	SEGMENT      'DATA'
_DATA	ENDS
; -- End  sgx_thread_set_multiple_untrusted_events_ocall
_RDATA	SEGMENT     READ  'DATA'
	ALIGN 004H
	PUBLIC g_ecall_table
g_ecall_table	DD	000000011H,000000000H
	DQ	sgx_enclaveJustCopy
	DB	0
	DB	0
	DB	0
	DB	0
	DB	0
	DB	0
	DB	0
	DB	0
	DQ	sgx_enclaveNoCopy
	DB	0
	DB	0
	DB	0
	DB	0
	DB	0
	DB	0
	DB	0
	DB	0
	DQ	sgx_enclaveCryptoNoCopy
	DB	0
	DB	0
	DB	0
	DB	0
	DB	0
	DB	0
	DB	0
	DB	0
	DQ	sgx_enclaveIterate
	DB	0
	DB	0
	DB	0
	DB	0
	DB	0
	DB	0
	DB	0
	DB	0
	DQ	sgx_enclaveVByteEncode
	DB	0
	DB	0
	DB	0
	DB	0
	DB	0
	DB	0
	DB	0
	DB	0
	DQ	sgx_enclaveVByteDecode
	DB	0
	DB	0
	DB	0
	DB	0
	DB	0
	DB	0
	DB	0
	DB	0
	DQ	sgx_enclaveRunLengthEncode
	DB	0
	DB	0
	DB	0
	DB	0
	DB	0
	DB	0
	DB	0
	DB	0
	DQ	sgx_enclaveRunLengthDecode
	DB	0
	DB	0
	DB	0
	DB	0
	DB	0
	DB	0
	DB	0
	DB	0
	DQ	sgx_enclaveRunLengthEncodeAndSum
	DB	0
	DB	0
	DB	0
	DB	0
	DB	0
	DB	0
	DB	0
	DB	0
	DQ	sgx_enclaveVByte
	DB	0
	DB	0
	DB	0
	DB	0
	DB	0
	DB	0
	DB	0
	DB	0
	DQ	sgx_enclaveVByteDecodeEncrypted
	DB	0
	DB	0
	DB	0
	DB	0
	DB	0
	DB	0
	DB	0
	DB	0
	DQ	sgx_enclaveVByteEncodeEncrypted
	DB	0
	DB	0
	DB	0
	DB	0
	DB	0
	DB	0
	DB	0
	DB	0
	DQ	sgx_enclaveVByteEncodeEncryptedPreproc
	DB	0
	DB	0
	DB	0
	DB	0
	DB	0
	DB	0
	DB	0
	DB	0
	DQ	sgx_enclaveCrypto
	DB	0
	DB	0
	DB	0
	DB	0
	DB	0
	DB	0
	DB	0
	DB	0
	DQ	sgx_enclaveCompleteProcess
	DB	0
	DB	0
	DB	0
	DB	0
	DB	0
	DB	0
	DB	0
	DB	0
	DQ	sgx_encryptBytes
	DB	1
	DB	0
	DB	0
	DB	0
	DB	0
	DB	0
	DB	0
	DB	0
	DQ	sgx_decryptBytes
	DB	1
	DB	0
	DB	0
	DB	0
	DB	0
	DB	0
	DB	0
	DB	0
	DD 2 DUP (0H)	; pad
	PUBLIC g_dyn_entry_table
g_dyn_entry_table	DD	000000005H,000000000H
	DB	0
	DB	0
	DB	0
	DB	0
	DB	0
	DB	0
	DB	0
	DB	0
	DB	0
	DB	0
	DB	0
	DB	0
	DB	0
	DB	0
	DB	0
	DB	0
	DB	0
	DB	0
	DB	0
	DB	0
	DB	0
	DB	0
	DB	0
	DB	0
	DB	0
	DB	0
	DB	0
	DB	0
	DB	0
	DB	0
	DB	0
	DB	0
	DB	0
	DB	0
	DB	0
	DB	0
	DB	0
	DB	0
	DB	0
	DB	0
	DB	0
	DB	0
	DB	0
	DB	0
	DB	0
	DB	0
	DB	0
	DB	0
	DB	0
	DB	0
	DB	0
	DB	0
	DB	0
	DB	0
	DB	0
	DB	0
	DB	0
	DB	0
	DB	0
	DB	0
	DB	0
	DB	0
	DB	0
	DB	0
	DB	0
	DB	0
	DB	0
	DB	0
	DB	0
	DB	0
	DB	0
	DB	0
	DB	0
	DB	0
	DB	0
	DB	0
	DB	0
	DB	0
	DB	0
	DB	0
	DB	0
	DB	0
	DB	0
	DB	0
	DB	0
	DB	0
	DB	0
	DB	0
_RDATA	ENDS
_DATA	SEGMENT      'DATA'
_DATA	ENDS
; mark_proc_addr_taken sgx_decryptBytes;
; mark_proc_addr_taken sgx_encryptBytes;
; mark_proc_addr_taken sgx_enclaveCompleteProcess;
; mark_proc_addr_taken sgx_enclaveCrypto;
; mark_proc_addr_taken sgx_enclaveVByteEncodeEncryptedPreproc;
; mark_proc_addr_taken sgx_enclaveVByteEncodeEncrypted;
; mark_proc_addr_taken sgx_enclaveVByteDecodeEncrypted;
; mark_proc_addr_taken sgx_enclaveVByte;
; mark_proc_addr_taken sgx_enclaveRunLengthEncodeAndSum;
; mark_proc_addr_taken sgx_enclaveRunLengthDecode;
; mark_proc_addr_taken sgx_enclaveRunLengthEncode;
; mark_proc_addr_taken sgx_enclaveVByteDecode;
; mark_proc_addr_taken sgx_enclaveVByteEncode;
; mark_proc_addr_taken sgx_enclaveIterate;
; mark_proc_addr_taken sgx_enclaveCryptoNoCopy;
; mark_proc_addr_taken sgx_enclaveNoCopy;
; mark_proc_addr_taken sgx_enclaveJustCopy;
EXTRN	malloc:PROC
EXTRN	free:PROC
EXTRN	sgx_is_outside_enclave:PROC
EXTRN	sgx_is_within_enclave:PROC
EXTRN	decryptBytes:PROC
EXTRN	encryptBytes:PROC
EXTRN	enclaveCompleteProcess:PROC
EXTRN	enclaveCrypto:PROC
EXTRN	enclaveVByteEncodeEncryptedPreproc:PROC
EXTRN	enclaveVByteEncodeEncrypted:PROC
EXTRN	enclaveVByteDecodeEncrypted:PROC
EXTRN	enclaveVByte:PROC
EXTRN	enclaveRunLengthEncodeAndSum:PROC
EXTRN	enclaveRunLengthDecode:PROC
EXTRN	enclaveRunLengthEncode:PROC
EXTRN	enclaveVByteDecode:PROC
EXTRN	enclaveVByteEncode:PROC
EXTRN	enclaveIterate:PROC
EXTRN	enclaveCryptoNoCopy:PROC
EXTRN	enclaveNoCopy:PROC
EXTRN	enclaveJustCopy:PROC
EXTRN	sgx_ocall:PROC
EXTRN	sgx_ocfree:PROC
EXTRN	sgx_ocalloc:PROC
EXTRN	__ImageBase:PROC
	INCLUDELIB <libmmt>
	INCLUDELIB <LIBCMTD>
	INCLUDELIB <libirc>
	INCLUDELIB <svml_dispmt>
	INCLUDELIB <OLDNAMES>
	INCLUDELIB <libdecimal>
	END
